ASxxxx Linker V03.00 + NoICE + sdld,  page 1.
Hexadecimal  [32-Bits]

Area                       Addr        Size        Decimal Bytes (Attributes)
--------------------       ----        ----        ------- ----- ------------
.  .ABS.               00000000    00000000 =           0. bytes (ABS,CON)

        Value  Global            Value  Global            Value  Global    
        -----  ------            -----  ------            -----  ------    
     00000000  .__.ABS.  |    00000000  _rRAMG    |    00000000  l__BASE  
     00000000  l__BSS    |    00000000  l__CABS   |    00000000  l__CODE_1
     00000000  l__DABS   |    00000000  l__HEADER |    00000000  l__HEAP  
     00000000  l__HRAM   |    00000000  l__LIT    |    00000000  s__CABS  
     00000000  s__DABS   |    00000000  s__HEADER |    00000000  s__HEADER
     00000000  s__HEADER |    00000000  s__HEADER |    00000000  s__HEADER
     00000000  s__HEADER |    00000000  s__HEADER |    00000000  s__HEADER
     00000000  s__HEADER |    00000000  s__HEADER |    00000000  s__HEADER
     00000000  s__HEADER |    00000000  s__HEADER |    00000000  s__HEADER
     00000000  s__HEADER |    00000000  s__HEADER |    00000000  s__HEADER
     00000000  s__HEADER |    00000000  s__HEADER |    00000000  s__HRAM  
     00000000  s__HRAM12 |    00000001  l__GSFINA |    00000001  l__HEADER
     00000001  l__HEADER |    00000001  l__HEADER |    00000001  l__HEADER
     00000001  l__HEADER |    00000001  l__HEADER |    00000001  l__HEADER
     00000002  l__HEADER |    00000002  l__HEADER |    00000002  l__HEADER
     00000003  l__HEADER |    00000003  l__HRAM12 |    00000004  G$__bank_
     00000004  G$__bank_ |    00000004  ___bank_L |    00000004  ___bank_S
     00000005  G$__bank_ |    00000005  ___bank_L |    00000005  l__HEADER
     00000006  G$__bank_ |    00000006  ___bank_L |    00000006  l__HEADER
     00000007  G$__bank_ |    00000007  ___bank_L |    00000007  l__HEADER
     00000008  G$__bank_ |    00000008  ___bank_L |    00000008  l__HEADER
     0000000C  l__GSINIT |    0000002E  l__CODE_2 |    00000030  l__HEADER
     0000004F  l__HEADER |    00000065  G$__bank_ |    00000065  ___bank_W
     0000007F  l__INITIA |    0000007F  l__INITIA |    00000082  l__HEADER
     000000E6  G$__bank_ |    000000E6  ___bank_W |    000001A0  l__CODE_4
     00000200  s__CODE   |    000003D5  l__DATA   |    000005A0  l__CODE_1
     000005A0  l__CODE_2 |    00000E10  l__CODE_6 |    00000E10  l__CODE_8
     00000EDE  l__CODE   |    000010DE  s__HOME   |    00001112  l__CODE_2
     000011F8  l__CODE_2 |    00001580  l__HOME   |    000016A1  l__CODE_0
     000017D9  l__CODE_5 |    00001AFB  l__CODE_1 |    00002000  _rROMB0  
     0000265E  s__BASE   |    0000265E  s__CODE_0 |    00002A50  l__CODE_7
     00003000  _rROMB1   |    00003CFF  s__INITIA |    00003CFF  s__LIT   
     00003D7E  s__GSINIT |    00003D8A  s__GSFINA |    00004000  _rRAMB   
     00008000  __VRAM    |    00008000  __VRAM800 |    00008800  __VRAM880
     00009000  __VRAM900 |    00009800  __SCRN0   |    00009C00  __SCRN1  
     0000A000  __SRAM    |    0000C000  __RAM     |    0000C000  _shadow_O
     0000C0A0  s__DATA   |    0000C475  s__BSS    |    0000C475  s__INITIA
     0000C4F4  s__HEAP   |    0000D000  __RAMBANK |    0000E000  .STACK   
     0000FE00  __OAMRAM  |    0000FF00  _P1_REG   |    0000FF00  __IO     
     0000FF01  _SB_REG   |    0000FF02  _SC_REG   |    0000FF04  _DIV_REG 
     0000FF05  _TIMA_REG |    0000FF06  _TMA_REG  |    0000FF07  _TAC_REG 
     0000FF0F  _IF_REG   |    0000FF10  _NR10_REG |    0000FF11  _NR11_REG
     0000FF12  _NR12_REG |    0000FF13  _NR13_REG |    0000FF14  _NR14_REG
     0000FF16  _NR21_REG |    0000FF17  _NR22_REG |    0000FF18  _NR23_REG
     0000FF19  _NR24_REG |    0000FF1A  _NR30_REG |    0000FF1B  _NR31_REG
     0000FF1C  _NR32_REG |    0000FF1D  _NR33_REG |    0000FF1E  _NR34_REG
     0000FF20  _NR41_REG |    0000FF21  _NR42_REG |    0000FF22  _NR43_REG
     0000FF23  _NR44_REG |    0000FF24  _NR50_REG |    0000FF25  _NR51_REG
     0000FF26  _NR52_REG |    0000FF30  _PCM_SAMP |    0000FF30  __AUD3WAV
     0000FF40  _LCDC_REG |    0000FF41  _STAT_REG |    0000FF42  _SCY_REG 
ASxxxx Linker V03.00 + NoICE + sdld,  page 2.
Hexadecimal  [32-Bits]

Area                       Addr        Size        Decimal Bytes (Attributes)
--------------------       ----        ----        ------- ----- ------------
.  .ABS.               00000000    00000000 =           0. bytes (ABS,CON)

        Value  Global            Value  Global            Value  Global    
        -----  ------            -----  ------            -----  ------    
     0000FF43  _SCX_REG  |    0000FF44  _LY_REG   |    0000FF45  _LYC_REG 
     0000FF46  _DMA_REG  |    0000FF47  _BGP_REG  |    0000FF48  _OBP0_REG
     0000FF49  _OBP1_REG |    0000FF4A  _WY_REG   |    0000FF4B  _WX_REG  
     0000FF4D  _KEY1_REG |    0000FF4F  _VBK_REG  |    0000FF51  _HDMA1_RE
     0000FF52  _HDMA2_RE |    0000FF53  _HDMA3_RE |    0000FF54  _HDMA4_RE
     0000FF55  _HDMA5_RE |    0000FF56  _RP_REG   |    0000FF68  _BCPS_REG
     0000FF69  _BCPD_REG |    0000FF6A  _OCPS_REG |    0000FF6B  _OCPD_REG
     0000FF70  _SVBK_REG |    0000FF76  _PCM12_RE |    0000FF77  _PCM34_RE
     0000FF80  .refresh_ |    0000FF80  __HRAM    |    0000FFFF  _IE_REG  
     00044000  s__CODE_4 |    00054000  s__CODE_5 |    00064000  s__CODE_6
     00074000  s__CODE_7 |    00084000  s__CODE_8 |    000A4000  s__CODE_1
     00644000  s__CODE_1 |    00654000  s__CODE_1 |    00C84000  s__CODE_2
     00C94000  s__CODE_2 |    00E14000  s__CODE_2 |    00E64000  s__CODE_2
ASxxxx Linker V03.00 + NoICE + sdld,  page 3.
Hexadecimal  [32-Bits]

Area                       Addr        Size        Decimal Bytes (Attributes)
--------------------       ----        ----        ------- ----- ------------
_CODE                  00000200    00000EDE =        3806. bytes (REL,CON)

        Value  Global            Value  Global            Value  Global    
        -----  ------            -----  ------            -----  ------    
     00000200  A$lcc8968 |    00000200  C$camera. |    00000200  G$set_cam
     00000200  _set_came |    00000202  A$lcc8968 |    00000202  C$camera.
     00000205  A$lcc8968 |    00000208  A$lcc8968 |    00000208  C$camera.
     0000020B  A$lcc8968 |    0000020C  A$lcc8968 |    0000020D  A$lcc8968
     0000020E  A$lcc8968 |    00000210  A$lcc8968 |    00000212  A$lcc8968
     00000214  A$lcc8968 |    00000216  A$lcc8968 |    00000218  A$lcc8968
     0000021A  A$lcc8968 |    0000021C  A$lcc8968 |    0000021E  A$lcc8968
     00000221  A$lcc8968 |    00000222  A$lcc8968 |    00000222  C$camera.
     00000225  A$lcc8968 |    00000226  A$lcc8968 |    00000227  A$lcc8968
     00000228  A$lcc8968 |    0000022A  A$lcc8968 |    0000022C  A$lcc8968
     0000022E  A$lcc8968 |    00000230  A$lcc8968 |    00000232  A$lcc8968
     00000234  A$lcc8968 |    00000237  A$lcc8968 |    00000238  A$lcc8968
     0000023B  A$lcc8968 |    0000023D  A$lcc8968 |    0000023E  A$lcc8968
     00000241  A$lcc8968 |    00000242  A$lcc8968 |    00000242  C$camera.
     00000242  C$camera. |    00000243  A$lcc8968 |    00000244  A$lcc8968
     00000247  A$lcc8968 |    00000247  C$camera. |    0000024A  A$lcc8968
     0000024B  A$lcc8968 |    0000024C  A$lcc8968 |    0000024D  A$lcc8968
     00000250  A$lcc8968 |    00000251  A$lcc8968 |    00000252  A$lcc8968
     00000253  A$lcc8968 |    00000254  A$lcc8968 |    00000255  A$lcc8968
     00000256  A$lcc8968 |    00000257  A$lcc8968 |    00000258  A$lcc8968
     00000259  A$lcc8968 |    0000025B  A$lcc8968 |    0000025D  A$lcc8968
     0000025F  A$lcc8968 |    00000261  A$lcc8968 |    00000262  A$lcc8968
     00000264  A$lcc8968 |    00000266  A$lcc8968 |    00000268  A$lcc8968
     00000269  A$lcc8968 |    0000026B  A$lcc8968 |    0000026B  C$camera.
     0000026E  A$lcc8968 |    00000270  A$lcc8968 |    00000271  A$lcc8968
     00000274  A$lcc8968 |    00000275  A$lcc8968 |    00000278  A$lcc8968
     00000279  A$lcc8968 |    0000027B  A$lcc8968 |    0000027C  A$lcc8968
     0000027D  A$lcc8968 |    0000027E  A$lcc8968 |    0000027F  A$lcc8968
     00000280  A$lcc8968 |    00000282  A$lcc8968 |    00000285  A$lcc8968
     00000286  A$lcc8968 |    00000287  A$lcc8968 |    00000289  A$lcc8968
     0000028A  A$lcc8968 |    0000028B  A$lcc8968 |    0000028D  A$lcc8968
     0000028E  A$lcc8968 |    00000290  A$lcc8968 |    00000291  A$lcc8968
     00000292  A$lcc8968 |    00000293  A$lcc8968 |    00000294  A$lcc8968
     00000295  A$lcc8968 |    00000297  A$lcc8968 |    00000298  A$lcc8968
     0000029A  A$lcc8968 |    0000029B  A$lcc8968 |    0000029D  A$lcc8968
     0000029F  A$lcc8968 |    000002A1  A$lcc8968 |    000002A2  A$lcc8968
     000002A4  A$lcc8968 |    000002A5  A$lcc8968 |    000002A7  A$lcc8968
     000002A8  A$lcc8968 |    000002A9  A$lcc8968 |    000002AA  A$lcc8968
     000002AB  A$lcc8968 |    000002AC  A$lcc8968 |    000002AD  A$lcc8968
     000002AF  A$lcc8968 |    000002B0  A$lcc8968 |    000002B1  A$lcc8968
     000002B2  A$lcc8968 |    000002B3  A$lcc8968 |    000002B5  A$lcc8968
     000002B6  A$lcc8968 |    000002B7  A$lcc8968 |    000002B8  A$lcc8968
     000002B9  A$lcc8968 |    000002BB  A$lcc8968 |    000002BC  A$lcc8968
     000002BD  A$lcc8968 |    000002BE  A$lcc8968 |    000002C0  A$lcc8968
     000002C1  A$lcc8968 |    000002C2  A$lcc8968 |    000002C3  A$lcc8968
     000002C6  A$lcc8968 |    000002C8  A$lcc8968 |    000002CB  A$lcc8968
     000002CB  C$camera. |    000002CE  A$lcc8968 |    000002CF  A$lcc8968
     000002D1  A$lcc8968 |    000002D2  A$lcc8968 |    000002D4  A$lcc8968
     000002D5  A$lcc8968 |    000002D6  A$lcc8968 |    000002D8  A$lcc8968
     000002D9  A$lcc8968 |    000002DB  A$lcc8968 |    000002DC  A$lcc8968
ASxxxx Linker V03.00 + NoICE + sdld,  page 4.
Hexadecimal  [32-Bits]

Area                       Addr        Size        Decimal Bytes (Attributes)
--------------------       ----        ----        ------- ----- ------------
_CODE                  00000200    00000EDE =        3806. bytes (REL,CON)

        Value  Global            Value  Global            Value  Global    
        -----  ------            -----  ------            -----  ------    
     000002DE  A$lcc8968 |    000002DF  A$lcc8968 |    000002E0  A$lcc8968
     000002E1  A$lcc8968 |    000002E2  A$lcc8968 |    000002E4  A$lcc8968
     000002E4  C$camera. |    000002E7  A$lcc8968 |    000002E8  A$lcc8968
     000002EB  A$lcc8968 |    000002ED  A$lcc8968 |    000002EE  A$lcc8968
     000002F1  A$lcc8968 |    000002F2  A$lcc8968 |    000002F4  A$lcc8968
     000002F5  A$lcc8968 |    000002F6  A$lcc8968 |    000002F7  A$lcc8968
     000002F8  A$lcc8968 |    000002F9  A$lcc8968 |    000002FA  A$lcc8968
     000002FC  A$lcc8968 |    000002FF  A$lcc8968 |    00000300  A$lcc8968
     00000301  A$lcc8968 |    00000303  A$lcc8968 |    00000304  A$lcc8968
     00000305  A$lcc8968 |    00000307  A$lcc8968 |    00000308  A$lcc8968
     0000030A  A$lcc8968 |    0000030B  A$lcc8968 |    0000030C  A$lcc8968
     0000030D  A$lcc8968 |    0000030E  A$lcc8968 |    0000030F  A$lcc8968
     00000311  A$lcc8968 |    00000312  A$lcc8968 |    00000314  A$lcc8968
     00000315  A$lcc8968 |    00000317  A$lcc8968 |    0000031A  A$lcc8968
     0000031C  A$lcc8968 |    0000031E  A$lcc8968 |    0000031F  A$lcc8968
     00000321  A$lcc8968 |    00000322  A$lcc8968 |    00000323  A$lcc8968
     00000325  A$lcc8968 |    00000326  A$lcc8968 |    00000328  A$lcc8968
     00000329  A$lcc8968 |    0000032A  A$lcc8968 |    0000032B  A$lcc8968
     0000032D  A$lcc8968 |    0000032E  A$lcc8968 |    0000032F  A$lcc8968
     00000330  A$lcc8968 |    00000332  A$lcc8968 |    00000333  A$lcc8968
     00000334  A$lcc8968 |    00000335  A$lcc8968 |    00000336  A$lcc8968
     00000338  A$lcc8968 |    00000339  A$lcc8968 |    0000033A  A$lcc8968
     0000033B  A$lcc8968 |    0000033C  A$lcc8968 |    0000033D  A$lcc8968
     0000033E  A$lcc8968 |    0000033F  A$lcc8968 |    00000341  A$lcc8968
     00000342  A$lcc8968 |    00000343  A$lcc8968 |    00000344  A$lcc8968
     00000347  A$lcc8968 |    00000349  A$lcc8968 |    00000349  C$camera.
     0000034C  A$lcc8968 |    0000034F  A$lcc8968 |    0000034F  C$camera.
     00000352  A$lcc8968 |    00000353  A$lcc8968 |    00000354  A$lcc8968
     00000355  A$lcc8968 |    00000357  A$lcc8968 |    00000359  A$lcc8968
     0000035B  A$lcc8968 |    0000035D  A$lcc8968 |    0000035F  A$lcc8968
     00000361  A$lcc8968 |    00000363  A$lcc8968 |    00000365  A$lcc8968
     00000367  A$lcc8968 |    00000369  A$lcc8968 |    0000036B  A$lcc8968
     0000036D  A$lcc8968 |    0000036F  A$lcc8968 |    00000371  A$lcc8968
     00000374  A$lcc8968 |    00000375  A$lcc8968 |    00000378  A$lcc8968
     0000037A  A$lcc8968 |    0000037B  A$lcc8968 |    0000037E  A$lcc8968
     0000037F  A$lcc8968 |    0000037F  C$camera. |    0000037F  C$camera.
     00000380  A$lcc8968 |    00000381  A$lcc8968 |    00000384  A$lcc8968
     00000387  A$lcc8968 |    00000388  A$lcc8968 |    00000389  A$lcc8968
     0000038A  A$lcc8968 |    0000038D  A$lcc8968 |    0000038E  A$lcc8968
     00000390  A$lcc8968 |    00000391  A$lcc8968 |    00000392  A$lcc8968
     00000393  A$lcc8968 |    00000394  A$lcc8968 |    00000394  C$camera.
     00000397  A$lcc8968 |    00000399  A$lcc8968 |    0000039A  A$lcc8968
     0000039A  C$camera. |    0000039C  A$lcc8968 |    0000039D  A$lcc8968
     0000039E  A$lcc8968 |    0000039F  A$lcc8968 |    000003A0  A$lcc8968
     000003A1  A$lcc8968 |    000003A2  A$lcc8968 |    000003A3  A$lcc8968
     000003A5  A$lcc8968 |    000003A7  A$lcc8968 |    000003A9  A$lcc8968
     000003AB  A$lcc8968 |    000003AC  A$lcc8968 |    000003AE  A$lcc8968
     000003B0  A$lcc8968 |    000003B2  A$lcc8968 |    000003B3  A$lcc8968
     000003B6  A$lcc8968 |    000003B9  A$lcc8968 |    000003BB  A$lcc8968
     000003BC  A$lcc8968 |    000003BF  A$lcc8968 |    000003C0  A$lcc8968
     000003C2  A$lcc8968 |    000003C3  A$lcc8968 |    000003C4  A$lcc8968
ASxxxx Linker V03.00 + NoICE + sdld,  page 5.
Hexadecimal  [32-Bits]

Area                       Addr        Size        Decimal Bytes (Attributes)
--------------------       ----        ----        ------- ----- ------------
_CODE                  00000200    00000EDE =        3806. bytes (REL,CON)

        Value  Global            Value  Global            Value  Global    
        -----  ------            -----  ------            -----  ------    
     000003C5  A$lcc8968 |    000003C6  A$lcc8968 |    000003C9  A$lcc8968
     000003CB  A$lcc8968 |    000003CC  A$lcc8968 |    000003CD  A$lcc8968
     000003CE  A$lcc8968 |    000003D0  A$lcc8968 |    000003D3  A$lcc8968
     000003D3  C$camera. |    000003D5  A$lcc8968 |    000003D6  A$lcc8968
     000003D7  A$lcc8968 |    000003D8  A$lcc8968 |    000003DA  A$lcc8968
     000003DC  A$lcc8968 |    000003DD  A$lcc8968 |    000003DE  A$lcc8968
     000003DF  A$lcc8968 |    000003E0  A$lcc8968 |    000003E1  A$lcc8968
     000003E2  A$lcc8968 |    000003E3  A$lcc8968 |    000003E4  A$lcc8968
     000003E5  A$lcc8968 |    000003E6  A$lcc8968 |    000003E7  A$lcc8968
     000003E8  A$lcc8968 |    000003E9  A$lcc8968 |    000003EB  A$lcc8968
     000003EC  A$lcc8968 |    000003ED  A$lcc8968 |    000003EF  A$lcc8968
     000003F0  A$lcc8968 |    000003F1  A$lcc8968 |    000003F3  A$lcc8968
     000003F4  A$lcc8968 |    000003F6  A$lcc8968 |    000003F8  A$lcc8968
     000003FA  A$lcc8968 |    000003FB  A$lcc8968 |    000003FC  A$lcc8968
     000003FD  A$lcc8968 |    000003FF  A$lcc8968 |    00000401  A$lcc8968
     00000402  A$lcc8968 |    00000404  A$lcc8968 |    00000405  A$lcc8968
     00000407  A$lcc8968 |    00000408  A$lcc8968 |    00000409  A$lcc8968
     0000040A  A$lcc8968 |    0000040C  A$lcc8968 |    0000040E  A$lcc8968
     0000040F  A$lcc8968 |    00000411  A$lcc8968 |    00000412  A$lcc8968
     00000413  A$lcc8968 |    00000414  A$lcc8968 |    00000416  A$lcc8968
     00000417  A$lcc8968 |    00000418  A$lcc8968 |    00000419  A$lcc8968
     0000041B  A$lcc8968 |    0000041C  A$lcc8968 |    0000041D  A$lcc8968
     0000041E  A$lcc8968 |    0000041F  A$lcc8968 |    00000420  A$lcc8968
     00000422  A$lcc8968 |    00000423  A$lcc8968 |    00000425  A$lcc8968
     00000426  A$lcc8968 |    00000427  A$lcc8968 |    00000428  A$lcc8968
     0000042A  A$lcc8968 |    0000042B  A$lcc8968 |    0000042C  A$lcc8968
     0000042D  A$lcc8968 |    00000430  A$lcc8968 |    00000432  A$lcc8968
     00000435  A$lcc8968 |    00000435  C$camera. |    00000437  A$lcc8968
     00000438  A$lcc8968 |    00000439  A$lcc8968 |    0000043A  A$lcc8968
     0000043B  A$lcc8968 |    0000043C  A$lcc8968 |    0000043D  A$lcc8968
     0000043E  A$lcc8968 |    0000043F  A$lcc8968 |    00000442  A$lcc8968
     00000443  A$lcc8968 |    00000444  A$lcc8968 |    00000445  A$lcc8968
     00000446  A$lcc8968 |    00000447  A$lcc8968 |    00000449  A$lcc8968
     0000044A  A$lcc8968 |    0000044B  A$lcc8968 |    0000044D  A$lcc8968
     0000044E  A$lcc8968 |    00000450  A$lcc8968 |    00000451  A$lcc8968
     00000453  A$lcc8968 |    00000455  A$lcc8968 |    00000456  A$lcc8968
     00000457  A$lcc8968 |    00000459  A$lcc8968 |    0000045A  A$lcc8968
     0000045B  A$lcc8968 |    0000045C  A$lcc8968 |    0000045D  A$lcc8968
     0000045E  A$lcc8968 |    0000045F  A$lcc8968 |    00000462  A$lcc8968
     00000465  A$lcc8968 |    00000467  A$lcc8968 |    00000468  A$lcc8968
     0000046A  A$lcc8968 |    0000046B  A$lcc8968 |    0000046D  A$lcc8968
     0000046E  A$lcc8968 |    00000471  A$lcc8968 |    00000472  A$lcc8968
     00000473  A$lcc8968 |    00000474  A$lcc8968 |    00000475  A$lcc8968
     00000476  A$lcc8968 |    00000479  A$lcc8968 |    0000047B  A$lcc8968
     0000047C  A$lcc8968 |    0000047D  A$lcc8968 |    0000047E  A$lcc8968
     00000480  A$lcc8968 |    00000480  C$camera. |    00000483  A$lcc8968
     00000483  C$camera. |    00000485  A$lcc8968 |    00000486  A$lcc8968
     00000487  A$lcc8968 |    00000488  A$lcc8968 |    0000048A  A$lcc8968
     0000048C  A$lcc8968 |    0000048D  A$lcc8968 |    0000048E  A$lcc8968
     0000048F  A$lcc8968 |    00000490  A$lcc8968 |    00000491  A$lcc8968
     00000492  A$lcc8968 |    00000493  A$lcc8968 |    00000494  A$lcc8968
ASxxxx Linker V03.00 + NoICE + sdld,  page 6.
Hexadecimal  [32-Bits]

Area                       Addr        Size        Decimal Bytes (Attributes)
--------------------       ----        ----        ------- ----- ------------
_CODE                  00000200    00000EDE =        3806. bytes (REL,CON)

        Value  Global            Value  Global            Value  Global    
        -----  ------            -----  ------            -----  ------    
     00000495  A$lcc8968 |    00000496  A$lcc8968 |    00000497  A$lcc8968
     00000498  A$lcc8968 |    00000499  A$lcc8968 |    0000049B  A$lcc8968
     0000049C  A$lcc8968 |    0000049D  A$lcc8968 |    0000049F  A$lcc8968
     000004A0  A$lcc8968 |    000004A1  A$lcc8968 |    000004A3  A$lcc8968
     000004A4  A$lcc8968 |    000004A6  A$lcc8968 |    000004A8  A$lcc8968
     000004AA  A$lcc8968 |    000004AB  A$lcc8968 |    000004AC  A$lcc8968
     000004AD  A$lcc8968 |    000004AF  A$lcc8968 |    000004B1  A$lcc8968
     000004B2  A$lcc8968 |    000004B4  A$lcc8968 |    000004B5  A$lcc8968
     000004B7  A$lcc8968 |    000004B8  A$lcc8968 |    000004BA  A$lcc8968
     000004BC  A$lcc8968 |    000004BD  A$lcc8968 |    000004BF  A$lcc8968
     000004C0  A$lcc8968 |    000004C2  A$lcc8968 |    000004C3  A$lcc8968
     000004C4  A$lcc8968 |    000004C5  A$lcc8968 |    000004C7  A$lcc8968
     000004C8  A$lcc8968 |    000004C9  A$lcc8968 |    000004CA  A$lcc8968
     000004CC  A$lcc8968 |    000004CD  A$lcc8968 |    000004CE  A$lcc8968
     000004CF  A$lcc8968 |    000004D0  A$lcc8968 |    000004D1  A$lcc8968
     000004D2  A$lcc8968 |    000004D4  A$lcc8968 |    000004D5  A$lcc8968
     000004D6  A$lcc8968 |    000004D8  A$lcc8968 |    000004D9  A$lcc8968
     000004DA  A$lcc8968 |    000004DB  A$lcc8968 |    000004DC  A$lcc8968
     000004DD  A$lcc8968 |    000004E0  A$lcc8968 |    000004E2  A$lcc8968
     000004E2  C$camera. |    000004E5  A$lcc8968 |    000004E8  A$lcc8968
     000004E8  C$camera. |    000004EB  A$lcc8968 |    000004EC  A$lcc8968
     000004ED  A$lcc8968 |    000004EE  A$lcc8968 |    000004F1  A$lcc8968
     000004F2  A$lcc8968 |    000004F3  A$lcc8968 |    000004F4  A$lcc8968
     000004F7  A$lcc8968 |    000004F8  A$lcc8968 |    000004F9  A$lcc8968
     000004FA  A$lcc8968 |    000004FD  A$lcc8968 |    000004FE  A$lcc8968
     000004FF  A$lcc8968 |    00000500  A$lcc8968 |    00000502  A$lcc8968
     00000502  C$camera. |    00000502  XG$set_ca |    00000503  A$lcc8968
     00000503  C$camera. |    00000503  G$set_wor |    00000503  _set_worl
     00000505  A$lcc8968 |    00000505  C$camera. |    00000508  A$lcc8968
     00000509  A$lcc8968 |    0000050A  A$lcc8968 |    0000050B  A$lcc8968
     0000050D  A$lcc8968 |    0000050F  A$lcc8968 |    00000511  A$lcc8968
     00000513  A$lcc8968 |    00000515  A$lcc8968 |    00000517  A$lcc8968
     00000519  A$lcc8968 |    0000051B  A$lcc8968 |    0000051E  A$lcc8968
     0000051F  A$lcc8968 |    0000051F  C$camera. |    00000522  A$lcc8968
     00000523  A$lcc8968 |    00000524  A$lcc8968 |    00000525  A$lcc8968
     00000527  A$lcc8968 |    00000529  A$lcc8968 |    0000052B  A$lcc8968
     0000052D  A$lcc8968 |    0000052F  A$lcc8968 |    00000531  A$lcc8968
     00000533  A$lcc8968 |    00000535  A$lcc8968 |    00000538  A$lcc8968
     00000539  A$lcc8968 |    00000539  C$camera. |    0000053C  A$lcc8968
     0000053D  A$lcc8968 |    0000053E  A$lcc8968 |    0000053F  A$lcc8968
     00000541  A$lcc8968 |    00000543  A$lcc8968 |    00000545  A$lcc8968
     00000547  A$lcc8968 |    00000549  A$lcc8968 |    0000054B  A$lcc8968
     0000054D  A$lcc8968 |    0000054F  A$lcc8968 |    00000551  A$lcc8968
     00000553  A$lcc8968 |    00000555  A$lcc8968 |    00000557  A$lcc8968
     00000559  A$lcc8968 |    0000055B  A$lcc8968 |    0000055E  A$lcc8968
     0000055F  A$lcc8968 |    00000562  A$lcc8968 |    00000564  A$lcc8968
     00000565  A$lcc8968 |    00000568  A$lcc8968 |    00000569  A$lcc8968
     00000569  C$camera. |    00000569  C$camera. |    0000056A  A$lcc8968
     0000056B  A$lcc8968 |    0000056E  A$lcc8968 |    0000056E  C$camera.
     00000571  A$lcc8968 |    00000572  A$lcc8968 |    00000573  A$lcc8968
     00000574  A$lcc8968 |    00000577  A$lcc8968 |    00000578  A$lcc8968
ASxxxx Linker V03.00 + NoICE + sdld,  page 7.
Hexadecimal  [32-Bits]

Area                       Addr        Size        Decimal Bytes (Attributes)
--------------------       ----        ----        ------- ----- ------------
_CODE                  00000200    00000EDE =        3806. bytes (REL,CON)

        Value  Global            Value  Global            Value  Global    
        -----  ------            -----  ------            -----  ------    
     00000579  A$lcc8968 |    0000057A  A$lcc8968 |    0000057B  A$lcc8968
     0000057C  A$lcc8968 |    0000057D  A$lcc8968 |    0000057E  A$lcc8968
     0000057F  A$lcc8968 |    00000580  A$lcc8968 |    00000582  A$lcc8968
     00000584  A$lcc8968 |    00000586  A$lcc8968 |    00000588  A$lcc8968
     00000589  A$lcc8968 |    0000058B  A$lcc8968 |    0000058D  A$lcc8968
     0000058F  A$lcc8968 |    00000590  A$lcc8968 |    00000592  A$lcc8968
     00000592  C$camera. |    00000595  A$lcc8968 |    00000597  A$lcc8968
     00000598  A$lcc8968 |    0000059B  A$lcc8968 |    0000059C  A$lcc8968
     0000059F  A$lcc8968 |    000005A0  A$lcc8968 |    000005A2  A$lcc8968
     000005A3  A$lcc8968 |    000005A4  A$lcc8968 |    000005A5  A$lcc8968
     000005A6  A$lcc8968 |    000005A7  A$lcc8968 |    000005A9  A$lcc8968
     000005AC  A$lcc8968 |    000005AD  A$lcc8968 |    000005AE  A$lcc8968
     000005B0  A$lcc8968 |    000005B1  A$lcc8968 |    000005B2  A$lcc8968
     000005B4  A$lcc8968 |    000005B5  A$lcc8968 |    000005B7  A$lcc8968
     000005B8  A$lcc8968 |    000005B9  A$lcc8968 |    000005BA  A$lcc8968
     000005BB  A$lcc8968 |    000005BC  A$lcc8968 |    000005BE  A$lcc8968
     000005BF  A$lcc8968 |    000005C1  A$lcc8968 |    000005C2  A$lcc8968
     000005C4  A$lcc8968 |    000005C6  A$lcc8968 |    000005C8  A$lcc8968
     000005C9  A$lcc8968 |    000005CB  A$lcc8968 |    000005CC  A$lcc8968
     000005CE  A$lcc8968 |    000005CF  A$lcc8968 |    000005D0  A$lcc8968
     000005D1  A$lcc8968 |    000005D2  A$lcc8968 |    000005D3  A$lcc8968
     000005D4  A$lcc8968 |    000005D6  A$lcc8968 |    000005D7  A$lcc8968
     000005D8  A$lcc8968 |    000005D9  A$lcc8968 |    000005DA  A$lcc8968
     000005DC  A$lcc8968 |    000005DD  A$lcc8968 |    000005DE  A$lcc8968
     000005DF  A$lcc8968 |    000005E0  A$lcc8968 |    000005E2  A$lcc8968
     000005E3  A$lcc8968 |    000005E4  A$lcc8968 |    000005E5  A$lcc8968
     000005E7  A$lcc8968 |    000005E8  A$lcc8968 |    000005E9  A$lcc8968
     000005EA  A$lcc8968 |    000005ED  A$lcc8968 |    000005EF  A$lcc8968
     000005F2  A$lcc8968 |    000005F2  C$camera. |    000005F5  A$lcc8968
     000005F6  A$lcc8968 |    000005F8  A$lcc8968 |    000005F9  A$lcc8968
     000005FB  A$lcc8968 |    000005FC  A$lcc8968 |    000005FD  A$lcc8968
     000005FF  A$lcc8968 |    00000600  A$lcc8968 |    00000602  A$lcc8968
     00000603  A$lcc8968 |    00000605  A$lcc8968 |    00000606  A$lcc8968
     00000607  A$lcc8968 |    00000608  A$lcc8968 |    00000609  A$lcc8968
     0000060B  A$lcc8968 |    0000060B  C$camera. |    0000060E  A$lcc8968
     0000060F  A$lcc8968 |    00000612  A$lcc8968 |    00000614  A$lcc8968
     00000615  A$lcc8968 |    00000618  A$lcc8968 |    00000619  A$lcc8968
     0000061B  A$lcc8968 |    0000061C  A$lcc8968 |    0000061D  A$lcc8968
     0000061E  A$lcc8968 |    0000061F  A$lcc8968 |    00000620  A$lcc8968
     00000621  A$lcc8968 |    00000623  A$lcc8968 |    00000626  A$lcc8968
     00000627  A$lcc8968 |    00000628  A$lcc8968 |    0000062A  A$lcc8968
     0000062B  A$lcc8968 |    0000062C  A$lcc8968 |    0000062E  A$lcc8968
     0000062F  A$lcc8968 |    00000631  A$lcc8968 |    00000632  A$lcc8968
     00000633  A$lcc8968 |    00000634  A$lcc8968 |    00000635  A$lcc8968
     00000636  A$lcc8968 |    00000638  A$lcc8968 |    00000639  A$lcc8968
     0000063B  A$lcc8968 |    0000063C  A$lcc8968 |    0000063E  A$lcc8968
     00000641  A$lcc8968 |    00000643  A$lcc8968 |    00000645  A$lcc8968
     00000646  A$lcc8968 |    00000648  A$lcc8968 |    00000649  A$lcc8968
     0000064A  A$lcc8968 |    0000064C  A$lcc8968 |    0000064D  A$lcc8968
     0000064F  A$lcc8968 |    00000650  A$lcc8968 |    00000651  A$lcc8968
     00000652  A$lcc8968 |    00000654  A$lcc8968 |    00000655  A$lcc8968
ASxxxx Linker V03.00 + NoICE + sdld,  page 8.
Hexadecimal  [32-Bits]

Area                       Addr        Size        Decimal Bytes (Attributes)
--------------------       ----        ----        ------- ----- ------------
_CODE                  00000200    00000EDE =        3806. bytes (REL,CON)

        Value  Global            Value  Global            Value  Global    
        -----  ------            -----  ------            -----  ------    
     00000656  A$lcc8968 |    00000657  A$lcc8968 |    00000659  A$lcc8968
     0000065A  A$lcc8968 |    0000065B  A$lcc8968 |    0000065C  A$lcc8968
     0000065D  A$lcc8968 |    0000065F  A$lcc8968 |    00000660  A$lcc8968
     00000661  A$lcc8968 |    00000662  A$lcc8968 |    00000663  A$lcc8968
     00000664  A$lcc8968 |    00000665  A$lcc8968 |    00000666  A$lcc8968
     00000668  A$lcc8968 |    00000669  A$lcc8968 |    0000066A  A$lcc8968
     0000066B  A$lcc8968 |    0000066E  A$lcc8968 |    00000670  A$lcc8968
     00000670  C$camera. |    00000673  A$lcc8968 |    00000676  A$lcc8968
     00000676  C$camera. |    00000679  A$lcc8968 |    0000067A  A$lcc8968
     0000067B  A$lcc8968 |    0000067C  A$lcc8968 |    0000067E  A$lcc8968
     00000680  A$lcc8968 |    00000682  A$lcc8968 |    00000684  A$lcc8968
     00000686  A$lcc8968 |    00000688  A$lcc8968 |    0000068A  A$lcc8968
     0000068C  A$lcc8968 |    0000068E  A$lcc8968 |    00000690  A$lcc8968
     00000692  A$lcc8968 |    00000694  A$lcc8968 |    00000696  A$lcc8968
     00000698  A$lcc8968 |    0000069B  A$lcc8968 |    0000069C  A$lcc8968
     0000069F  A$lcc8968 |    000006A1  A$lcc8968 |    000006A2  A$lcc8968
     000006A5  A$lcc8968 |    000006A6  A$lcc8968 |    000006A6  C$camera.
     000006A6  C$camera. |    000006A7  A$lcc8968 |    000006A8  A$lcc8968
     000006AB  A$lcc8968 |    000006AE  A$lcc8968 |    000006AF  A$lcc8968
     000006B0  A$lcc8968 |    000006B1  A$lcc8968 |    000006B4  A$lcc8968
     000006B5  A$lcc8968 |    000006B7  A$lcc8968 |    000006B8  A$lcc8968
     000006B9  A$lcc8968 |    000006BA  A$lcc8968 |    000006BB  A$lcc8968
     000006BB  C$camera. |    000006BE  A$lcc8968 |    000006C0  A$lcc8968
     000006C1  A$lcc8968 |    000006C1  C$camera. |    000006C3  A$lcc8968
     000006C4  A$lcc8968 |    000006C5  A$lcc8968 |    000006C6  A$lcc8968
     000006C7  A$lcc8968 |    000006C8  A$lcc8968 |    000006C9  A$lcc8968
     000006CA  A$lcc8968 |    000006CC  A$lcc8968 |    000006CE  A$lcc8968
     000006D0  A$lcc8968 |    000006D2  A$lcc8968 |    000006D3  A$lcc8968
     000006D5  A$lcc8968 |    000006D7  A$lcc8968 |    000006D9  A$lcc8968
     000006DA  A$lcc8968 |    000006DD  A$lcc8968 |    000006E0  A$lcc8968
     000006E2  A$lcc8968 |    000006E3  A$lcc8968 |    000006E6  A$lcc8968
     000006E7  A$lcc8968 |    000006E9  A$lcc8968 |    000006EA  A$lcc8968
     000006EB  A$lcc8968 |    000006EC  A$lcc8968 |    000006ED  A$lcc8968
     000006F0  A$lcc8968 |    000006F2  A$lcc8968 |    000006F3  A$lcc8968
     000006F4  A$lcc8968 |    000006F5  A$lcc8968 |    000006F7  A$lcc8968
     000006FA  A$lcc8968 |    000006FA  C$camera. |    000006FC  A$lcc8968
     000006FD  A$lcc8968 |    000006FE  A$lcc8968 |    000006FF  A$lcc8968
     00000701  A$lcc8968 |    00000703  A$lcc8968 |    00000704  A$lcc8968
     00000705  A$lcc8968 |    00000706  A$lcc8968 |    00000707  A$lcc8968
     00000708  A$lcc8968 |    00000709  A$lcc8968 |    0000070A  A$lcc8968
     0000070B  A$lcc8968 |    0000070C  A$lcc8968 |    0000070D  A$lcc8968
     0000070E  A$lcc8968 |    0000070F  A$lcc8968 |    00000710  A$lcc8968
     00000712  A$lcc8968 |    00000713  A$lcc8968 |    00000714  A$lcc8968
     00000716  A$lcc8968 |    00000717  A$lcc8968 |    00000718  A$lcc8968
     0000071A  A$lcc8968 |    0000071B  A$lcc8968 |    0000071D  A$lcc8968
     0000071F  A$lcc8968 |    00000721  A$lcc8968 |    00000722  A$lcc8968
     00000723  A$lcc8968 |    00000724  A$lcc8968 |    00000726  A$lcc8968
     00000728  A$lcc8968 |    00000729  A$lcc8968 |    0000072B  A$lcc8968
     0000072C  A$lcc8968 |    0000072E  A$lcc8968 |    0000072F  A$lcc8968
     00000730  A$lcc8968 |    00000731  A$lcc8968 |    00000733  A$lcc8968
     00000735  A$lcc8968 |    00000736  A$lcc8968 |    00000738  A$lcc8968
ASxxxx Linker V03.00 + NoICE + sdld,  page 9.
Hexadecimal  [32-Bits]

Area                       Addr        Size        Decimal Bytes (Attributes)
--------------------       ----        ----        ------- ----- ------------
_CODE                  00000200    00000EDE =        3806. bytes (REL,CON)

        Value  Global            Value  Global            Value  Global    
        -----  ------            -----  ------            -----  ------    
     00000739  A$lcc8968 |    0000073A  A$lcc8968 |    0000073B  A$lcc8968
     0000073D  A$lcc8968 |    0000073E  A$lcc8968 |    0000073F  A$lcc8968
     00000740  A$lcc8968 |    00000742  A$lcc8968 |    00000743  A$lcc8968
     00000744  A$lcc8968 |    00000745  A$lcc8968 |    00000746  A$lcc8968
     00000747  A$lcc8968 |    00000749  A$lcc8968 |    0000074A  A$lcc8968
     0000074C  A$lcc8968 |    0000074D  A$lcc8968 |    0000074E  A$lcc8968
     0000074F  A$lcc8968 |    00000751  A$lcc8968 |    00000752  A$lcc8968
     00000753  A$lcc8968 |    00000754  A$lcc8968 |    00000757  A$lcc8968
     00000759  A$lcc8968 |    0000075C  A$lcc8968 |    0000075C  C$camera.
     0000075E  A$lcc8968 |    0000075F  A$lcc8968 |    00000760  A$lcc8968
     00000761  A$lcc8968 |    00000762  A$lcc8968 |    00000763  A$lcc8968
     00000764  A$lcc8968 |    00000765  A$lcc8968 |    00000766  A$lcc8968
     00000769  A$lcc8968 |    0000076A  A$lcc8968 |    0000076B  A$lcc8968
     0000076C  A$lcc8968 |    0000076D  A$lcc8968 |    0000076E  A$lcc8968
     00000770  A$lcc8968 |    00000771  A$lcc8968 |    00000772  A$lcc8968
     00000774  A$lcc8968 |    00000775  A$lcc8968 |    00000777  A$lcc8968
     00000778  A$lcc8968 |    0000077A  A$lcc8968 |    0000077C  A$lcc8968
     0000077D  A$lcc8968 |    0000077E  A$lcc8968 |    00000780  A$lcc8968
     00000781  A$lcc8968 |    00000782  A$lcc8968 |    00000783  A$lcc8968
     00000784  A$lcc8968 |    00000785  A$lcc8968 |    00000786  A$lcc8968
     00000789  A$lcc8968 |    0000078C  A$lcc8968 |    0000078E  A$lcc8968
     0000078F  A$lcc8968 |    00000791  A$lcc8968 |    00000792  A$lcc8968
     00000794  A$lcc8968 |    00000795  A$lcc8968 |    00000798  A$lcc8968
     00000799  A$lcc8968 |    0000079A  A$lcc8968 |    0000079B  A$lcc8968
     0000079C  A$lcc8968 |    0000079D  A$lcc8968 |    000007A0  A$lcc8968
     000007A2  A$lcc8968 |    000007A3  A$lcc8968 |    000007A4  A$lcc8968
     000007A5  A$lcc8968 |    000007A7  A$lcc8968 |    000007A7  C$camera.
     000007AA  A$lcc8968 |    000007AA  C$camera. |    000007AC  A$lcc8968
     000007AD  A$lcc8968 |    000007AE  A$lcc8968 |    000007AF  A$lcc8968
     000007B1  A$lcc8968 |    000007B3  A$lcc8968 |    000007B4  A$lcc8968
     000007B5  A$lcc8968 |    000007B6  A$lcc8968 |    000007B7  A$lcc8968
     000007B8  A$lcc8968 |    000007B9  A$lcc8968 |    000007BA  A$lcc8968
     000007BB  A$lcc8968 |    000007BC  A$lcc8968 |    000007BD  A$lcc8968
     000007BE  A$lcc8968 |    000007BF  A$lcc8968 |    000007C0  A$lcc8968
     000007C2  A$lcc8968 |    000007C3  A$lcc8968 |    000007C4  A$lcc8968
     000007C6  A$lcc8968 |    000007C7  A$lcc8968 |    000007C8  A$lcc8968
     000007CA  A$lcc8968 |    000007CB  A$lcc8968 |    000007CD  A$lcc8968
     000007CF  A$lcc8968 |    000007D1  A$lcc8968 |    000007D2  A$lcc8968
     000007D3  A$lcc8968 |    000007D4  A$lcc8968 |    000007D6  A$lcc8968
     000007D8  A$lcc8968 |    000007D9  A$lcc8968 |    000007DB  A$lcc8968
     000007DC  A$lcc8968 |    000007DE  A$lcc8968 |    000007DF  A$lcc8968
     000007E1  A$lcc8968 |    000007E3  A$lcc8968 |    000007E4  A$lcc8968
     000007E6  A$lcc8968 |    000007E7  A$lcc8968 |    000007E9  A$lcc8968
     000007EA  A$lcc8968 |    000007EB  A$lcc8968 |    000007EC  A$lcc8968
     000007EE  A$lcc8968 |    000007EF  A$lcc8968 |    000007F0  A$lcc8968
     000007F1  A$lcc8968 |    000007F3  A$lcc8968 |    000007F4  A$lcc8968
     000007F5  A$lcc8968 |    000007F6  A$lcc8968 |    000007F7  A$lcc8968
     000007F8  A$lcc8968 |    000007F9  A$lcc8968 |    000007FB  A$lcc8968
     000007FC  A$lcc8968 |    000007FD  A$lcc8968 |    000007FF  A$lcc8968
     00000800  A$lcc8968 |    00000801  A$lcc8968 |    00000802  A$lcc8968
     00000803  A$lcc8968 |    00000804  A$lcc8968 |    00000807  A$lcc8968
ASxxxx Linker V03.00 + NoICE + sdld,  page 10.
Hexadecimal  [32-Bits]

Area                       Addr        Size        Decimal Bytes (Attributes)
--------------------       ----        ----        ------- ----- ------------
_CODE                  00000200    00000EDE =        3806. bytes (REL,CON)

        Value  Global            Value  Global            Value  Global    
        -----  ------            -----  ------            -----  ------    
     00000809  A$lcc8968 |    00000809  C$camera. |    0000080C  A$lcc8968
     0000080F  A$lcc8968 |    0000080F  C$camera. |    00000812  A$lcc8968
     00000813  A$lcc8968 |    00000814  A$lcc8968 |    00000815  A$lcc8968
     00000818  A$lcc8968 |    00000819  A$lcc8968 |    0000081A  A$lcc8968
     0000081B  A$lcc8968 |    0000081E  A$lcc8968 |    0000081F  A$lcc8968
     00000820  A$lcc8968 |    00000821  A$lcc8968 |    00000824  A$lcc8968
     00000825  A$lcc8968 |    00000826  A$lcc8968 |    00000827  A$lcc8968
     00000829  A$lcc8968 |    00000829  C$camera. |    00000829  XG$set_wo
     0000082A  A$lcc8968 |    0000082A  C$camera. |    0000082A  C$camera.
     0000082A  G$set_lev |    0000082A  _set_leve |    0000082D  A$lcc8968
     0000082F  A$lcc8968 |    0000082F  C$camera. |    00000830  A$lcc8968
     00000831  A$lcc8968 |    00000834  A$lcc8968 |    00000834  C$camera.
     00000835  A$lcc8968 |    00000836  A$lcc8968 |    00000839  A$lcc8968
     0000083A  A$lcc8968 |    0000083B  A$lcc8968 |    0000083C  A$lcc8968
     0000083C  C$camera. |    0000083D  A$lcc8968 |    0000083E  A$lcc8968
     0000083F  A$lcc8968 |    00000840  A$lcc8968 |    00000842  A$lcc8968
     00000844  A$lcc8968 |    00000845  A$lcc8968 |    00000846  A$lcc8968
     00000848  A$lcc8968 |    00000849  A$lcc8968 |    0000084A  A$lcc8968
     0000084B  A$lcc8968 |    0000084C  A$lcc8968 |    0000084D  A$lcc8968
     0000084E  A$lcc8968 |    00000851  A$lcc8968 |    00000852  A$lcc8968
     00000853  A$lcc8968 |    00000854  A$lcc8968 |    00000854  C$camera.
     00000856  A$lcc8968 |    00000857  A$lcc8968 |    00000859  A$lcc8968
     0000085B  A$lcc8968 |    0000085C  A$lcc8968 |    0000085D  A$lcc8968
     0000085F  A$lcc8968 |    00000860  A$lcc8968 |    00000861  A$lcc8968
     00000862  A$lcc8968 |    00000863  A$lcc8968 |    00000864  A$lcc8968
     00000865  A$lcc8968 |    00000868  A$lcc8968 |    00000869  A$lcc8968
     0000086A  A$lcc8968 |    0000086B  A$lcc8968 |    0000086B  C$camera.
     0000086E  A$lcc8968 |    00000870  A$lcc8968 |    00000871  A$lcc8968
     00000872  A$lcc8968 |    00000872  C$camera. |    00000872  XG$set_le
     00000873  A$lcc8968 |    00000873  C$camera. |    00000873  G$render_
     00000873  _render_c |    00000874  A$lcc8968 |    00000874  C$camera.
     00000876  A$lcc8968 |    00000877  A$lcc8968 |    00000878  A$lcc8968
     00000879  A$lcc8968 |    0000087B  A$lcc8968 |    0000087C  A$lcc8968
     0000087E  A$lcc8968 |    0000087F  A$lcc8968 |    00000881  A$lcc8968
     00000883  A$lcc8968 |    00000885  A$lcc8968 |    00000887  A$lcc8968
     00000888  A$lcc8968 |    0000088A  A$lcc8968 |    0000088C  A$lcc8968
     0000088E  A$lcc8968 |    0000088F  A$lcc8968 |    00000891  A$lcc8968
     00000894  A$lcc8968 |    00000895  A$lcc8968 |    00000896  A$lcc8968
     00000897  A$lcc8968 |    00000899  A$lcc8968 |    0000089A  A$lcc8968
     0000089B  A$lcc8968 |    0000089C  A$lcc8968 |    0000089D  A$lcc8968
     0000089E  A$lcc8968 |    0000089F  A$lcc8968 |    000008A0  A$lcc8968
     000008A2  A$lcc8968 |    000008A2  C$camera. |    000008A5  A$lcc8968
     000008A6  A$lcc8968 |    000008A7  A$lcc8968 |    000008A8  A$lcc8968
     000008AB  A$lcc8968 |    000008AC  A$lcc8968 |    000008AD  A$lcc8968
     000008AE  A$lcc8968 |    000008AF  A$lcc8968 |    000008B0  A$lcc8968
     000008B1  A$lcc8968 |    000008B4  A$lcc8968 |    000008B5  A$lcc8968
     000008B6  A$lcc8968 |    000008B7  A$lcc8968 |    000008B7  C$camera.
     000008BA  A$lcc8968 |    000008BC  A$lcc8968 |    000008BE  A$lcc8968
     000008BE  C$camera. |    000008C1  A$lcc8968 |    000008C2  A$lcc8968
     000008C3  A$lcc8968 |    000008C4  A$lcc8968 |    000008C7  A$lcc8968
     000008C8  A$lcc8968 |    000008C9  A$lcc8968 |    000008CA  A$lcc8968
ASxxxx Linker V03.00 + NoICE + sdld,  page 11.
Hexadecimal  [32-Bits]

Area                       Addr        Size        Decimal Bytes (Attributes)
--------------------       ----        ----        ------- ----- ------------
_CODE                  00000200    00000EDE =        3806. bytes (REL,CON)

        Value  Global            Value  Global            Value  Global    
        -----  ------            -----  ------            -----  ------    
     000008CB  A$lcc8968 |    000008CC  A$lcc8968 |    000008CD  A$lcc8968
     000008D0  A$lcc8968 |    000008D1  A$lcc8968 |    000008D2  A$lcc8968
     000008D3  A$lcc8968 |    000008D5  A$lcc8968 |    000008D6  A$lcc8968
     000008D7  A$lcc8968 |    000008D8  A$lcc8968 |    000008D9  A$lcc8968
     000008D9  C$camera. |    000008DC  A$lcc8968 |    000008DE  A$lcc8968
     000008DF  A$lcc8968 |    000008DF  C$camera. |    000008E0  A$lcc8968
     000008E1  A$lcc8968 |    000008E2  A$lcc8968 |    000008E3  A$lcc8968
     000008E4  A$lcc8968 |    000008E6  A$lcc8968 |    000008E8  A$lcc8968
     000008EA  A$lcc8968 |    000008EC  A$lcc8968 |    000008ED  A$lcc8968
     000008EF  A$lcc8968 |    000008F1  A$lcc8968 |    000008F3  A$lcc8968
     000008F4  A$lcc8968 |    000008F6  A$lcc8968 |    000008F6  C$camera.
     000008F7  A$lcc8968 |    000008F9  A$lcc8968 |    000008FB  A$lcc8968
     000008FC  A$lcc8968 |    000008FE  A$lcc8968 |    00000900  A$lcc8968
     00000901  A$lcc8968 |    00000903  A$lcc8968 |    00000905  A$lcc8968
     00000905  C$camera. |    00000908  A$lcc8968 |    00000909  A$lcc8968
     0000090A  A$lcc8968 |    0000090B  A$lcc8968 |    0000090E  A$lcc8968
     0000090F  A$lcc8968 |    00000910  A$lcc8968 |    00000911  A$lcc8968
     00000912  A$lcc8968 |    00000913  A$lcc8968 |    00000914  A$lcc8968
     00000917  A$lcc8968 |    00000918  A$lcc8968 |    00000919  A$lcc8968
     0000091A  A$lcc8968 |    0000091A  C$camera. |    0000091D  A$lcc8968
     0000091F  A$lcc8968 |    00000921  A$lcc8968 |    00000921  C$camera.
     00000923  A$lcc8968 |    00000924  A$lcc8968 |    00000925  A$lcc8968
     00000926  A$lcc8968 |    00000927  A$lcc8968 |    0000092A  A$lcc8968
     0000092B  A$lcc8968 |    0000092C  A$lcc8968 |    0000092D  A$lcc8968
     0000092E  A$lcc8968 |    0000092F  A$lcc8968 |    00000930  A$lcc8968
     00000931  A$lcc8968 |    00000933  A$lcc8968 |    00000933  C$camera.
     00000934  A$lcc8968 |    00000936  A$lcc8968 |    00000938  A$lcc8968
     00000939  A$lcc8968 |    0000093B  A$lcc8968 |    0000093D  A$lcc8968
     0000093F  A$lcc8968 |    00000940  A$lcc8968 |    00000942  A$lcc8968
     00000942  C$camera. |    00000945  A$lcc8968 |    00000946  A$lcc8968
     00000947  A$lcc8968 |    00000948  A$lcc8968 |    0000094B  A$lcc8968
     0000094C  A$lcc8968 |    0000094D  A$lcc8968 |    0000094E  A$lcc8968
     0000094F  A$lcc8968 |    00000950  A$lcc8968 |    00000951  A$lcc8968
     00000954  A$lcc8968 |    00000955  A$lcc8968 |    00000956  A$lcc8968
     00000957  A$lcc8968 |    00000957  C$camera. |    0000095A  A$lcc8968
     0000095C  A$lcc8968 |    0000095D  A$lcc8968 |    0000095D  C$camera.
     0000095D  XG$render |    0000095E  A$lcc8968 |    0000095E  C$camera.
     0000095E  G$perform |    0000095E  _performa |    00000960  A$lcc8968
     00000961  A$lcc8968 |    00000963  A$lcc8968 |    00000964  A$lcc8968
     00000965  A$lcc8968 |    00000965  C$camera. |    00000968  A$lcc8968
     00000968  C$camera. |    00000969  A$lcc8968 |    00000969  C$camera.
     00000969  XG$perfor |    0000096B  A$lcc8968 |    0000096B  C$main.c$
     0000096B  C$main.c$ |    0000096B  G$main$0$ |    0000096B  _main    
     0000096C  A$lcc8968 |    0000096E  A$lcc8968 |    0000096E  C$main.c$
     00000970  A$lcc8968 |    00000972  A$lcc8968 |    00000972  C$main.c$
     00000974  A$lcc8968 |    00000976  A$lcc8968 |    00000976  C$main.c$
     00000978  A$lcc8968 |    0000097A  A$lcc8968 |    0000097A  C$main.c$
     0000097C  A$lcc8968 |    0000097E  A$lcc8968 |    00000980  A$lcc8968
     00000980  C$main.c$ |    00000982  A$lcc8968 |    00000984  A$lcc8968
     00000986  A$lcc8968 |    00000986  C$main.c$ |    00000988  A$lcc8968
     0000098A  A$lcc8968 |    0000098C  A$lcc8968 |    0000098C  C$main.c$
ASxxxx Linker V03.00 + NoICE + sdld,  page 12.
Hexadecimal  [32-Bits]

Area                       Addr        Size        Decimal Bytes (Attributes)
--------------------       ----        ----        ------- ----- ------------
_CODE                  00000200    00000EDE =        3806. bytes (REL,CON)

        Value  Global            Value  Global            Value  Global    
        -----  ------            -----  ------            -----  ------    
     0000098F  A$lcc8968 |    00000991  A$lcc8968 |    00000994  A$lcc8968
     00000996  A$lcc8968 |    00000999  A$lcc8968 |    0000099B  A$lcc8968
     0000099E  A$lcc8968 |    000009A0  A$lcc8968 |    000009A3  A$lcc8968
     000009A5  A$lcc8968 |    000009A8  A$lcc8968 |    000009AA  A$lcc8968
     000009AD  A$lcc8968 |    000009AF  A$lcc8968 |    000009B2  A$lcc8968
     000009B4  A$lcc8968 |    000009B7  A$lcc8968 |    000009B9  A$lcc8968
     000009BC  A$lcc8968 |    000009BE  A$lcc8968 |    000009C1  A$lcc8968
     000009C3  A$lcc8968 |    000009C6  A$lcc8968 |    000009C8  A$lcc8968
     000009CB  A$lcc8968 |    000009CD  A$lcc8968 |    000009D0  A$lcc8968
     000009D2  A$lcc8968 |    000009D5  A$lcc8968 |    000009D7  A$lcc8968
     000009DA  A$lcc8968 |    000009DC  A$lcc8968 |    000009DF  A$lcc8968
     000009E1  A$lcc8968 |    000009E4  A$lcc8968 |    000009E6  A$lcc8968
     000009E9  A$lcc8968 |    000009EB  A$lcc8968 |    000009EB  C$main.c$
     000009EE  A$lcc8968 |    000009F0  A$lcc8968 |    000009F3  A$lcc8968
     000009F5  A$lcc8968 |    000009F8  A$lcc8968 |    000009FA  A$lcc8968
     000009FA  C$main.c$ |    000009FD  A$lcc8968 |    000009FF  A$lcc8968
     000009FF  C$main.c$ |    00000A02  A$lcc8968 |    00000A04  A$lcc8968
     00000A04  C$main.c$ |    00000A07  A$lcc8968 |    00000A09  A$lcc8968
     00000A09  C$main.c$ |    00000A0C  A$lcc8968 |    00000A0E  A$lcc8968
     00000A0E  C$main.c$ |    00000A11  A$lcc8968 |    00000A13  A$lcc8968
     00000A16  A$lcc8968 |    00000A18  A$lcc8968 |    00000A18  C$main.c$
     00000A18  C$main.c$ |    00000A1B  A$lcc8968 |    00000A1C  A$lcc8968
     00000A1E  A$lcc8968 |    00000A21  A$lcc8968 |    00000A23  A$lcc8968
     00000A25  A$lcc8968 |    00000A28  A$lcc8968 |    00000A2A  A$lcc8968
     00000A2C  A$lcc8968 |    00000A2E  A$lcc8968 |    00000A2E  C$main.c$
     00000A2E  C$main.c$ |    00000A30  A$lcc8968 |    00000A32  A$lcc8968
     00000A35  A$lcc8968 |    00000A37  A$lcc8968 |    00000A37  C$main.c$
     00000A3A  A$lcc8968 |    00000A3A  C$main.c$ |    00000A3C  A$lcc8968
     00000A3C  C$main.c$ |    00000A3C  C$main.c$ |    00000A3E  A$lcc8968
     00000A40  A$lcc8968 |    00000A43  A$lcc8968 |    00000A45  A$lcc8968
     00000A45  C$main.c$ |    00000A48  A$lcc8968 |    00000A48  C$main.c$
     00000A4A  A$lcc8968 |    00000A4A  C$main.c$ |    00000A4A  C$main.c$
     00000A4C  A$lcc8968 |    00000A4E  A$lcc8968 |    00000A51  A$lcc8968
     00000A53  A$lcc8968 |    00000A53  C$main.c$ |    00000A56  A$lcc8968
     00000A56  C$main.c$ |    00000A56  C$main.c$ |    00000A56  XG$main$0
     00000A58  A$lcc8968 |    00000A58  C$scene.c |    00000A58  G$load_le
     00000A58  _load_lev |    00000A59  A$lcc8968 |    00000A5A  A$lcc8968
     00000A5A  C$scene.c |    00000A5C  A$lcc8968 |    00000A5D  A$lcc8968
     00000A5E  A$lcc8968 |    00000A5E  C$scene.c |    00000A61  A$lcc8968
     00000A61  C$scene.c |    00000A63  A$lcc8968 |    00000A64  A$lcc8968
     00000A66  A$lcc8968 |    00000A67  A$lcc8968 |    00000A69  A$lcc8968
     00000A6A  A$lcc8968 |    00000A6C  A$lcc8968 |    00000A6D  A$lcc8968
     00000A6E  A$lcc8968 |    00000A6F  A$lcc8968 |    00000A72  A$lcc8968
     00000A73  A$lcc8968 |    00000A74  A$lcc8968 |    00000A75  A$lcc8968
     00000A76  A$lcc8968 |    00000A77  A$lcc8968 |    00000A78  A$lcc8968
     00000A79  A$lcc8968 |    00000A7A  A$lcc8968 |    00000A7B  A$lcc8968
     00000A7C  A$lcc8968 |    00000A7D  A$lcc8968 |    00000A7E  A$lcc8968
     00000A7F  A$lcc8968 |    00000A80  A$lcc8968 |    00000A81  A$lcc8968
     00000A82  A$lcc8968 |    00000A83  A$lcc8968 |    00000A86  A$lcc8968
     00000A88  A$lcc8968 |    00000A88  C$scene.c |    00000A89  A$lcc8968
     00000A8A  A$lcc8968 |    00000A8D  A$lcc8968 |    00000A8E  A$lcc8968
ASxxxx Linker V03.00 + NoICE + sdld,  page 13.
Hexadecimal  [32-Bits]

Area                       Addr        Size        Decimal Bytes (Attributes)
--------------------       ----        ----        ------- ----- ------------
_CODE                  00000200    00000EDE =        3806. bytes (REL,CON)

        Value  Global            Value  Global            Value  Global    
        -----  ------            -----  ------            -----  ------    
     00000A8F  A$lcc8968 |    00000A90  A$lcc8968 |    00000A91  A$lcc8968
     00000A92  A$lcc8968 |    00000A93  A$lcc8968 |    00000A94  A$lcc8968
     00000A97  A$lcc8968 |    00000A98  A$lcc8968 |    00000A99  A$lcc8968
     00000A9A  A$lcc8968 |    00000A9B  A$lcc8968 |    00000A9E  A$lcc8968
     00000A9F  A$lcc8968 |    00000AA0  A$lcc8968 |    00000AA1  A$lcc8968
     00000AA2  A$lcc8968 |    00000AA3  A$lcc8968 |    00000AA6  A$lcc8968
     00000AA8  A$lcc8968 |    00000AA8  C$scene.c |    00000AA9  A$lcc8968
     00000AAA  A$lcc8968 |    00000AAB  A$lcc8968 |    00000AAC  A$lcc8968
     00000AAD  A$lcc8968 |    00000AAE  A$lcc8968 |    00000AB1  A$lcc8968
     00000AB2  A$lcc8968 |    00000AB3  A$lcc8968 |    00000AB4  A$lcc8968
     00000AB5  A$lcc8968 |    00000AB5  C$scene.c |    00000AB6  A$lcc8968
     00000AB7  A$lcc8968 |    00000AB9  A$lcc8968 |    00000AB9  C$scene.c
     00000ABC  A$lcc8968 |    00000ABD  A$lcc8968 |    00000AC0  A$lcc8968
     00000AC1  A$lcc8968 |    00000AC4  A$lcc8968 |    00000AC4  C$scene.c
     00000AC5  A$lcc8968 |    00000AC6  A$lcc8968 |    00000AC9  A$lcc8968
     00000ACA  A$lcc8968 |    00000ACB  A$lcc8968 |    00000ACC  A$lcc8968
     00000ACD  A$lcc8968 |    00000ACE  A$lcc8968 |    00000ACF  A$lcc8968
     00000AD2  A$lcc8968 |    00000AD3  A$lcc8968 |    00000AD4  A$lcc8968
     00000AD5  A$lcc8968 |    00000AD6  A$lcc8968 |    00000AD6  C$scene.c
     00000AD7  A$lcc8968 |    00000AD8  A$lcc8968 |    00000ADB  A$lcc8968
     00000ADC  A$lcc8968 |    00000ADD  A$lcc8968 |    00000ADE  A$lcc8968
     00000ADF  A$lcc8968 |    00000AE0  A$lcc8968 |    00000AE1  A$lcc8968
     00000AE4  A$lcc8968 |    00000AE5  A$lcc8968 |    00000AE6  A$lcc8968
     00000AE7  A$lcc8968 |    00000AE8  A$lcc8968 |    00000AE9  A$lcc8968
     00000AEA  A$lcc8968 |    00000AEA  C$scene.c |    00000AEA  XG$load_l
     00000AEB  A$lcc8968 |    00000AEB  C$scene.c |    00000AEB  C$scene.c
     00000AEB  G$switch_ |    00000AEB  _switch_d |    00000AEE  A$lcc8968
     00000AEF  A$lcc8968 |    00000AF1  A$lcc8968 |    00000AF3  A$lcc8968
     00000AF5  A$lcc8968 |    00000AF7  A$lcc8968 |    00000AF9  A$lcc8968
     00000AFB  A$lcc8968 |    00000AFD  A$lcc8968 |    00000AFF  A$lcc8968
     00000B01  A$lcc8968 |    00000B03  A$lcc8968 |    00000B05  A$lcc8968
     00000B08  A$lcc8968 |    00000B09  A$lcc8968 |    00000B0A  A$lcc8968
     00000B0C  A$lcc8968 |    00000B0D  A$lcc8968 |    00000B10  A$lcc8968
     00000B11  A$lcc8968 |    00000B13  A$lcc8968 |    00000B14  A$lcc8968
     00000B17  A$lcc8968 |    00000B19  A$lcc8968 |    00000B19  C$scene.c
     00000B1A  A$lcc8968 |    00000B1D  A$lcc8968 |    00000B1E  A$lcc8968
     00000B1F  A$lcc8968 |    00000B21  A$lcc8968 |    00000B22  A$lcc8968
     00000B25  A$lcc8968 |    00000B26  A$lcc8968 |    00000B28  A$lcc8968
     00000B29  A$lcc8968 |    00000B2C  A$lcc8968 |    00000B2E  A$lcc8968
     00000B2E  C$scene.c |    00000B2E  C$scene.c |    00000B2E  XG$switch
     00000B2F  A$lcc8968 |    00000B2F  C$scene.c |    00000B2F  C$scene.c
     00000B2F  G$switch_ |    00000B2F  _switch_j |    00000B32  A$lcc8968
     00000B33  A$lcc8968 |    00000B35  A$lcc8968 |    00000B37  A$lcc8968
     00000B39  A$lcc8968 |    00000B3B  A$lcc8968 |    00000B3D  A$lcc8968
     00000B3F  A$lcc8968 |    00000B41  A$lcc8968 |    00000B43  A$lcc8968
     00000B45  A$lcc8968 |    00000B47  A$lcc8968 |    00000B49  A$lcc8968
     00000B4B  A$lcc8968 |    00000B4D  A$lcc8968 |    00000B50  A$lcc8968
     00000B51  A$lcc8968 |    00000B53  A$lcc8968 |    00000B53  C$scene.c
     00000B56  A$lcc8968 |    00000B57  A$lcc8968 |    00000B59  A$lcc8968
     00000B5C  A$lcc8968 |    00000B5D  A$lcc8968 |    00000B5E  A$lcc8968
     00000B60  A$lcc8968 |    00000B61  A$lcc8968 |    00000B64  A$lcc8968
ASxxxx Linker V03.00 + NoICE + sdld,  page 14.
Hexadecimal  [32-Bits]

Area                       Addr        Size        Decimal Bytes (Attributes)
--------------------       ----        ----        ------- ----- ------------
_CODE                  00000200    00000EDE =        3806. bytes (REL,CON)

        Value  Global            Value  Global            Value  Global    
        -----  ------            -----  ------            -----  ------    
     00000B65  A$lcc8968 |    00000B67  A$lcc8968 |    00000B68  A$lcc8968
     00000B6B  A$lcc8968 |    00000B6D  A$lcc8968 |    00000B6D  C$scene.c
     00000B6E  A$lcc8968 |    00000B71  A$lcc8968 |    00000B72  A$lcc8968
     00000B73  A$lcc8968 |    00000B75  A$lcc8968 |    00000B76  A$lcc8968
     00000B79  A$lcc8968 |    00000B7A  A$lcc8968 |    00000B7C  A$lcc8968
     00000B7D  A$lcc8968 |    00000B80  A$lcc8968 |    00000B82  A$lcc8968
     00000B82  C$scene.c |    00000B83  A$lcc8968 |    00000B83  C$scene.c
     00000B86  A$lcc8968 |    00000B87  A$lcc8968 |    00000B89  A$lcc8968
     00000B8C  A$lcc8968 |    00000B8D  A$lcc8968 |    00000B8E  A$lcc8968
     00000B90  A$lcc8968 |    00000B91  A$lcc8968 |    00000B94  A$lcc8968
     00000B95  A$lcc8968 |    00000B97  A$lcc8968 |    00000B98  A$lcc8968
     00000B9B  A$lcc8968 |    00000B9D  A$lcc8968 |    00000B9D  C$scene.c
     00000B9E  A$lcc8968 |    00000BA1  A$lcc8968 |    00000BA2  A$lcc8968
     00000BA3  A$lcc8968 |    00000BA5  A$lcc8968 |    00000BA6  A$lcc8968
     00000BA9  A$lcc8968 |    00000BAA  A$lcc8968 |    00000BAC  A$lcc8968
     00000BAD  A$lcc8968 |    00000BB0  A$lcc8968 |    00000BB2  A$lcc8968
     00000BB2  C$scene.c |    00000BB2  C$scene.c |    00000BB2  XG$switch
     00000BB3  A$lcc8968 |    00000BB3  C$scene.c |    00000BB3  C$scene.c
     00000BB3  G$switch_ |    00000BB3  _switch_i |    00000BB6  A$lcc8968
     00000BB7  A$lcc8968 |    00000BB9  A$lcc8968 |    00000BBB  A$lcc8968
     00000BBD  A$lcc8968 |    00000BBF  A$lcc8968 |    00000BC1  A$lcc8968
     00000BC3  A$lcc8968 |    00000BC5  A$lcc8968 |    00000BC7  A$lcc8968
     00000BC9  A$lcc8968 |    00000BCB  A$lcc8968 |    00000BCD  A$lcc8968
     00000BD0  A$lcc8968 |    00000BD1  A$lcc8968 |    00000BD3  A$lcc8968
     00000BD6  A$lcc8968 |    00000BD7  A$lcc8968 |    00000BD8  A$lcc8968
     00000BDA  A$lcc8968 |    00000BDB  A$lcc8968 |    00000BDE  A$lcc8968
     00000BDF  A$lcc8968 |    00000BE1  A$lcc8968 |    00000BE2  A$lcc8968
     00000BE5  A$lcc8968 |    00000BE7  A$lcc8968 |    00000BE7  C$scene.c
     00000BE8  A$lcc8968 |    00000BEB  A$lcc8968 |    00000BEC  A$lcc8968
     00000BED  A$lcc8968 |    00000BEF  A$lcc8968 |    00000BF0  A$lcc8968
     00000BF3  A$lcc8968 |    00000BF4  A$lcc8968 |    00000BF6  A$lcc8968
     00000BF7  A$lcc8968 |    00000BFA  A$lcc8968 |    00000BFC  A$lcc8968
     00000BFC  C$scene.c |    00000BFC  C$scene.c |    00000BFC  XG$switch
     00000BFD  A$lcc8968 |    00000BFD  C$scene.c |    00000BFD  C$scene.c
     00000BFD  G$switch_ |    00000BFD  _switch_i |    00000C00  A$lcc8968
     00000C01  A$lcc8968 |    00000C02  A$lcc8968 |    00000C03  A$lcc8968
     00000C05  A$lcc8968 |    00000C06  A$lcc8968 |    00000C07  A$lcc8968
     00000C09  A$lcc8968 |    00000C0A  A$lcc8968 |    00000C0C  A$lcc8968
     00000C0E  A$lcc8968 |    00000C10  A$lcc8968 |    00000C12  A$lcc8968
     00000C14  A$lcc8968 |    00000C16  A$lcc8968 |    00000C18  A$lcc8968
     00000C1A  A$lcc8968 |    00000C1B  A$lcc8968 |    00000C1B  C$scene.c
     00000C1E  A$lcc8968 |    00000C1F  A$lcc8968 |    00000C20  A$lcc8968
     00000C22  A$lcc8968 |    00000C23  A$lcc8968 |    00000C26  A$lcc8968
     00000C27  A$lcc8968 |    00000C29  A$lcc8968 |    00000C2A  A$lcc8968
     00000C2D  A$lcc8968 |    00000C2F  A$lcc8968 |    00000C2F  C$scene.c
     00000C30  A$lcc8968 |    00000C30  C$scene.c |    00000C33  A$lcc8968
     00000C34  A$lcc8968 |    00000C35  A$lcc8968 |    00000C37  A$lcc8968
     00000C38  A$lcc8968 |    00000C3B  A$lcc8968 |    00000C3C  A$lcc8968
     00000C3E  A$lcc8968 |    00000C3F  A$lcc8968 |    00000C42  A$lcc8968
     00000C44  A$lcc8968 |    00000C44  C$scene.c |    00000C45  A$lcc8968
     00000C45  C$scene.c |    00000C48  A$lcc8968 |    00000C49  A$lcc8968
ASxxxx Linker V03.00 + NoICE + sdld,  page 15.
Hexadecimal  [32-Bits]

Area                       Addr        Size        Decimal Bytes (Attributes)
--------------------       ----        ----        ------- ----- ------------
_CODE                  00000200    00000EDE =        3806. bytes (REL,CON)

        Value  Global            Value  Global            Value  Global    
        -----  ------            -----  ------            -----  ------    
     00000C4A  A$lcc8968 |    00000C4C  A$lcc8968 |    00000C4D  A$lcc8968
     00000C50  A$lcc8968 |    00000C51  A$lcc8968 |    00000C53  A$lcc8968
     00000C54  A$lcc8968 |    00000C57  A$lcc8968 |    00000C59  A$lcc8968
     00000C59  C$scene.c |    00000C5A  A$lcc8968 |    00000C5A  C$scene.c
     00000C5D  A$lcc8968 |    00000C5E  A$lcc8968 |    00000C5F  A$lcc8968
     00000C61  A$lcc8968 |    00000C62  A$lcc8968 |    00000C65  A$lcc8968
     00000C66  A$lcc8968 |    00000C68  A$lcc8968 |    00000C69  A$lcc8968
     00000C6C  A$lcc8968 |    00000C6E  A$lcc8968 |    00000C6E  C$scene.c
     00000C6F  A$lcc8968 |    00000C6F  C$scene.c |    00000C72  A$lcc8968
     00000C73  A$lcc8968 |    00000C74  A$lcc8968 |    00000C76  A$lcc8968
     00000C77  A$lcc8968 |    00000C7A  A$lcc8968 |    00000C7B  A$lcc8968
     00000C7D  A$lcc8968 |    00000C7E  A$lcc8968 |    00000C81  A$lcc8968
     00000C83  A$lcc8968 |    00000C83  C$scene.c |    00000C84  A$lcc8968
     00000C84  C$scene.c |    00000C87  A$lcc8968 |    00000C88  A$lcc8968
     00000C89  A$lcc8968 |    00000C8B  A$lcc8968 |    00000C8C  A$lcc8968
     00000C8F  A$lcc8968 |    00000C90  A$lcc8968 |    00000C92  A$lcc8968
     00000C93  A$lcc8968 |    00000C96  A$lcc8968 |    00000C98  A$lcc8968
     00000C98  C$scene.c |    00000C98  C$scene.c |    00000C98  XG$switch
     00000C99  A$lcc8968 |    00000C99  C$scene.c |    00000C99  C$scene.c
     00000C99  G$switch_ |    00000C99  _switch_o |    00000C9C  A$lcc8968
     00000C9D  A$lcc8968 |    00000C9F  A$lcc8968 |    00000CA2  A$lcc8968
     00000CA3  A$lcc8968 |    00000CA4  A$lcc8968 |    00000CA6  A$lcc8968
     00000CA7  A$lcc8968 |    00000CAA  A$lcc8968 |    00000CAB  A$lcc8968
     00000CAD  A$lcc8968 |    00000CAE  A$lcc8968 |    00000CB1  A$lcc8968
     00000CB3  A$lcc8968 |    00000CB3  C$scene.c |    00000CB4  A$lcc8968
     00000CB4  C$scene.c |    00000CB7  A$lcc8968 |    00000CB8  A$lcc8968
     00000CB9  A$lcc8968 |    00000CBC  A$lcc8968 |    00000CBD  A$lcc8968
     00000CBE  A$lcc8968 |    00000CC0  A$lcc8968 |    00000CC1  A$lcc8968
     00000CC4  A$lcc8968 |    00000CC5  A$lcc8968 |    00000CC7  A$lcc8968
     00000CC8  A$lcc8968 |    00000CCB  A$lcc8968 |    00000CCD  A$lcc8968
     00000CCD  C$scene.c |    00000CCD  C$scene.c |    00000CCD  XG$switch
     00000CCE  A$lcc8968 |    00000CCE  C$scene.c |    00000CCE  C$scene.c
     00000CCE  G$switch_ |    00000CCE  _switch_o |    00000CD1  A$lcc8968
     00000CD2  A$lcc8968 |    00000CD4  A$lcc8968 |    00000CD7  A$lcc8968
     00000CD8  A$lcc8968 |    00000CD9  A$lcc8968 |    00000CDB  A$lcc8968
     00000CDC  A$lcc8968 |    00000CDF  A$lcc8968 |    00000CE0  A$lcc8968
     00000CE2  A$lcc8968 |    00000CE3  A$lcc8968 |    00000CE6  A$lcc8968
     00000CE8  A$lcc8968 |    00000CE8  C$scene.c |    00000CE9  A$lcc8968
     00000CE9  C$scene.c |    00000CEC  A$lcc8968 |    00000CED  A$lcc8968
     00000CEE  A$lcc8968 |    00000CF1  A$lcc8968 |    00000CF2  A$lcc8968
     00000CF3  A$lcc8968 |    00000CF5  A$lcc8968 |    00000CF6  A$lcc8968
     00000CF9  A$lcc8968 |    00000CFA  A$lcc8968 |    00000CFC  A$lcc8968
     00000CFD  A$lcc8968 |    00000D00  A$lcc8968 |    00000D02  A$lcc8968
     00000D02  C$scene.c |    00000D02  C$scene.c |    00000D02  XG$switch
     00000D03  A$lcc8968 |    00000D03  C$scene.c |    00000D03  G$switch_
     00000D03  _switch_l |    00000D04  A$lcc8968 |    00000D04  C$scene.c
     00000D07  A$lcc8968 |    00000D08  A$lcc8968 |    00000D0B  A$lcc8968
     00000D0B  C$scene.c |    00000D0E  A$lcc8968 |    00000D0F  A$lcc8968
     00000D11  A$lcc8968 |    00000D13  A$lcc8968 |    00000D15  A$lcc8968
     00000D17  A$lcc8968 |    00000D19  A$lcc8968 |    00000D1B  A$lcc8968
     00000D1D  A$lcc8968 |    00000D1F  A$lcc8968 |    00000D21  A$lcc8968
ASxxxx Linker V03.00 + NoICE + sdld,  page 16.
Hexadecimal  [32-Bits]

Area                       Addr        Size        Decimal Bytes (Attributes)
--------------------       ----        ----        ------- ----- ------------
_CODE                  00000200    00000EDE =        3806. bytes (REL,CON)

        Value  Global            Value  Global            Value  Global    
        -----  ------            -----  ------            -----  ------    
     00000D23  A$lcc8968 |    00000D25  A$lcc8968 |    00000D27  A$lcc8968
     00000D29  A$lcc8968 |    00000D2B  A$lcc8968 |    00000D2D  A$lcc8968
     00000D30  A$lcc8968 |    00000D31  A$lcc8968 |    00000D32  A$lcc8968
     00000D34  A$lcc8968 |    00000D36  A$lcc8968 |    00000D39  A$lcc8968
     00000D3A  A$lcc8968 |    00000D3C  A$lcc8968 |    00000D3D  A$lcc8968
     00000D40  A$lcc8968 |    00000D42  A$lcc8968 |    00000D42  C$scene.c
     00000D44  A$lcc8968 |    00000D47  A$lcc8968 |    00000D48  A$lcc8968
     00000D49  A$lcc8968 |    00000D4B  A$lcc8968 |    00000D4D  A$lcc8968
     00000D50  A$lcc8968 |    00000D51  A$lcc8968 |    00000D53  A$lcc8968
     00000D54  A$lcc8968 |    00000D57  A$lcc8968 |    00000D59  A$lcc8968
     00000D59  C$scene.c |    00000D5C  A$lcc8968 |    00000D5D  A$lcc8968
     00000D5D  C$scene.c |    00000D5D  C$scene.c |    00000D5E  A$lcc8968
     00000D60  A$lcc8968 |    00000D62  A$lcc8968 |    00000D65  A$lcc8968
     00000D66  A$lcc8968 |    00000D68  A$lcc8968 |    00000D6B  A$lcc8968
     00000D6D  A$lcc8968 |    00000D6E  A$lcc8968 |    00000D70  A$lcc8968
     00000D72  A$lcc8968 |    00000D75  A$lcc8968 |    00000D77  A$lcc8968
     00000D78  A$lcc8968 |    00000D79  A$lcc8968 |    00000D7C  A$lcc8968
     00000D7E  A$lcc8968 |    00000D81  A$lcc8968 |    00000D83  A$lcc8968
     00000D83  C$scene.c |    00000D86  A$lcc8968 |    00000D89  A$lcc8968
     00000D8B  A$lcc8968 |    00000D8B  C$scene.c |    00000D8C  A$lcc8968
     00000D8E  A$lcc8968 |    00000D90  A$lcc8968 |    00000D93  A$lcc8968
     00000D94  A$lcc8968 |    00000D96  A$lcc8968 |    00000D99  A$lcc8968
     00000D9A  A$lcc8968 |    00000D9B  A$lcc8968 |    00000D9D  A$lcc8968
     00000D9F  A$lcc8968 |    00000DA2  A$lcc8968 |    00000DA3  A$lcc8968
     00000DA5  A$lcc8968 |    00000DA6  A$lcc8968 |    00000DA9  A$lcc8968
     00000DAB  A$lcc8968 |    00000DAB  C$scene.c |    00000DAE  A$lcc8968
     00000DB1  A$lcc8968 |    00000DB2  A$lcc8968 |    00000DB2  C$scene.c
     00000DB2  XG$switch |    00000DB3  A$lcc8968 |    00000DB3  C$scene.c
     00000DB3  C$scene.c |    00000DB3  G$switch_ |    00000DB3  _switch_l
     00000DB6  A$lcc8968 |    00000DB7  A$lcc8968 |    00000DB8  A$lcc8968
     00000DBA  A$lcc8968 |    00000DBC  A$lcc8968 |    00000DBF  A$lcc8968
     00000DC0  A$lcc8968 |    00000DC2  A$lcc8968 |    00000DC5  A$lcc8968
     00000DC6  A$lcc8968 |    00000DC7  A$lcc8968 |    00000DC9  A$lcc8968
     00000DCA  A$lcc8968 |    00000DCD  A$lcc8968 |    00000DCE  A$lcc8968
     00000DD0  A$lcc8968 |    00000DD1  A$lcc8968 |    00000DD4  A$lcc8968
     00000DD6  A$lcc8968 |    00000DD6  C$scene.c |    00000DD7  A$lcc8968
     00000DD7  C$scene.c |    00000DD8  A$lcc8968 |    00000DDA  A$lcc8968
     00000DDC  A$lcc8968 |    00000DDF  A$lcc8968 |    00000DE0  A$lcc8968
     00000DE1  A$lcc8968 |    00000DE4  A$lcc8968 |    00000DE5  A$lcc8968
     00000DE6  A$lcc8968 |    00000DE8  A$lcc8968 |    00000DE9  A$lcc8968
     00000DEC  A$lcc8968 |    00000DED  A$lcc8968 |    00000DEF  A$lcc8968
     00000DF0  A$lcc8968 |    00000DF3  A$lcc8968 |    00000DF5  A$lcc8968
     00000DF5  C$scene.c |    00000DF5  C$scene.c |    00000DF5  XG$switch
     00000DF6  A$lcc8968 |    00000DF6  C$scene.c |    00000DF6  C$scene.c
     00000DF6  G$switch_ |    00000DF6  _switch_c |    00000DF9  A$lcc8968
     00000DFC  A$lcc8968 |    00000DFD  A$lcc8968 |    00000DFE  A$lcc8968
     00000DFF  A$lcc8968 |    00000E01  A$lcc8968 |    00000E03  A$lcc8968
     00000E06  A$lcc8968 |    00000E07  A$lcc8968 |    00000E08  A$lcc8968
     00000E0A  A$lcc8968 |    00000E0B  A$lcc8968 |    00000E0E  A$lcc8968
     00000E0F  A$lcc8968 |    00000E11  A$lcc8968 |    00000E12  A$lcc8968
     00000E15  A$lcc8968 |    00000E17  A$lcc8968 |    00000E17  C$scene.c
ASxxxx Linker V03.00 + NoICE + sdld,  page 17.
Hexadecimal  [32-Bits]

Area                       Addr        Size        Decimal Bytes (Attributes)
--------------------       ----        ----        ------- ----- ------------
_CODE                  00000200    00000EDE =        3806. bytes (REL,CON)

        Value  Global            Value  Global            Value  Global    
        -----  ------            -----  ------            -----  ------    
     00000E18  A$lcc8968 |    00000E18  C$scene.c |    00000E19  A$lcc8968
     00000E1B  A$lcc8968 |    00000E1C  A$lcc8968 |    00000E1F  A$lcc8968
     00000E20  A$lcc8968 |    00000E21  A$lcc8968 |    00000E23  A$lcc8968
     00000E24  A$lcc8968 |    00000E27  A$lcc8968 |    00000E28  A$lcc8968
     00000E2A  A$lcc8968 |    00000E2B  A$lcc8968 |    00000E2E  A$lcc8968
     00000E30  A$lcc8968 |    00000E30  C$scene.c |    00000E30  C$scene.c
     00000E30  XG$switch |    00000E31  A$lcc8968 |    00000E31  C$scene.c
     00000E31  C$scene.c |    00000E31  G$LEFT_RI |    00000E31  _LEFT_RIG
     00000E34  A$lcc8968 |    00000E36  A$lcc8968 |    00000E38  A$lcc8968
     00000E3A  A$lcc8968 |    00000E3C  A$lcc8968 |    00000E3E  A$lcc8968
     00000E40  A$lcc8968 |    00000E42  A$lcc8968 |    00000E44  A$lcc8968
     00000E46  A$lcc8968 |    00000E48  A$lcc8968 |    00000E4A  A$lcc8968
     00000E4C  A$lcc8968 |    00000E4E  A$lcc8968 |    00000E50  A$lcc8968
     00000E52  A$lcc8968 |    00000E54  A$lcc8968 |    00000E54  C$scene.c
     00000E57  A$lcc8968 |    00000E59  A$lcc8968 |    00000E59  C$scene.c
     00000E5C  A$lcc8968 |    00000E5E  A$lcc8968 |    00000E5F  A$lcc8968
     00000E5F  C$scene.c |    00000E62  A$lcc8968 |    00000E64  A$lcc8968
     00000E64  C$scene.c |    00000E67  A$lcc8968 |    00000E69  A$lcc8968
     00000E69  C$scene.c |    00000E69  XG$LEFT_R |    00000E6A  A$lcc8968
     00000E6A  C$scene.c |    00000E6A  C$scene.c |    00000E6A  G$jump$0$
     00000E6A  _jump     |    00000E6D  A$lcc8968 |    00000E6E  A$lcc8968
     00000E6F  A$lcc8968 |    00000E70  A$lcc8968 |    00000E72  A$lcc8968
     00000E74  A$lcc8968 |    00000E76  A$lcc8968 |    00000E78  A$lcc8968
     00000E7A  A$lcc8968 |    00000E7C  A$lcc8968 |    00000E7E  A$lcc8968
     00000E80  A$lcc8968 |    00000E81  A$lcc8968 |    00000E81  C$scene.c
     00000E84  A$lcc8968 |    00000E85  A$lcc8968 |    00000E86  A$lcc8968
     00000E87  A$lcc8968 |    00000E89  A$lcc8968 |    00000E8B  A$lcc8968
     00000E8D  A$lcc8968 |    00000E8F  A$lcc8968 |    00000E91  A$lcc8968
     00000E93  A$lcc8968 |    00000E95  A$lcc8968 |    00000E97  A$lcc8968
     00000E98  A$lcc8968 |    00000E98  C$scene.c |    00000E98  C$scene.c
     00000E9B  A$lcc8968 |    00000E9C  A$lcc8968 |    00000E9E  A$lcc8968
     00000E9E  C$scene.c |    00000EA1  A$lcc8968 |    00000EA2  A$lcc8968
     00000EA3  A$lcc8968 |    00000EA4  A$lcc8968 |    00000EA6  A$lcc8968
     00000EA8  A$lcc8968 |    00000EAA  A$lcc8968 |    00000EAC  A$lcc8968
     00000EAE  A$lcc8968 |    00000EB0  A$lcc8968 |    00000EB2  A$lcc8968
     00000EB4  A$lcc8968 |    00000EB5  A$lcc8968 |    00000EB6  A$lcc8968
     00000EB7  A$lcc8968 |    00000EB8  A$lcc8968 |    00000EB9  A$lcc8968
     00000EBA  A$lcc8968 |    00000EBB  A$lcc8968 |    00000EBC  A$lcc8968
     00000EBF  A$lcc8968 |    00000EC1  A$lcc8968 |    00000EC2  A$lcc8968
     00000EC2  C$scene.c |    00000EC5  A$lcc8968 |    00000EC6  A$lcc8968
     00000EC7  A$lcc8968 |    00000EC8  A$lcc8968 |    00000ECA  A$lcc8968
     00000ECC  A$lcc8968 |    00000ECE  A$lcc8968 |    00000ED0  A$lcc8968
     00000ED2  A$lcc8968 |    00000ED4  A$lcc8968 |    00000ED6  A$lcc8968
     00000ED8  A$lcc8968 |    00000ED9  A$lcc8968 |    00000EDB  A$lcc8968
     00000EDC  A$lcc8968 |    00000EDD  A$lcc8968 |    00000EDE  A$lcc8968
     00000EDF  A$lcc8968 |    00000EE0  A$lcc8968 |    00000EE3  A$lcc8968
     00000EE5  A$lcc8968 |    00000EE5  C$scene.c |    00000EE5  XG$jump$0
     00000EE6  A$lcc8968 |    00000EE6  C$scene.c |    00000EE6  C$scene.c
     00000EE6  G$land$0$ |    00000EE6  _land     |    00000EE9  A$lcc8968
     00000EEA  A$lcc8968 |    00000EEB  A$lcc8968 |    00000EEC  A$lcc8968
     00000EEE  A$lcc8968 |    00000EF0  A$lcc8968 |    00000EF2  A$lcc8968
ASxxxx Linker V03.00 + NoICE + sdld,  page 18.
Hexadecimal  [32-Bits]

Area                       Addr        Size        Decimal Bytes (Attributes)
--------------------       ----        ----        ------- ----- ------------
_CODE                  00000200    00000EDE =        3806. bytes (REL,CON)

        Value  Global            Value  Global            Value  Global    
        -----  ------            -----  ------            -----  ------    
     00000EF4  A$lcc8968 |    00000EF6  A$lcc8968 |    00000EF8  A$lcc8968
     00000EFA  A$lcc8968 |    00000EFC  A$lcc8968 |    00000EFD  A$lcc8968
     00000EFE  A$lcc8968 |    00000F00  A$lcc8968 |    00000F02  A$lcc8968
     00000F05  A$lcc8968 |    00000F06  A$lcc8968 |    00000F08  A$lcc8968
     00000F0A  A$lcc8968 |    00000F0C  A$lcc8968 |    00000F0E  A$lcc8968
     00000F10  A$lcc8968 |    00000F12  A$lcc8968 |    00000F12  C$scene.c
     00000F14  A$lcc8968 |    00000F15  A$lcc8968 |    00000F16  A$lcc8968
     00000F17  A$lcc8968 |    00000F18  A$lcc8968 |    00000F19  A$lcc8968
     00000F1A  A$lcc8968 |    00000F1B  A$lcc8968 |    00000F1C  A$lcc8968
     00000F1D  A$lcc8968 |    00000F20  A$lcc8968 |    00000F21  A$lcc8968
     00000F22  A$lcc8968 |    00000F23  A$lcc8968 |    00000F23  C$scene.c
     00000F26  A$lcc8968 |    00000F27  A$lcc8968 |    00000F28  A$lcc8968
     00000F29  A$lcc8968 |    00000F29  C$scene.c |    00000F2C  A$lcc8968
     00000F2E  A$lcc8968 |    00000F31  A$lcc8968 |    00000F33  A$lcc8968
     00000F36  A$lcc8968 |    00000F38  A$lcc8968 |    00000F3B  A$lcc8968
     00000F3D  A$lcc8968 |    00000F40  A$lcc8968 |    00000F42  A$lcc8968
     00000F42  C$scene.c |    00000F42  C$scene.c |    00000F42  XG$land$0
     00000F45  A$lcc8968 |    00000F45  C$scene.c |    00000F45  C$scene.c
     00000F45  G$setGame |    00000F45  _setGameB |    00000F47  A$lcc8968
     00000F48  A$lcc8968 |    00000F4A  A$lcc8968 |    00000F4D  A$lcc8968
     00000F4E  A$lcc8968 |    00000F4F  A$lcc8968 |    00000F4F  C$scene.c
     00000F4F  XG$setGam |    00000F50  A$lcc8968 |    00000F50  C$scene.c
     00000F50  C$scene.c |    00000F50  G$gameove |    00000F50  _gameover
     00000F53  A$lcc8968 |    00000F53  C$scene.c |    00000F56  A$lcc8968
     00000F58  A$lcc8968 |    00000F58  C$scene.c |    00000F5B  A$lcc8968
     00000F5D  A$lcc8968 |    00000F60  A$lcc8968 |    00000F62  A$lcc8968
     00000F65  A$lcc8968 |    00000F67  A$lcc8968 |    00000F6A  A$lcc8968
     00000F6C  A$lcc8968 |    00000F6F  A$lcc8968 |    00000F71  A$lcc8968
     00000F74  A$lcc8968 |    00000F76  A$lcc8968 |    00000F79  A$lcc8968
     00000F7B  A$lcc8968 |    00000F7B  C$scene.c |    00000F7E  A$lcc8968
     00000F80  A$lcc8968 |    00000F83  A$lcc8968 |    00000F85  A$lcc8968
     00000F85  C$scene.c |    00000F88  A$lcc8968 |    00000F89  A$lcc8968
     00000F8A  A$lcc8968 |    00000F8B  A$lcc8968 |    00000F8C  A$lcc8968
     00000F8F  A$lcc8968 |    00000F90  A$lcc8968 |    00000F90  C$scene.c
     00000F93  A$lcc8968 |    00000F94  A$lcc8968 |    00000F95  A$lcc8968
     00000F97  A$lcc8968 |    00000F97  C$scene.c |    00000F9A  A$lcc8968
     00000F9B  A$lcc8968 |    00000F9E  A$lcc8968 |    00000F9F  A$lcc8968
     00000FA2  A$lcc8968 |    00000FA2  C$scene.c |    00000FA5  A$lcc8968
     00000FA5  C$scene.c |    00000FA8  A$lcc8968 |    00000FAA  A$lcc8968
     00000FAA  C$scene.c |    00000FAC  A$lcc8968 |    00000FAE  A$lcc8968
     00000FB0  A$lcc8968 |    00000FB0  C$scene.c |    00000FB0  XG$gameov
     00000FB1  A$lcc8968 |    00000FB1  C$scene.c |    00000FB1  C$scene.c
     00000FB1  C$scene.c |    00000FB1  G$NPC_res |    00000FB1  _NPC_rese
     00000FB4  A$lcc8968 |    00000FB6  A$lcc8968 |    00000FB7  A$lcc8968
     00000FB8  A$lcc8968 |    00000FB9  A$lcc8968 |    00000FBA  A$lcc8968
     00000FBB  A$lcc8968 |    00000FBB  C$scene.c |    00000FBE  A$lcc8968
     00000FBF  A$lcc8968 |    00000FC1  A$lcc8968 |    00000FC1  C$scene.c
     00000FC4  A$lcc8968 |    00000FC5  A$lcc8968 |    00000FC7  A$lcc8968
     00000FC7  C$scene.c |    00000FCA  A$lcc8968 |    00000FCB  A$lcc8968
     00000FCC  A$lcc8968 |    00000FCD  A$lcc8968 |    00000FCD  C$scene.c
     00000FCE  A$lcc8968 |    00000FCE  C$scene.c |    00000FCE  XG$NPC_re
ASxxxx Linker V03.00 + NoICE + sdld,  page 19.
Hexadecimal  [32-Bits]

Area                       Addr        Size        Decimal Bytes (Attributes)
--------------------       ----        ----        ------- ----- ------------
_CODE                  00000200    00000EDE =        3806. bytes (REL,CON)

        Value  Global            Value  Global            Value  Global    
        -----  ------            -----  ------            -----  ------    
     00000FD0  ___hide_m |    00000FF0  ___move_m |    00001028  ___move_m
     00001064  ___move_m |    000010A0  ___move_m
ASxxxx Linker V03.00 + NoICE + sdld,  page 20.
Hexadecimal  [32-Bits]

Area                       Addr        Size        Decimal Bytes (Attributes)
--------------------       ----        ----        ------- ----- ------------
_HEADER0               00000000    00000001 =           1. bytes (ABS,CON)

        Value  Global            Value  Global            Value  Global    
        -----  ------            -----  ------            -----  ------    
     00000020  .call_hl 
ASxxxx Linker V03.00 + NoICE + sdld,  page 21.
Hexadecimal  [32-Bits]

Area                       Addr        Size        Decimal Bytes (Attributes)
--------------------       ----        ----        ------- ----- ------------
_HEADER1               00000000    00000005 =           5. bytes (ABS,CON)

        Value  Global            Value  Global            Value  Global    
        -----  ------            -----  ------            -----  ------    
     00000028  .MemsetSm
ASxxxx Linker V03.00 + NoICE + sdld,  page 22.
Hexadecimal  [32-Bits]

Area                       Addr        Size        Decimal Bytes (Attributes)
--------------------       ----        ----        ------- ----- ------------
_HEADER2               00000000    00000007 =           7. bytes (ABS,CON)

        Value  Global            Value  Global            Value  Global    
        -----  ------            -----  ------            -----  ------    
     00000030  .MemcpySm
ASxxxx Linker V03.00 + NoICE + sdld,  page 23.
Hexadecimal  [32-Bits]

Area                       Addr        Size        Decimal Bytes (Attributes)
--------------------       ----        ----        ------- ----- ------------
_HEADER3               00000000    00000008 =           8. bytes (ABS,CON)

        Value  Global            Value  Global            Value  Global    
        -----  ------            -----  ------            -----  ------    
ASxxxx Linker V03.00 + NoICE + sdld,  page 24.
Hexadecimal  [32-Bits]

Area                       Addr        Size        Decimal Bytes (Attributes)
--------------------       ----        ----        ------- ----- ------------
_HEADER4               00000000    0000004F =          79. bytes (ABS,CON)

        Value  Global            Value  Global            Value  Global    
        -----  ------            -----  ------            -----  ------    
     00000080  .int      |    0000008F  _wait_int |    0000009C  __standar
     000000AC  _refresh_
ASxxxx Linker V03.00 + NoICE + sdld,  page 25.
Hexadecimal  [32-Bits]

Area                       Addr        Size        Decimal Bytes (Attributes)
--------------------       ----        ----        ------- ----- ------------
_HEADER5               00000000    00000002 =           2. bytes (ABS,CON)

        Value  Global            Value  Global            Value  Global    
        -----  ------            -----  ------            -----  ------    
ASxxxx Linker V03.00 + NoICE + sdld,  page 26.
Hexadecimal  [32-Bits]

Area                       Addr        Size        Decimal Bytes (Attributes)
--------------------       ----        ----        ------- ----- ------------
_HEADER6               00000000    00000030 =          48. bytes (ABS,CON)

        Value  Global            Value  Global            Value  Global    
        -----  ------            -----  ------            -----  ------    
ASxxxx Linker V03.00 + NoICE + sdld,  page 27.
Hexadecimal  [32-Bits]

Area                       Addr        Size        Decimal Bytes (Attributes)
--------------------       ----        ----        ------- ----- ------------
_HEADER7               00000000    00000006 =           6. bytes (ABS,CON)

        Value  Global            Value  Global            Value  Global    
        -----  ------            -----  ------            -----  ------    
ASxxxx Linker V03.00 + NoICE + sdld,  page 28.
Hexadecimal  [32-Bits]

Area                       Addr        Size        Decimal Bytes (Attributes)
--------------------       ----        ----        ------- ----- ------------
_HEADER8               00000000    00000003 =           3. bytes (ABS,CON)

        Value  Global            Value  Global            Value  Global    
        -----  ------            -----  ------            -----  ------    
ASxxxx Linker V03.00 + NoICE + sdld,  page 29.
Hexadecimal  [32-Bits]

Area                       Addr        Size        Decimal Bytes (Attributes)
--------------------       ----        ----        ------- ----- ------------
_HEADER9               00000000    00000001 =           1. bytes (ABS,CON)

        Value  Global            Value  Global            Value  Global    
        -----  ------            -----  ------            -----  ------    
ASxxxx Linker V03.00 + NoICE + sdld,  page 30.
Hexadecimal  [32-Bits]

Area                       Addr        Size        Decimal Bytes (Attributes)
--------------------       ----        ----        ------- ----- ------------
_HEADERa               00000000    00000001 =           1. bytes (ABS,CON)

        Value  Global            Value  Global            Value  Global    
        -----  ------            -----  ------            -----  ------    
ASxxxx Linker V03.00 + NoICE + sdld,  page 31.
Hexadecimal  [32-Bits]

Area                       Addr        Size        Decimal Bytes (Attributes)
--------------------       ----        ----        ------- ----- ------------
_HEADERb               00000000    00000001 =           1. bytes (ABS,CON)

        Value  Global            Value  Global            Value  Global    
        -----  ------            -----  ------            -----  ------    
ASxxxx Linker V03.00 + NoICE + sdld,  page 32.
Hexadecimal  [32-Bits]

Area                       Addr        Size        Decimal Bytes (Attributes)
--------------------       ----        ----        ------- ----- ------------
_HEADERc               00000000    00000002 =           2. bytes (ABS,CON)

        Value  Global            Value  Global            Value  Global    
        -----  ------            -----  ------            -----  ------    
ASxxxx Linker V03.00 + NoICE + sdld,  page 33.
Hexadecimal  [32-Bits]

Area                       Addr        Size        Decimal Bytes (Attributes)
--------------------       ----        ----        ------- ----- ------------
_HEADERd               00000000    00000001 =           1. bytes (ABS,CON)

        Value  Global            Value  Global            Value  Global    
        -----  ------            -----  ------            -----  ------    
ASxxxx Linker V03.00 + NoICE + sdld,  page 34.
Hexadecimal  [32-Bits]

Area                       Addr        Size        Decimal Bytes (Attributes)
--------------------       ----        ----        ------- ----- ------------
_HEADERe               00000000    00000001 =           1. bytes (ABS,CON)

        Value  Global            Value  Global            Value  Global    
        -----  ------            -----  ------            -----  ------    
ASxxxx Linker V03.00 + NoICE + sdld,  page 35.
Hexadecimal  [32-Bits]

Area                       Addr        Size        Decimal Bytes (Attributes)
--------------------       ----        ----        ------- ----- ------------
_HEADERf               00000000    00000002 =           2. bytes (ABS,CON)

        Value  Global            Value  Global            Value  Global    
        -----  ------            -----  ------            -----  ------    
ASxxxx Linker V03.00 + NoICE + sdld,  page 36.
Hexadecimal  [32-Bits]

Area                       Addr        Size        Decimal Bytes (Attributes)
--------------------       ----        ----        ------- ----- ------------
_HEADER10              00000000    00000082 =         130. bytes (ABS,CON)

        Value  Global            Value  Global            Value  Global    
        -----  ------            -----  ------            -----  ------    
     00000150  .reset    |    00000150  _reset    |    00000157  .code_sta
     000001B7  _exit     |    000001BB  _set_inte
ASxxxx Linker V03.00 + NoICE + sdld,  page 37.
Hexadecimal  [32-Bits]

Area                       Addr        Size        Decimal Bytes (Attributes)
--------------------       ----        ----        ------- ----- ------------
_HEADER11              00000000    00000001 =           1. bytes (ABS,CON)

        Value  Global            Value  Global            Value  Global    
        -----  ------            -----  ------            -----  ------    
ASxxxx Linker V03.00 + NoICE + sdld,  page 38.
Hexadecimal  [32-Bits]

Area                       Addr        Size        Decimal Bytes (Attributes)
--------------------       ----        ----        ------- ----- ------------
_HOME                  000010DE    00001580 =        5504. bytes (REL,CON)

        Value  Global            Value  Global            Value  Global    
        -----  ------            -----  ------            -----  ------    
     000010DE  .memset_s |    000010E7  .memcpy_s |    00001104  .remove_V
     00001107  .remove_i |    00001124  .add_VBL  |    00001127  .add_int 
     00001132  .wait_vbl |    00001132  _wait_vbl |    00001142  .display_
     00001142  _display_ |    0000115A  _remove_V |    00001165  _add_VBL 
     00001170  A$lcc8968 |    00001170  C$camera. |    00001170  C$camera.
     00001170  G$set_bkg |    00001170  _set_bkg_ |    00001172  A$lcc8968
     00001173  A$lcc8968 |    00001173  C$camera. |    00001175  A$lcc8968
     00001176  A$lcc8968 |    00001178  A$lcc8968 |    0000117B  A$lcc8968
     0000117B  C$camera. |    0000117C  A$lcc8968 |    0000117D  A$lcc8968
     0000117E  A$lcc8968 |    0000117F  A$lcc8968 |    00001180  A$lcc8968
     00001181  A$lcc8968 |    00001182  A$lcc8968 |    00001183  A$lcc8968
     00001184  A$lcc8968 |    00001185  A$lcc8968 |    00001186  A$lcc8968
     00001187  A$lcc8968 |    00001188  A$lcc8968 |    0000118B  A$lcc8968
     0000118D  A$lcc8968 |    0000118D  C$camera. |    0000118E  A$lcc8968
     00001190  A$lcc8968 |    00001193  A$lcc8968 |    00001194  A$lcc8968
     00001194  C$camera. |    00001194  XG$set_bk |    00001195  A$lcc8968
     00001195  C$camera. |    00001195  C$camera. |    00001195  G$set_bkg
     00001195  _set_bkg_ |    00001197  A$lcc8968 |    00001198  A$lcc8968
     00001198  C$camera. |    0000119A  A$lcc8968 |    0000119B  A$lcc8968
     0000119D  A$lcc8968 |    000011A0  A$lcc8968 |    000011A0  C$camera.
     000011A1  A$lcc8968 |    000011A2  A$lcc8968 |    000011A3  A$lcc8968
     000011A4  A$lcc8968 |    000011A5  A$lcc8968 |    000011A6  A$lcc8968
     000011A7  A$lcc8968 |    000011A8  A$lcc8968 |    000011A9  A$lcc8968
     000011AA  A$lcc8968 |    000011AB  A$lcc8968 |    000011AC  A$lcc8968
     000011AD  A$lcc8968 |    000011AE  A$lcc8968 |    000011AF  A$lcc8968
     000011B0  A$lcc8968 |    000011B1  A$lcc8968 |    000011B2  A$lcc8968
     000011B3  A$lcc8968 |    000011B4  A$lcc8968 |    000011B5  A$lcc8968
     000011B6  A$lcc8968 |    000011B9  A$lcc8968 |    000011BB  A$lcc8968
     000011BC  A$lcc8968 |    000011BC  C$camera. |    000011BD  A$lcc8968
     000011BF  A$lcc8968 |    000011C2  A$lcc8968 |    000011C3  A$lcc8968
     000011C3  C$camera. |    000011C3  XG$set_bk |    000011C4  A$lcc8968
     000011C4  C$scene.c |    000011C4  G$load_sc |    000011C4  _load_sce
     000011C6  A$lcc8968 |    000011C6  C$scene.c |    000011C8  A$lcc8968
     000011CA  A$lcc8968 |    000011CB  A$lcc8968 |    000011CD  A$lcc8968
     000011CD  C$scene.c |    000011CF  A$lcc8968 |    000011D1  A$lcc8968
     000011D2  A$lcc8968 |    000011D2  C$scene.c |    000011D5  A$lcc8968
     000011D7  A$lcc8968 |    000011D7  C$scene.c |    000011D9  A$lcc8968
     000011DA  A$lcc8968 |    000011DC  A$lcc8968 |    000011DD  A$lcc8968
     000011DF  A$lcc8968 |    000011E0  A$lcc8968 |    000011E1  A$lcc8968
     000011E2  A$lcc8968 |    000011E4  A$lcc8968 |    000011E5  A$lcc8968
     000011E7  A$lcc8968 |    000011E8  A$lcc8968 |    000011EA  A$lcc8968
     000011EB  A$lcc8968 |    000011EC  A$lcc8968 |    000011EF  A$lcc8968
     000011EF  C$scene.c |    000011F0  A$lcc8968 |    000011F1  A$lcc8968
     000011F2  A$lcc8968 |    000011F3  A$lcc8968 |    000011F4  A$lcc8968
     000011F7  A$lcc8968 |    000011F8  A$lcc8968 |    000011F9  A$lcc8968
     000011FA  A$lcc8968 |    000011FC  A$lcc8968 |    000011FD  A$lcc8968
     000011FE  A$lcc8968 |    000011FF  A$lcc8968 |    00001201  A$lcc8968
     00001202  A$lcc8968 |    00001205  A$lcc8968 |    00001206  A$lcc8968
     00001207  A$lcc8968 |    00001209  A$lcc8968 |    0000120A  A$lcc8968
     0000120C  A$lcc8968 |    0000120D  A$lcc8968 |    0000120E  A$lcc8968
ASxxxx Linker V03.00 + NoICE + sdld,  page 39.
Hexadecimal  [32-Bits]

Area                       Addr        Size        Decimal Bytes (Attributes)
--------------------       ----        ----        ------- ----- ------------
_HOME                  000010DE    00001580 =        5504. bytes (REL,CON)

        Value  Global            Value  Global            Value  Global    
        -----  ------            -----  ------            -----  ------    
     0000120F  A$lcc8968 |    00001210  A$lcc8968 |    00001211  A$lcc8968
     00001212  A$lcc8968 |    00001212  C$scene.c |    00001214  A$lcc8968
     00001215  A$lcc8968 |    00001216  A$lcc8968 |    00001217  A$lcc8968
     0000121A  A$lcc8968 |    0000121B  A$lcc8968 |    0000121C  A$lcc8968
     0000121D  A$lcc8968 |    00001220  A$lcc8968 |    00001221  A$lcc8968
     00001222  A$lcc8968 |    00001223  A$lcc8968 |    00001223  C$scene.c
     00001225  A$lcc8968 |    00001226  A$lcc8968 |    00001227  A$lcc8968
     00001228  A$lcc8968 |    0000122B  A$lcc8968 |    0000122C  A$lcc8968
     0000122D  A$lcc8968 |    0000122E  A$lcc8968 |    00001230  A$lcc8968
     00001231  A$lcc8968 |    00001232  A$lcc8968 |    00001233  A$lcc8968
     00001235  A$lcc8968 |    00001236  A$lcc8968 |    00001239  A$lcc8968
     0000123A  A$lcc8968 |    0000123B  A$lcc8968 |    0000123D  A$lcc8968
     0000123E  A$lcc8968 |    0000123F  A$lcc8968 |    00001240  A$lcc8968
     00001241  A$lcc8968 |    00001242  A$lcc8968 |    00001243  A$lcc8968
     00001243  C$scene.c |    00001245  A$lcc8968 |    00001246  A$lcc8968
     00001247  A$lcc8968 |    00001248  A$lcc8968 |    0000124B  A$lcc8968
     0000124C  A$lcc8968 |    0000124D  A$lcc8968 |    0000124E  A$lcc8968
     00001250  A$lcc8968 |    00001251  A$lcc8968 |    00001252  A$lcc8968
     00001253  A$lcc8968 |    00001255  A$lcc8968 |    00001256  A$lcc8968
     00001259  A$lcc8968 |    0000125A  A$lcc8968 |    0000125B  A$lcc8968
     0000125C  A$lcc8968 |    0000125E  A$lcc8968 |    0000125F  A$lcc8968
     00001260  A$lcc8968 |    00001261  A$lcc8968 |    00001263  A$lcc8968
     00001264  A$lcc8968 |    00001265  A$lcc8968 |    00001266  A$lcc8968
     00001267  A$lcc8968 |    00001268  A$lcc8968 |    0000126A  A$lcc8968
     0000126B  A$lcc8968 |    0000126C  A$lcc8968 |    0000126D  A$lcc8968
     0000126E  A$lcc8968 |    0000126F  A$lcc8968 |    00001270  A$lcc8968
     00001270  C$scene.c |    00001272  A$lcc8968 |    00001273  A$lcc8968
     00001274  A$lcc8968 |    00001275  A$lcc8968 |    00001278  A$lcc8968
     00001279  A$lcc8968 |    0000127A  A$lcc8968 |    0000127B  A$lcc8968
     0000127D  A$lcc8968 |    0000127E  A$lcc8968 |    0000127F  A$lcc8968
     00001280  A$lcc8968 |    00001282  A$lcc8968 |    00001283  A$lcc8968
     00001286  A$lcc8968 |    00001287  A$lcc8968 |    00001288  A$lcc8968
     00001289  A$lcc8968 |    0000128A  A$lcc8968 |    0000128C  A$lcc8968
     0000128D  A$lcc8968 |    0000128E  A$lcc8968 |    0000128F  A$lcc8968
     00001290  A$lcc8968 |    00001292  A$lcc8968 |    00001293  A$lcc8968
     00001294  A$lcc8968 |    00001295  A$lcc8968 |    00001296  A$lcc8968
     00001297  A$lcc8968 |    00001298  A$lcc8968 |    00001299  A$lcc8968
     0000129A  A$lcc8968 |    0000129B  A$lcc8968 |    0000129B  C$scene.c
     0000129D  A$lcc8968 |    0000129E  A$lcc8968 |    0000129F  A$lcc8968
     000012A1  A$lcc8968 |    000012A2  A$lcc8968 |    000012A3  A$lcc8968
     000012A4  A$lcc8968 |    000012A5  A$lcc8968 |    000012A8  A$lcc8968
     000012A8  C$scene.c |    000012AA  A$lcc8968 |    000012AB  A$lcc8968
     000012AC  A$lcc8968 |    000012AD  A$lcc8968 |    000012AE  A$lcc8968
     000012B0  A$lcc8968 |    000012B0  C$scene.c |    000012B1  A$lcc8968
     000012B2  A$lcc8968 |    000012B3  A$lcc8968 |    000012B4  A$lcc8968
     000012B7  A$lcc8968 |    000012B8  A$lcc8968 |    000012B9  A$lcc8968
     000012BA  A$lcc8968 |    000012BC  A$lcc8968 |    000012BD  A$lcc8968
     000012BE  A$lcc8968 |    000012BF  A$lcc8968 |    000012C1  A$lcc8968
     000012C2  A$lcc8968 |    000012C2  C$scene.c |    000012C4  A$lcc8968
     000012C5  A$lcc8968 |    000012C6  A$lcc8968 |    000012C8  A$lcc8968
     000012C8  C$scene.c |    000012CA  A$lcc8968 |    000012CB  A$lcc8968
ASxxxx Linker V03.00 + NoICE + sdld,  page 40.
Hexadecimal  [32-Bits]

Area                       Addr        Size        Decimal Bytes (Attributes)
--------------------       ----        ----        ------- ----- ------------
_HOME                  000010DE    00001580 =        5504. bytes (REL,CON)

        Value  Global            Value  Global            Value  Global    
        -----  ------            -----  ------            -----  ------    
     000012CC  A$lcc8968 |    000012CD  A$lcc8968 |    000012CE  A$lcc8968
     000012D0  A$lcc8968 |    000012D1  A$lcc8968 |    000012D4  A$lcc8968
     000012D6  A$lcc8968 |    000012D7  A$lcc8968 |    000012DA  A$lcc8968
     000012DA  C$scene.c |    000012DC  A$lcc8968 |    000012DD  A$lcc8968
     000012DE  A$lcc8968 |    000012DF  A$lcc8968 |    000012E2  A$lcc8968
     000012E3  A$lcc8968 |    000012E5  A$lcc8968 |    000012E5  C$scene.c
     000012E7  A$lcc8968 |    000012E8  A$lcc8968 |    000012E9  A$lcc8968
     000012EB  A$lcc8968 |    000012EB  C$scene.c |    000012ED  A$lcc8968
     000012EE  A$lcc8968 |    000012EF  A$lcc8968 |    000012F0  A$lcc8968
     000012F3  A$lcc8968 |    000012F4  A$lcc8968 |    000012F4  C$scene.c
     000012F6  A$lcc8968 |    000012F7  A$lcc8968 |    000012F8  A$lcc8968
     000012F9  A$lcc8968 |    000012FA  A$lcc8968 |    000012FB  A$lcc8968
     000012FC  A$lcc8968 |    000012FD  A$lcc8968 |    000012FE  A$lcc8968
     000012FF  A$lcc8968 |    00001301  A$lcc8968 |    00001302  A$lcc8968
     00001303  A$lcc8968 |    00001304  A$lcc8968 |    00001305  A$lcc8968
     00001307  A$lcc8968 |    00001308  A$lcc8968 |    00001309  A$lcc8968
     0000130A  A$lcc8968 |    0000130B  A$lcc8968 |    0000130C  A$lcc8968
     0000130D  A$lcc8968 |    00001310  A$lcc8968 |    00001311  A$lcc8968
     00001312  A$lcc8968 |    00001315  A$lcc8968 |    00001317  A$lcc8968
     00001317  C$scene.c |    00001319  A$lcc8968 |    0000131A  A$lcc8968
     0000131C  A$lcc8968 |    0000131F  A$lcc8968 |    00001320  A$lcc8968
     00001321  A$lcc8968 |    00001321  C$scene.c |    00001322  A$lcc8968
     00001323  A$lcc8968 |    00001324  A$lcc8968 |    00001326  A$lcc8968
     00001327  A$lcc8968 |    00001328  A$lcc8968 |    00001329  A$lcc8968
     0000132A  A$lcc8968 |    0000132B  A$lcc8968 |    0000132C  A$lcc8968
     0000132D  A$lcc8968 |    0000132F  A$lcc8968 |    00001330  A$lcc8968
     00001331  A$lcc8968 |    00001332  A$lcc8968 |    00001332  C$scene.c
     00001333  A$lcc8968 |    00001334  A$lcc8968 |    00001335  A$lcc8968
     00001336  A$lcc8968 |    00001337  A$lcc8968 |    0000133A  A$lcc8968
     0000133B  A$lcc8968 |    0000133C  A$lcc8968 |    0000133D  A$lcc8968
     0000133F  A$lcc8968 |    00001340  A$lcc8968 |    00001341  A$lcc8968
     00001342  A$lcc8968 |    00001344  A$lcc8968 |    00001345  A$lcc8968
     00001346  A$lcc8968 |    00001347  A$lcc8968 |    00001348  A$lcc8968
     00001349  A$lcc8968 |    0000134A  A$lcc8968 |    0000134B  A$lcc8968
     0000134C  A$lcc8968 |    0000134E  A$lcc8968 |    0000134F  A$lcc8968
     00001350  A$lcc8968 |    00001351  A$lcc8968 |    00001352  A$lcc8968
     00001354  A$lcc8968 |    00001355  A$lcc8968 |    00001356  A$lcc8968
     00001357  A$lcc8968 |    00001358  A$lcc8968 |    00001359  A$lcc8968
     0000135A  A$lcc8968 |    0000135B  A$lcc8968 |    0000135B  C$scene.c
     0000135C  A$lcc8968 |    0000135D  A$lcc8968 |    0000135E  A$lcc8968
     0000135F  A$lcc8968 |    00001360  A$lcc8968 |    00001363  A$lcc8968
     00001364  A$lcc8968 |    00001365  A$lcc8968 |    00001366  A$lcc8968
     00001368  A$lcc8968 |    00001369  A$lcc8968 |    0000136A  A$lcc8968
     0000136B  A$lcc8968 |    0000136D  A$lcc8968 |    0000136E  A$lcc8968
     00001371  A$lcc8968 |    00001372  A$lcc8968 |    00001373  A$lcc8968
     00001374  A$lcc8968 |    00001375  A$lcc8968 |    00001377  A$lcc8968
     00001378  A$lcc8968 |    00001379  A$lcc8968 |    0000137A  A$lcc8968
     0000137B  A$lcc8968 |    0000137D  A$lcc8968 |    0000137E  A$lcc8968
     0000137F  A$lcc8968 |    00001380  A$lcc8968 |    00001381  A$lcc8968
     00001382  A$lcc8968 |    00001383  A$lcc8968 |    00001384  A$lcc8968
     00001384  C$scene.c |    00001385  A$lcc8968 |    00001386  A$lcc8968
ASxxxx Linker V03.00 + NoICE + sdld,  page 41.
Hexadecimal  [32-Bits]

Area                       Addr        Size        Decimal Bytes (Attributes)
--------------------       ----        ----        ------- ----- ------------
_HOME                  000010DE    00001580 =        5504. bytes (REL,CON)

        Value  Global            Value  Global            Value  Global    
        -----  ------            -----  ------            -----  ------    
     00001387  A$lcc8968 |    00001388  A$lcc8968 |    00001389  A$lcc8968
     0000138C  A$lcc8968 |    0000138D  A$lcc8968 |    0000138E  A$lcc8968
     0000138F  A$lcc8968 |    00001391  A$lcc8968 |    00001392  A$lcc8968
     00001393  A$lcc8968 |    00001394  A$lcc8968 |    00001396  A$lcc8968
     00001397  A$lcc8968 |    0000139A  A$lcc8968 |    0000139B  A$lcc8968
     0000139C  A$lcc8968 |    0000139D  A$lcc8968 |    0000139E  A$lcc8968
     000013A0  A$lcc8968 |    000013A1  A$lcc8968 |    000013A2  A$lcc8968
     000013A3  A$lcc8968 |    000013A4  A$lcc8968 |    000013A6  A$lcc8968
     000013A7  A$lcc8968 |    000013A8  A$lcc8968 |    000013A9  A$lcc8968
     000013AA  A$lcc8968 |    000013AB  A$lcc8968 |    000013AC  A$lcc8968
     000013AD  A$lcc8968 |    000013AD  C$scene.c |    000013AE  A$lcc8968
     000013AF  A$lcc8968 |    000013B0  A$lcc8968 |    000013B1  A$lcc8968
     000013B2  A$lcc8968 |    000013B5  A$lcc8968 |    000013B6  A$lcc8968
     000013B7  A$lcc8968 |    000013B8  A$lcc8968 |    000013BB  A$lcc8968
     000013BC  A$lcc8968 |    000013BD  A$lcc8968 |    000013BE  A$lcc8968
     000013BE  C$scene.c |    000013C0  A$lcc8968 |    000013C1  A$lcc8968
     000013C2  A$lcc8968 |    000013C3  A$lcc8968 |    000013C6  A$lcc8968
     000013C7  A$lcc8968 |    000013C8  A$lcc8968 |    000013C9  A$lcc8968
     000013CC  A$lcc8968 |    000013CD  A$lcc8968 |    000013CE  A$lcc8968
     000013CF  A$lcc8968 |    000013CF  C$scene.c |    000013D1  A$lcc8968
     000013D2  A$lcc8968 |    000013D3  A$lcc8968 |    000013D4  A$lcc8968
     000013D7  A$lcc8968 |    000013D8  A$lcc8968 |    000013D9  A$lcc8968
     000013DA  A$lcc8968 |    000013DD  A$lcc8968 |    000013DE  A$lcc8968
     000013DF  A$lcc8968 |    000013E0  A$lcc8968 |    000013E0  C$scene.c
     000013E2  A$lcc8968 |    000013E3  A$lcc8968 |    000013E4  A$lcc8968
     000013E5  A$lcc8968 |    000013E8  A$lcc8968 |    000013E9  A$lcc8968
     000013EA  A$lcc8968 |    000013EB  A$lcc8968 |    000013EE  A$lcc8968
     000013EF  A$lcc8968 |    000013F0  A$lcc8968 |    000013F1  A$lcc8968
     000013F1  C$scene.c |    000013F3  A$lcc8968 |    000013F4  A$lcc8968
     000013F5  A$lcc8968 |    000013F6  A$lcc8968 |    000013F9  A$lcc8968
     000013FA  A$lcc8968 |    000013FB  A$lcc8968 |    000013FC  A$lcc8968
     000013FF  A$lcc8968 |    00001400  A$lcc8968 |    00001401  A$lcc8968
     00001402  A$lcc8968 |    00001402  C$scene.c |    00001404  A$lcc8968
     00001405  A$lcc8968 |    00001406  A$lcc8968 |    00001407  A$lcc8968
     0000140A  A$lcc8968 |    0000140B  A$lcc8968 |    0000140C  A$lcc8968
     0000140D  A$lcc8968 |    00001410  A$lcc8968 |    00001411  A$lcc8968
     00001412  A$lcc8968 |    00001413  A$lcc8968 |    00001413  C$scene.c
     00001415  A$lcc8968 |    00001416  A$lcc8968 |    00001417  A$lcc8968
     00001418  A$lcc8968 |    0000141B  A$lcc8968 |    0000141C  A$lcc8968
     0000141D  A$lcc8968 |    0000141E  A$lcc8968 |    00001421  A$lcc8968
     00001422  A$lcc8968 |    00001423  A$lcc8968 |    00001424  A$lcc8968
     00001424  C$scene.c |    00001426  A$lcc8968 |    00001427  A$lcc8968
     00001428  A$lcc8968 |    00001429  A$lcc8968 |    0000142C  A$lcc8968
     0000142D  A$lcc8968 |    0000142E  A$lcc8968 |    0000142F  A$lcc8968
     00001431  A$lcc8968 |    00001432  A$lcc8968 |    00001433  A$lcc8968
     00001434  A$lcc8968 |    00001436  A$lcc8968 |    00001437  A$lcc8968
     00001438  A$lcc8968 |    00001439  A$lcc8968 |    0000143A  A$lcc8968
     0000143D  A$lcc8968 |    0000143E  A$lcc8968 |    0000143F  A$lcc8968
     00001440  A$lcc8968 |    00001443  A$lcc8968 |    00001444  A$lcc8968
     00001445  A$lcc8968 |    00001446  A$lcc8968 |    00001448  A$lcc8968
     00001449  A$lcc8968 |    0000144A  A$lcc8968 |    0000144B  A$lcc8968
ASxxxx Linker V03.00 + NoICE + sdld,  page 42.
Hexadecimal  [32-Bits]

Area                       Addr        Size        Decimal Bytes (Attributes)
--------------------       ----        ----        ------- ----- ------------
_HOME                  000010DE    00001580 =        5504. bytes (REL,CON)

        Value  Global            Value  Global            Value  Global    
        -----  ------            -----  ------            -----  ------    
     0000144C  A$lcc8968 |    0000144D  A$lcc8968 |    0000144E  A$lcc8968
     0000144E  C$scene.c |    00001450  A$lcc8968 |    00001451  A$lcc8968
     00001452  A$lcc8968 |    00001453  A$lcc8968 |    00001456  A$lcc8968
     00001457  A$lcc8968 |    00001458  A$lcc8968 |    00001459  A$lcc8968
     0000145C  A$lcc8968 |    0000145D  A$lcc8968 |    0000145E  A$lcc8968
     0000145F  A$lcc8968 |    0000145F  C$scene.c |    00001461  A$lcc8968
     00001462  A$lcc8968 |    00001463  A$lcc8968 |    00001464  A$lcc8968
     00001467  A$lcc8968 |    00001468  A$lcc8968 |    00001469  A$lcc8968
     0000146A  A$lcc8968 |    0000146D  A$lcc8968 |    0000146E  A$lcc8968
     0000146F  A$lcc8968 |    00001470  A$lcc8968 |    00001470  C$scene.c
     00001472  A$lcc8968 |    00001473  A$lcc8968 |    00001474  A$lcc8968
     00001475  A$lcc8968 |    00001478  A$lcc8968 |    00001479  A$lcc8968
     0000147A  A$lcc8968 |    0000147B  A$lcc8968 |    0000147E  A$lcc8968
     0000147F  A$lcc8968 |    00001480  A$lcc8968 |    00001481  A$lcc8968
     00001481  C$scene.c |    00001483  A$lcc8968 |    00001484  A$lcc8968
     00001485  A$lcc8968 |    00001486  A$lcc8968 |    00001489  A$lcc8968
     0000148A  A$lcc8968 |    0000148B  A$lcc8968 |    0000148C  A$lcc8968
     0000148F  A$lcc8968 |    00001490  A$lcc8968 |    00001491  A$lcc8968
     00001492  A$lcc8968 |    00001492  C$scene.c |    00001495  A$lcc8968
     00001496  A$lcc8968 |    00001497  A$lcc8968 |    00001498  A$lcc8968
     0000149A  A$lcc8968 |    0000149B  A$lcc8968 |    0000149C  A$lcc8968
     0000149D  A$lcc8968 |    0000149E  A$lcc8968 |    0000149F  A$lcc8968
     000014A0  A$lcc8968 |    000014A3  A$lcc8968 |    000014A4  A$lcc8968
     000014A5  A$lcc8968 |    000014A6  A$lcc8968 |    000014A9  A$lcc8968
     000014AA  A$lcc8968 |    000014AC  A$lcc8968 |    000014AD  A$lcc8968
     000014AE  A$lcc8968 |    000014AF  A$lcc8968 |    000014B0  A$lcc8968
     000014B1  A$lcc8968 |    000014B4  A$lcc8968 |    000014B6  A$lcc8968
     000014B6  C$scene.c |    000014B9  A$lcc8968 |    000014BA  A$lcc8968
     000014BB  A$lcc8968 |    000014BC  A$lcc8968 |    000014BE  A$lcc8968
     000014BF  A$lcc8968 |    000014C0  A$lcc8968 |    000014C1  A$lcc8968
     000014C2  A$lcc8968 |    000014C3  A$lcc8968 |    000014C4  A$lcc8968
     000014C7  A$lcc8968 |    000014C8  A$lcc8968 |    000014C9  A$lcc8968
     000014CA  A$lcc8968 |    000014CD  A$lcc8968 |    000014CE  A$lcc8968
     000014D0  A$lcc8968 |    000014D1  A$lcc8968 |    000014D2  A$lcc8968
     000014D3  A$lcc8968 |    000014D4  A$lcc8968 |    000014D5  A$lcc8968
     000014D8  A$lcc8968 |    000014DA  A$lcc8968 |    000014DA  C$scene.c
     000014DC  A$lcc8968 |    000014DD  A$lcc8968 |    000014DE  A$lcc8968
     000014DF  A$lcc8968 |    000014E2  A$lcc8968 |    000014E3  A$lcc8968
     000014E4  A$lcc8968 |    000014E5  A$lcc8968 |    000014E8  A$lcc8968
     000014E9  A$lcc8968 |    000014EA  A$lcc8968 |    000014EB  A$lcc8968
     000014EB  C$scene.c |    000014ED  A$lcc8968 |    000014EE  A$lcc8968
     000014EF  A$lcc8968 |    000014F0  A$lcc8968 |    000014F3  A$lcc8968
     000014F4  A$lcc8968 |    000014F5  A$lcc8968 |    000014F6  A$lcc8968
     000014F9  A$lcc8968 |    000014FA  A$lcc8968 |    000014FB  A$lcc8968
     000014FC  A$lcc8968 |    000014FC  C$scene.c |    000014FE  A$lcc8968
     000014FF  A$lcc8968 |    00001500  A$lcc8968 |    00001501  A$lcc8968
     00001504  A$lcc8968 |    00001505  A$lcc8968 |    00001506  A$lcc8968
     00001507  A$lcc8968 |    0000150A  A$lcc8968 |    0000150B  A$lcc8968
     0000150C  A$lcc8968 |    0000150D  A$lcc8968 |    0000150D  C$scene.c
     0000150F  A$lcc8968 |    00001510  A$lcc8968 |    00001511  A$lcc8968
     00001512  A$lcc8968 |    00001515  A$lcc8968 |    00001516  A$lcc8968
ASxxxx Linker V03.00 + NoICE + sdld,  page 43.
Hexadecimal  [32-Bits]

Area                       Addr        Size        Decimal Bytes (Attributes)
--------------------       ----        ----        ------- ----- ------------
_HOME                  000010DE    00001580 =        5504. bytes (REL,CON)

        Value  Global            Value  Global            Value  Global    
        -----  ------            -----  ------            -----  ------    
     00001517  A$lcc8968 |    00001518  A$lcc8968 |    0000151B  A$lcc8968
     0000151C  A$lcc8968 |    0000151D  A$lcc8968 |    0000151E  A$lcc8968
     0000151E  C$scene.c |    00001520  A$lcc8968 |    00001521  A$lcc8968
     00001522  A$lcc8968 |    00001523  A$lcc8968 |    00001524  A$lcc8968
     00001527  A$lcc8968 |    00001528  A$lcc8968 |    00001529  A$lcc8968
     00001529  C$scene.c |    0000152B  A$lcc8968 |    0000152C  A$lcc8968
     0000152D  A$lcc8968 |    0000152E  A$lcc8968 |    00001531  A$lcc8968
     00001532  A$lcc8968 |    00001533  A$lcc8968 |    00001534  A$lcc8968
     00001536  A$lcc8968 |    00001537  A$lcc8968 |    00001538  A$lcc8968
     00001539  A$lcc8968 |    0000153B  A$lcc8968 |    0000153C  A$lcc8968
     0000153C  C$scene.c |    0000153F  A$lcc8968 |    00001540  A$lcc8968
     00001541  A$lcc8968 |    00001542  A$lcc8968 |    00001542  C$scene.c
     00001544  A$lcc8968 |    00001545  A$lcc8968 |    00001548  A$lcc8968
     00001548  C$scene.c |    0000154A  A$lcc8968 |    0000154B  A$lcc8968
     0000154E  A$lcc8968 |    0000154E  C$scene.c |    00001551  A$lcc8968
     00001552  A$lcc8968 |    00001554  A$lcc8968 |    00001554  C$scene.c
     00001554  XG$load_s |    00001555  A$lcc8968 |    00001555  C$scene.c
     00001555  G$load_bu |    00001555  _load_bul |    00001557  A$lcc8968
     00001557  C$scene.c |    00001559  A$lcc8968 |    0000155A  A$lcc8968
     0000155B  A$lcc8968 |    0000155B  C$scene.c |    0000155E  A$lcc8968
     0000155E  C$scene.c |    00001560  A$lcc8968 |    00001562  A$lcc8968
     00001563  A$lcc8968 |    00001565  A$lcc8968 |    00001565  C$scene.c
     00001567  A$lcc8968 |    00001569  A$lcc8968 |    0000156A  A$lcc8968
     0000156A  C$scene.c |    0000156C  A$lcc8968 |    0000156D  A$lcc8968
     0000156F  A$lcc8968 |    00001570  A$lcc8968 |    00001572  A$lcc8968
     00001573  A$lcc8968 |    00001575  A$lcc8968 |    00001576  A$lcc8968
     00001578  A$lcc8968 |    00001579  A$lcc8968 |    0000157B  A$lcc8968
     0000157C  A$lcc8968 |    0000157E  A$lcc8968 |    0000157F  A$lcc8968
     00001580  A$lcc8968 |    00001583  A$lcc8968 |    00001583  C$scene.c
     00001584  A$lcc8968 |    00001585  A$lcc8968 |    00001586  A$lcc8968
     00001587  A$lcc8968 |    00001588  A$lcc8968 |    0000158B  A$lcc8968
     0000158C  A$lcc8968 |    0000158D  A$lcc8968 |    0000158E  A$lcc8968
     00001590  A$lcc8968 |    00001591  A$lcc8968 |    00001592  A$lcc8968
     00001592  C$scene.c |    00001594  A$lcc8968 |    00001595  A$lcc8968
     00001596  A$lcc8968 |    00001597  A$lcc8968 |    0000159A  A$lcc8968
     0000159B  A$lcc8968 |    0000159C  A$lcc8968 |    0000159D  A$lcc8968
     0000159F  A$lcc8968 |    000015A0  A$lcc8968 |    000015A1  A$lcc8968
     000015A2  A$lcc8968 |    000015A4  A$lcc8968 |    000015A5  A$lcc8968
     000015A7  A$lcc8968 |    000015A8  A$lcc8968 |    000015A9  A$lcc8968
     000015AA  A$lcc8968 |    000015AD  A$lcc8968 |    000015AE  A$lcc8968
     000015AF  A$lcc8968 |    000015B0  A$lcc8968 |    000015B1  A$lcc8968
     000015B3  A$lcc8968 |    000015B4  A$lcc8968 |    000015B5  A$lcc8968
     000015B6  A$lcc8968 |    000015B7  A$lcc8968 |    000015B8  A$lcc8968
     000015B9  A$lcc8968 |    000015BA  A$lcc8968 |    000015BB  A$lcc8968
     000015BB  C$scene.c |    000015BD  A$lcc8968 |    000015BE  A$lcc8968
     000015BF  A$lcc8968 |    000015C0  A$lcc8968 |    000015C3  A$lcc8968
     000015C4  A$lcc8968 |    000015C5  A$lcc8968 |    000015C6  A$lcc8968
     000015C8  A$lcc8968 |    000015C9  A$lcc8968 |    000015CA  A$lcc8968
     000015CB  A$lcc8968 |    000015CD  A$lcc8968 |    000015CE  A$lcc8968
     000015D0  A$lcc8968 |    000015D1  A$lcc8968 |    000015D2  A$lcc8968
     000015D3  A$lcc8968 |    000015D6  A$lcc8968 |    000015D7  A$lcc8968
ASxxxx Linker V03.00 + NoICE + sdld,  page 44.
Hexadecimal  [32-Bits]

Area                       Addr        Size        Decimal Bytes (Attributes)
--------------------       ----        ----        ------- ----- ------------
_HOME                  000010DE    00001580 =        5504. bytes (REL,CON)

        Value  Global            Value  Global            Value  Global    
        -----  ------            -----  ------            -----  ------    
     000015D8  A$lcc8968 |    000015D9  A$lcc8968 |    000015DB  A$lcc8968
     000015DC  A$lcc8968 |    000015DD  A$lcc8968 |    000015DE  A$lcc8968
     000015E0  A$lcc8968 |    000015E1  A$lcc8968 |    000015E2  A$lcc8968
     000015E3  A$lcc8968 |    000015E4  A$lcc8968 |    000015E5  A$lcc8968
     000015E6  A$lcc8968 |    000015E8  A$lcc8968 |    000015E9  A$lcc8968
     000015EA  A$lcc8968 |    000015EB  A$lcc8968 |    000015EC  A$lcc8968
     000015EC  C$scene.c |    000015EE  A$lcc8968 |    000015EF  A$lcc8968
     000015F0  A$lcc8968 |    000015F1  A$lcc8968 |    000015F4  A$lcc8968
     000015F5  A$lcc8968 |    000015F6  A$lcc8968 |    000015F7  A$lcc8968
     000015F9  A$lcc8968 |    000015FA  A$lcc8968 |    000015FB  A$lcc8968
     000015FC  A$lcc8968 |    000015FE  A$lcc8968 |    000015FF  A$lcc8968
     00001601  A$lcc8968 |    00001602  A$lcc8968 |    00001603  A$lcc8968
     00001604  A$lcc8968 |    00001607  A$lcc8968 |    00001608  A$lcc8968
     00001609  A$lcc8968 |    0000160A  A$lcc8968 |    0000160B  A$lcc8968
     0000160D  A$lcc8968 |    0000160E  A$lcc8968 |    0000160F  A$lcc8968
     00001610  A$lcc8968 |    00001611  A$lcc8968 |    00001612  A$lcc8968
     00001613  A$lcc8968 |    00001613  C$scene.c |    00001615  A$lcc8968
     00001616  A$lcc8968 |    00001617  A$lcc8968 |    00001619  A$lcc8968
     0000161A  A$lcc8968 |    0000161B  A$lcc8968 |    0000161C  A$lcc8968
     0000161D  A$lcc8968 |    00001620  A$lcc8968 |    00001620  C$scene.c
     00001622  A$lcc8968 |    00001623  A$lcc8968 |    00001624  A$lcc8968
     00001625  A$lcc8968 |    00001626  A$lcc8968 |    00001627  A$lcc8968
     00001628  A$lcc8968 |    00001629  A$lcc8968 |    0000162A  A$lcc8968
     0000162C  A$lcc8968 |    0000162D  A$lcc8968 |    0000162E  A$lcc8968
     0000162F  A$lcc8968 |    00001630  A$lcc8968 |    00001631  A$lcc8968
     00001632  A$lcc8968 |    00001633  A$lcc8968 |    00001635  A$lcc8968
     00001636  A$lcc8968 |    00001637  A$lcc8968 |    00001638  A$lcc8968
     0000163B  A$lcc8968 |    0000163D  A$lcc8968 |    0000163D  C$scene.c
     0000163F  A$lcc8968 |    00001640  A$lcc8968 |    00001642  A$lcc8968
     00001645  A$lcc8968 |    00001646  A$lcc8968 |    00001647  A$lcc8968
     00001647  C$scene.c |    00001649  A$lcc8968 |    0000164A  A$lcc8968
     0000164B  A$lcc8968 |    0000164C  A$lcc8968 |    0000164D  A$lcc8968
     0000164E  A$lcc8968 |    00001650  A$lcc8968 |    00001651  A$lcc8968
     00001652  A$lcc8968 |    00001653  A$lcc8968 |    00001654  A$lcc8968
     00001654  C$scene.c |    00001656  A$lcc8968 |    00001657  A$lcc8968
     00001658  A$lcc8968 |    00001659  A$lcc8968 |    0000165A  A$lcc8968
     0000165B  A$lcc8968 |    0000165C  A$lcc8968 |    0000165D  A$lcc8968
     0000165E  A$lcc8968 |    00001660  A$lcc8968 |    00001661  A$lcc8968
     00001662  A$lcc8968 |    00001663  A$lcc8968 |    00001664  A$lcc8968
     00001665  A$lcc8968 |    00001666  A$lcc8968 |    00001666  C$scene.c
     00001668  A$lcc8968 |    00001669  A$lcc8968 |    0000166A  A$lcc8968
     0000166B  A$lcc8968 |    0000166C  A$lcc8968 |    0000166D  A$lcc8968
     0000166E  A$lcc8968 |    0000166F  A$lcc8968 |    00001670  A$lcc8968
     00001671  A$lcc8968 |    00001672  A$lcc8968 |    00001673  A$lcc8968
     00001674  A$lcc8968 |    00001675  A$lcc8968 |    00001676  A$lcc8968
     00001677  A$lcc8968 |    00001679  A$lcc8968 |    0000167A  A$lcc8968
     0000167B  A$lcc8968 |    0000167C  A$lcc8968 |    0000167D  A$lcc8968
     0000167F  A$lcc8968 |    00001680  A$lcc8968 |    00001681  A$lcc8968
     00001682  A$lcc8968 |    00001682  C$scene.c |    00001683  A$lcc8968
     00001684  A$lcc8968 |    00001685  A$lcc8968 |    00001686  A$lcc8968
     00001687  A$lcc8968 |    0000168A  A$lcc8968 |    0000168B  A$lcc8968
ASxxxx Linker V03.00 + NoICE + sdld,  page 45.
Hexadecimal  [32-Bits]

Area                       Addr        Size        Decimal Bytes (Attributes)
--------------------       ----        ----        ------- ----- ------------
_HOME                  000010DE    00001580 =        5504. bytes (REL,CON)

        Value  Global            Value  Global            Value  Global    
        -----  ------            -----  ------            -----  ------    
     0000168C  A$lcc8968 |    0000168D  A$lcc8968 |    0000168F  A$lcc8968
     00001690  A$lcc8968 |    00001691  A$lcc8968 |    00001692  A$lcc8968
     00001694  A$lcc8968 |    00001695  A$lcc8968 |    00001697  A$lcc8968
     00001698  A$lcc8968 |    00001699  A$lcc8968 |    0000169A  A$lcc8968
     0000169D  A$lcc8968 |    0000169E  A$lcc8968 |    0000169F  A$lcc8968
     000016A0  A$lcc8968 |    000016A1  A$lcc8968 |    000016A3  A$lcc8968
     000016A4  A$lcc8968 |    000016A5  A$lcc8968 |    000016A6  A$lcc8968
     000016A7  A$lcc8968 |    000016A8  A$lcc8968 |    000016A9  A$lcc8968
     000016A9  C$scene.c |    000016AB  A$lcc8968 |    000016AC  A$lcc8968
     000016AD  A$lcc8968 |    000016AE  A$lcc8968 |    000016B1  A$lcc8968
     000016B2  A$lcc8968 |    000016B3  A$lcc8968 |    000016B4  A$lcc8968
     000016B6  A$lcc8968 |    000016B7  A$lcc8968 |    000016B8  A$lcc8968
     000016B9  A$lcc8968 |    000016BB  A$lcc8968 |    000016BC  A$lcc8968
     000016BE  A$lcc8968 |    000016BF  A$lcc8968 |    000016C0  A$lcc8968
     000016C1  A$lcc8968 |    000016C4  A$lcc8968 |    000016C5  A$lcc8968
     000016C6  A$lcc8968 |    000016C7  A$lcc8968 |    000016C8  A$lcc8968
     000016CA  A$lcc8968 |    000016CB  A$lcc8968 |    000016CC  A$lcc8968
     000016CD  A$lcc8968 |    000016CE  A$lcc8968 |    000016CF  A$lcc8968
     000016D0  A$lcc8968 |    000016D0  C$scene.c |    000016D2  A$lcc8968
     000016D3  A$lcc8968 |    000016D4  A$lcc8968 |    000016D5  A$lcc8968
     000016D8  A$lcc8968 |    000016D9  A$lcc8968 |    000016DA  A$lcc8968
     000016DB  A$lcc8968 |    000016DD  A$lcc8968 |    000016DE  A$lcc8968
     000016DF  A$lcc8968 |    000016E0  A$lcc8968 |    000016E3  A$lcc8968
     000016E4  A$lcc8968 |    000016E5  A$lcc8968 |    000016E6  A$lcc8968
     000016E7  A$lcc8968 |    000016E8  A$lcc8968 |    000016E8  C$scene.c
     000016EA  A$lcc8968 |    000016EB  A$lcc8968 |    000016EC  A$lcc8968
     000016ED  A$lcc8968 |    000016F0  A$lcc8968 |    000016F1  A$lcc8968
     000016F2  A$lcc8968 |    000016F3  A$lcc8968 |    000016F5  A$lcc8968
     000016F6  A$lcc8968 |    000016F7  A$lcc8968 |    000016F8  A$lcc8968
     000016FB  A$lcc8968 |    000016FC  A$lcc8968 |    000016FD  A$lcc8968
     000016FE  A$lcc8968 |    000016FF  A$lcc8968 |    00001700  A$lcc8968
     00001700  C$scene.c |    00001702  A$lcc8968 |    00001703  A$lcc8968
     00001704  A$lcc8968 |    00001705  A$lcc8968 |    00001708  A$lcc8968
     00001709  A$lcc8968 |    0000170A  A$lcc8968 |    0000170B  A$lcc8968
     0000170D  A$lcc8968 |    0000170E  A$lcc8968 |    0000170F  A$lcc8968
     00001710  A$lcc8968 |    00001713  A$lcc8968 |    00001714  A$lcc8968
     00001715  A$lcc8968 |    00001716  A$lcc8968 |    00001717  A$lcc8968
     00001718  A$lcc8968 |    00001718  C$scene.c |    0000171A  A$lcc8968
     0000171B  A$lcc8968 |    0000171C  A$lcc8968 |    0000171D  A$lcc8968
     00001720  A$lcc8968 |    00001721  A$lcc8968 |    00001722  A$lcc8968
     00001723  A$lcc8968 |    00001725  A$lcc8968 |    00001726  A$lcc8968
     00001727  A$lcc8968 |    00001728  A$lcc8968 |    0000172B  A$lcc8968
     0000172C  A$lcc8968 |    0000172D  A$lcc8968 |    0000172E  A$lcc8968
     0000172F  A$lcc8968 |    00001730  A$lcc8968 |    00001730  C$scene.c
     00001732  A$lcc8968 |    00001733  A$lcc8968 |    00001734  A$lcc8968
     00001735  A$lcc8968 |    00001738  A$lcc8968 |    00001739  A$lcc8968
     0000173A  A$lcc8968 |    0000173B  A$lcc8968 |    0000173D  A$lcc8968
     0000173E  A$lcc8968 |    0000173F  A$lcc8968 |    00001740  A$lcc8968
     00001742  A$lcc8968 |    00001743  A$lcc8968 |    00001743  C$scene.c
     00001745  A$lcc8968 |    00001746  A$lcc8968 |    00001747  A$lcc8968
     00001748  A$lcc8968 |    0000174B  A$lcc8968 |    0000174C  A$lcc8968
ASxxxx Linker V03.00 + NoICE + sdld,  page 46.
Hexadecimal  [32-Bits]

Area                       Addr        Size        Decimal Bytes (Attributes)
--------------------       ----        ----        ------- ----- ------------
_HOME                  000010DE    00001580 =        5504. bytes (REL,CON)

        Value  Global            Value  Global            Value  Global    
        -----  ------            -----  ------            -----  ------    
     0000174D  A$lcc8968 |    0000174E  A$lcc8968 |    00001750  A$lcc8968
     00001751  A$lcc8968 |    00001752  A$lcc8968 |    00001753  A$lcc8968
     00001755  A$lcc8968 |    00001755  C$scene.c |    00001756  A$lcc8968
     00001757  A$lcc8968 |    00001758  A$lcc8968 |    0000175B  A$lcc8968
     0000175D  A$lcc8968 |    0000175D  C$scene.c |    0000175D  XG$load_b
     0000175E  A$lcc8968 |    0000175E  C$scene.c |    0000175E  G$reload_
     0000175E  _reload_N |    00001760  A$lcc8968 |    00001760  C$scene.c
     00001763  A$lcc8968 |    00001763  C$scene.c |    00001765  A$lcc8968
     00001767  A$lcc8968 |    00001768  A$lcc8968 |    00001768  C$scene.c
     0000176A  A$lcc8968 |    0000176B  A$lcc8968 |    0000176C  A$lcc8968
     0000176D  A$lcc8968 |    00001770  A$lcc8968 |    00001771  A$lcc8968
     00001772  A$lcc8968 |    00001775  A$lcc8968 |    00001775  C$scene.c
     00001778  A$lcc8968 |    00001779  A$lcc8968 |    0000177A  A$lcc8968
     0000177B  A$lcc8968 |    0000177D  A$lcc8968 |    0000177E  A$lcc8968
     0000177F  A$lcc8968 |    00001780  A$lcc8968 |    00001782  A$lcc8968
     00001783  A$lcc8968 |    00001783  C$scene.c |    00001786  A$lcc8968
     00001787  A$lcc8968 |    00001788  A$lcc8968 |    00001789  A$lcc8968
     0000178B  A$lcc8968 |    0000178C  A$lcc8968 |    0000178D  A$lcc8968
     0000178E  A$lcc8968 |    00001790  A$lcc8968 |    00001790  C$scene.c
     00001791  A$lcc8968 |    00001792  A$lcc8968 |    00001794  A$lcc8968
     00001795  A$lcc8968 |    00001797  A$lcc8968 |    00001798  A$lcc8968
     0000179A  A$lcc8968 |    0000179B  A$lcc8968 |    0000179D  A$lcc8968
     0000179F  A$lcc8968 |    000017A0  A$lcc8968 |    000017A1  A$lcc8968
     000017A4  A$lcc8968 |    000017A4  C$scene.c |    000017A6  A$lcc8968
     000017A7  A$lcc8968 |    000017A8  A$lcc8968 |    000017A9  A$lcc8968
     000017AC  A$lcc8968 |    000017AD  A$lcc8968 |    000017AE  A$lcc8968
     000017AF  A$lcc8968 |    000017B1  A$lcc8968 |    000017B2  A$lcc8968
     000017B3  A$lcc8968 |    000017B4  A$lcc8968 |    000017B6  A$lcc8968
     000017B7  A$lcc8968 |    000017B9  A$lcc8968 |    000017BA  A$lcc8968
     000017BB  A$lcc8968 |    000017BC  A$lcc8968 |    000017BF  A$lcc8968
     000017C0  A$lcc8968 |    000017C1  A$lcc8968 |    000017C2  A$lcc8968
     000017C3  A$lcc8968 |    000017C5  A$lcc8968 |    000017C6  A$lcc8968
     000017C7  A$lcc8968 |    000017C8  A$lcc8968 |    000017C9  A$lcc8968
     000017CA  A$lcc8968 |    000017CB  A$lcc8968 |    000017CC  A$lcc8968
     000017CD  A$lcc8968 |    000017CD  C$scene.c |    000017CF  A$lcc8968
     000017D0  A$lcc8968 |    000017D1  A$lcc8968 |    000017D2  A$lcc8968
     000017D5  A$lcc8968 |    000017D6  A$lcc8968 |    000017D7  A$lcc8968
     000017D8  A$lcc8968 |    000017DA  A$lcc8968 |    000017DB  A$lcc8968
     000017DC  A$lcc8968 |    000017DD  A$lcc8968 |    000017E0  A$lcc8968
     000017E1  A$lcc8968 |    000017E2  A$lcc8968 |    000017E3  A$lcc8968
     000017E4  A$lcc8968 |    000017E5  A$lcc8968 |    000017E5  C$scene.c
     000017E7  A$lcc8968 |    000017E8  A$lcc8968 |    000017E9  A$lcc8968
     000017EA  A$lcc8968 |    000017ED  A$lcc8968 |    000017EE  A$lcc8968
     000017EF  A$lcc8968 |    000017F0  A$lcc8968 |    000017F2  A$lcc8968
     000017F3  A$lcc8968 |    000017F4  A$lcc8968 |    000017F5  A$lcc8968
     000017F7  A$lcc8968 |    000017F8  A$lcc8968 |    000017FA  A$lcc8968
     000017FB  A$lcc8968 |    000017FC  A$lcc8968 |    000017FD  A$lcc8968
     00001800  A$lcc8968 |    00001801  A$lcc8968 |    00001802  A$lcc8968
     00001803  A$lcc8968 |    00001804  A$lcc8968 |    00001805  A$lcc8968
     00001807  A$lcc8968 |    00001808  A$lcc8968 |    00001809  A$lcc8968
     0000180A  A$lcc8968 |    0000180B  A$lcc8968 |    0000180B  C$scene.c
ASxxxx Linker V03.00 + NoICE + sdld,  page 47.
Hexadecimal  [32-Bits]

Area                       Addr        Size        Decimal Bytes (Attributes)
--------------------       ----        ----        ------- ----- ------------
_HOME                  000010DE    00001580 =        5504. bytes (REL,CON)

        Value  Global            Value  Global            Value  Global    
        -----  ------            -----  ------            -----  ------    
     0000180D  A$lcc8968 |    0000180E  A$lcc8968 |    0000180F  A$lcc8968
     00001810  A$lcc8968 |    00001813  A$lcc8968 |    00001814  A$lcc8968
     00001815  A$lcc8968 |    00001816  A$lcc8968 |    00001818  A$lcc8968
     00001819  A$lcc8968 |    0000181A  A$lcc8968 |    0000181B  A$lcc8968
     0000181D  A$lcc8968 |    0000181E  A$lcc8968 |    00001820  A$lcc8968
     00001821  A$lcc8968 |    00001822  A$lcc8968 |    00001823  A$lcc8968
     00001826  A$lcc8968 |    00001827  A$lcc8968 |    00001828  A$lcc8968
     00001829  A$lcc8968 |    0000182B  A$lcc8968 |    0000182C  A$lcc8968
     0000182D  A$lcc8968 |    0000182E  A$lcc8968 |    00001830  A$lcc8968
     00001831  A$lcc8968 |    00001832  A$lcc8968 |    00001833  A$lcc8968
     00001834  A$lcc8968 |    00001835  A$lcc8968 |    00001836  A$lcc8968
     00001838  A$lcc8968 |    00001839  A$lcc8968 |    0000183A  A$lcc8968
     0000183B  A$lcc8968 |    0000183C  A$lcc8968 |    0000183C  C$scene.c
     0000183E  A$lcc8968 |    0000183F  A$lcc8968 |    00001840  A$lcc8968
     00001841  A$lcc8968 |    00001844  A$lcc8968 |    00001845  A$lcc8968
     00001846  A$lcc8968 |    00001847  A$lcc8968 |    00001849  A$lcc8968
     0000184A  A$lcc8968 |    0000184B  A$lcc8968 |    0000184C  A$lcc8968
     0000184E  A$lcc8968 |    0000184F  A$lcc8968 |    00001851  A$lcc8968
     00001852  A$lcc8968 |    00001853  A$lcc8968 |    00001854  A$lcc8968
     00001857  A$lcc8968 |    00001858  A$lcc8968 |    00001859  A$lcc8968
     0000185A  A$lcc8968 |    0000185B  A$lcc8968 |    0000185D  A$lcc8968
     0000185E  A$lcc8968 |    0000185F  A$lcc8968 |    00001860  A$lcc8968
     00001861  A$lcc8968 |    00001862  A$lcc8968 |    00001863  A$lcc8968
     00001863  C$scene.c |    00001865  A$lcc8968 |    00001866  A$lcc8968
     00001867  A$lcc8968 |    00001869  A$lcc8968 |    0000186A  A$lcc8968
     0000186B  A$lcc8968 |    0000186C  A$lcc8968 |    0000186D  A$lcc8968
     00001870  A$lcc8968 |    00001870  C$scene.c |    00001872  A$lcc8968
     00001873  A$lcc8968 |    00001874  A$lcc8968 |    00001875  A$lcc8968
     00001876  A$lcc8968 |    00001877  A$lcc8968 |    00001877  C$scene.c
     00001879  A$lcc8968 |    0000187A  A$lcc8968 |    0000187B  A$lcc8968
     0000187C  A$lcc8968 |    0000187F  A$lcc8968 |    00001880  A$lcc8968
     00001881  A$lcc8968 |    00001882  A$lcc8968 |    00001882  C$scene.c
     00001884  A$lcc8968 |    00001885  A$lcc8968 |    00001886  A$lcc8968
     00001888  A$lcc8968 |    00001888  C$scene.c |    0000188A  A$lcc8968
     0000188B  A$lcc8968 |    0000188C  A$lcc8968 |    0000188D  A$lcc8968
     0000188E  A$lcc8968 |    00001890  A$lcc8968 |    00001891  A$lcc8968
     00001894  A$lcc8968 |    00001896  A$lcc8968 |    00001897  A$lcc8968
     0000189A  A$lcc8968 |    0000189B  A$lcc8968 |    0000189B  C$scene.c
     0000189C  A$lcc8968 |    0000189D  A$lcc8968 |    0000189F  A$lcc8968
     0000189F  C$scene.c |    000018A1  A$lcc8968 |    000018A2  A$lcc8968
     000018A3  A$lcc8968 |    000018A5  A$lcc8968 |    000018A5  C$scene.c
     000018A8  A$lcc8968 |    000018A9  A$lcc8968 |    000018A9  C$scene.c
     000018AB  A$lcc8968 |    000018AC  A$lcc8968 |    000018AD  A$lcc8968
     000018AE  A$lcc8968 |    000018AF  A$lcc8968 |    000018B0  A$lcc8968
     000018B1  A$lcc8968 |    000018B2  A$lcc8968 |    000018B3  A$lcc8968
     000018B5  A$lcc8968 |    000018B6  A$lcc8968 |    000018B7  A$lcc8968
     000018B8  A$lcc8968 |    000018B9  A$lcc8968 |    000018BA  A$lcc8968
     000018BB  A$lcc8968 |    000018BC  A$lcc8968 |    000018BF  A$lcc8968
     000018C0  A$lcc8968 |    000018C1  A$lcc8968 |    000018C4  A$lcc8968
     000018C6  A$lcc8968 |    000018C6  C$scene.c |    000018C8  A$lcc8968
     000018C9  A$lcc8968 |    000018CB  A$lcc8968 |    000018CE  A$lcc8968
ASxxxx Linker V03.00 + NoICE + sdld,  page 48.
Hexadecimal  [32-Bits]

Area                       Addr        Size        Decimal Bytes (Attributes)
--------------------       ----        ----        ------- ----- ------------
_HOME                  000010DE    00001580 =        5504. bytes (REL,CON)

        Value  Global            Value  Global            Value  Global    
        -----  ------            -----  ------            -----  ------    
     000018CF  A$lcc8968 |    000018D0  A$lcc8968 |    000018D0  C$scene.c
     000018D2  A$lcc8968 |    000018D3  A$lcc8968 |    000018D4  A$lcc8968
     000018D5  A$lcc8968 |    000018D6  A$lcc8968 |    000018D7  A$lcc8968
     000018D8  A$lcc8968 |    000018D9  A$lcc8968 |    000018DA  A$lcc8968
     000018DC  A$lcc8968 |    000018DD  A$lcc8968 |    000018DE  A$lcc8968
     000018DF  A$lcc8968 |    000018E0  A$lcc8968 |    000018E1  A$lcc8968
     000018E2  A$lcc8968 |    000018E2  C$scene.c |    000018E4  A$lcc8968
     000018E5  A$lcc8968 |    000018E6  A$lcc8968 |    000018E7  A$lcc8968
     000018E8  A$lcc8968 |    000018E9  A$lcc8968 |    000018EA  A$lcc8968
     000018EB  A$lcc8968 |    000018EC  A$lcc8968 |    000018ED  A$lcc8968
     000018EE  A$lcc8968 |    000018EF  A$lcc8968 |    000018F0  A$lcc8968
     000018F1  A$lcc8968 |    000018F2  A$lcc8968 |    000018F4  A$lcc8968
     000018F5  A$lcc8968 |    000018F6  A$lcc8968 |    000018F7  A$lcc8968
     000018F8  A$lcc8968 |    000018FA  A$lcc8968 |    000018FB  A$lcc8968
     000018FC  A$lcc8968 |    000018FD  A$lcc8968 |    000018FD  C$scene.c
     000018FE  A$lcc8968 |    000018FF  A$lcc8968 |    00001900  A$lcc8968
     00001901  A$lcc8968 |    00001902  A$lcc8968 |    00001905  A$lcc8968
     00001906  A$lcc8968 |    00001907  A$lcc8968 |    00001908  A$lcc8968
     0000190A  A$lcc8968 |    0000190B  A$lcc8968 |    0000190C  A$lcc8968
     0000190D  A$lcc8968 |    0000190F  A$lcc8968 |    00001910  A$lcc8968
     00001912  A$lcc8968 |    00001913  A$lcc8968 |    00001914  A$lcc8968
     00001915  A$lcc8968 |    00001918  A$lcc8968 |    00001919  A$lcc8968
     0000191A  A$lcc8968 |    0000191B  A$lcc8968 |    0000191C  A$lcc8968
     0000191E  A$lcc8968 |    0000191F  A$lcc8968 |    00001920  A$lcc8968
     00001921  A$lcc8968 |    00001922  A$lcc8968 |    00001923  A$lcc8968
     00001924  A$lcc8968 |    00001924  C$scene.c |    00001926  A$lcc8968
     00001927  A$lcc8968 |    00001928  A$lcc8968 |    00001929  A$lcc8968
     0000192C  A$lcc8968 |    0000192D  A$lcc8968 |    0000192E  A$lcc8968
     0000192F  A$lcc8968 |    00001931  A$lcc8968 |    00001932  A$lcc8968
     00001933  A$lcc8968 |    00001934  A$lcc8968 |    00001936  A$lcc8968
     00001937  A$lcc8968 |    00001939  A$lcc8968 |    0000193A  A$lcc8968
     0000193B  A$lcc8968 |    0000193C  A$lcc8968 |    0000193F  A$lcc8968
     00001940  A$lcc8968 |    00001941  A$lcc8968 |    00001942  A$lcc8968
     00001943  A$lcc8968 |    00001945  A$lcc8968 |    00001946  A$lcc8968
     00001947  A$lcc8968 |    00001948  A$lcc8968 |    00001949  A$lcc8968
     0000194A  A$lcc8968 |    0000194B  A$lcc8968 |    0000194B  C$scene.c
     0000194D  A$lcc8968 |    0000194E  A$lcc8968 |    0000194F  A$lcc8968
     00001950  A$lcc8968 |    00001953  A$lcc8968 |    00001954  A$lcc8968
     00001955  A$lcc8968 |    00001956  A$lcc8968 |    00001958  A$lcc8968
     00001959  A$lcc8968 |    0000195A  A$lcc8968 |    0000195B  A$lcc8968
     0000195D  A$lcc8968 |    0000195E  A$lcc8968 |    0000195F  A$lcc8968
     00001960  A$lcc8968 |    00001961  A$lcc8968 |    00001964  A$lcc8968
     00001965  A$lcc8968 |    00001966  A$lcc8968 |    00001967  A$lcc8968
     00001969  A$lcc8968 |    0000196A  A$lcc8968 |    0000196B  A$lcc8968
     0000196C  A$lcc8968 |    0000196F  A$lcc8968 |    00001970  A$lcc8968
     00001971  A$lcc8968 |    00001972  A$lcc8968 |    00001973  A$lcc8968
     00001974  A$lcc8968 |    00001976  A$lcc8968 |    00001977  A$lcc8968
     00001978  A$lcc8968 |    00001979  A$lcc8968 |    0000197A  A$lcc8968
     0000197B  A$lcc8968 |    0000197C  A$lcc8968 |    0000197C  C$scene.c
     0000197E  A$lcc8968 |    0000197F  A$lcc8968 |    00001980  A$lcc8968
     00001981  A$lcc8968 |    00001984  A$lcc8968 |    00001985  A$lcc8968
ASxxxx Linker V03.00 + NoICE + sdld,  page 49.
Hexadecimal  [32-Bits]

Area                       Addr        Size        Decimal Bytes (Attributes)
--------------------       ----        ----        ------- ----- ------------
_HOME                  000010DE    00001580 =        5504. bytes (REL,CON)

        Value  Global            Value  Global            Value  Global    
        -----  ------            -----  ------            -----  ------    
     00001986  A$lcc8968 |    00001987  A$lcc8968 |    00001989  A$lcc8968
     0000198A  A$lcc8968 |    0000198B  A$lcc8968 |    0000198C  A$lcc8968
     0000198F  A$lcc8968 |    00001990  A$lcc8968 |    00001991  A$lcc8968
     00001992  A$lcc8968 |    00001993  A$lcc8968 |    00001994  A$lcc8968
     00001994  C$scene.c |    00001996  A$lcc8968 |    00001997  A$lcc8968
     00001998  A$lcc8968 |    00001999  A$lcc8968 |    0000199C  A$lcc8968
     0000199D  A$lcc8968 |    0000199E  A$lcc8968 |    0000199F  A$lcc8968
     000019A1  A$lcc8968 |    000019A2  A$lcc8968 |    000019A3  A$lcc8968
     000019A4  A$lcc8968 |    000019A7  A$lcc8968 |    000019A8  A$lcc8968
     000019A9  A$lcc8968 |    000019AA  A$lcc8968 |    000019AB  A$lcc8968
     000019AC  A$lcc8968 |    000019AC  C$scene.c |    000019AE  A$lcc8968
     000019AF  A$lcc8968 |    000019B0  A$lcc8968 |    000019B1  A$lcc8968
     000019B4  A$lcc8968 |    000019B5  A$lcc8968 |    000019B6  A$lcc8968
     000019B7  A$lcc8968 |    000019B9  A$lcc8968 |    000019BA  A$lcc8968
     000019BB  A$lcc8968 |    000019BC  A$lcc8968 |    000019BF  A$lcc8968
     000019C0  A$lcc8968 |    000019C1  A$lcc8968 |    000019C2  A$lcc8968
     000019C3  A$lcc8968 |    000019C4  A$lcc8968 |    000019C4  C$scene.c
     000019C6  A$lcc8968 |    000019C7  A$lcc8968 |    000019C8  A$lcc8968
     000019C9  A$lcc8968 |    000019CA  A$lcc8968 |    000019CD  A$lcc8968
     000019CE  A$lcc8968 |    000019CF  A$lcc8968 |    000019CF  C$scene.c
     000019D1  A$lcc8968 |    000019D2  A$lcc8968 |    000019D3  A$lcc8968
     000019D4  A$lcc8968 |    000019D7  A$lcc8968 |    000019D8  A$lcc8968
     000019D9  A$lcc8968 |    000019DA  A$lcc8968 |    000019DC  A$lcc8968
     000019DD  A$lcc8968 |    000019DE  A$lcc8968 |    000019DF  A$lcc8968
     000019E1  A$lcc8968 |    000019E1  C$scene.c |    000019E2  A$lcc8968
     000019E3  A$lcc8968 |    000019E4  A$lcc8968 |    000019E5  A$lcc8968
     000019E8  A$lcc8968 |    000019E9  A$lcc8968 |    000019EA  A$lcc8968
     000019EB  A$lcc8968 |    000019ED  A$lcc8968 |    000019EE  A$lcc8968
     000019EF  A$lcc8968 |    000019F0  A$lcc8968 |    000019F2  A$lcc8968
     000019F2  C$scene.c |    000019F3  A$lcc8968 |    000019F4  A$lcc8968
     000019F7  A$lcc8968 |    000019F7  C$scene.c |    000019F9  A$lcc8968
     000019FA  A$lcc8968 |    000019FD  A$lcc8968 |    000019FD  C$scene.c
     00001A00  A$lcc8968 |    00001A01  A$lcc8968 |    00001A03  A$lcc8968
     00001A03  C$scene.c |    00001A03  XG$reload |    00001A04  A$lcc8968
     00001A04  C$scene.c |    00001A04  G$render_ |    00001A04  _render_p
     00001A06  A$lcc8968 |    00001A06  C$scene.c |    00001A08  A$lcc8968
     00001A0A  A$lcc8968 |    00001A0B  A$lcc8968 |    00001A0B  C$scene.c
     00001A0E  A$lcc8968 |    00001A0F  A$lcc8968 |    00001A12  A$lcc8968
     00001A13  A$lcc8968 |    00001A14  A$lcc8968 |    00001A16  A$lcc8968
     00001A17  A$lcc8968 |    00001A18  A$lcc8968 |    00001A19  A$lcc8968
     00001A1A  A$lcc8968 |    00001A1B  A$lcc8968 |    00001A1C  A$lcc8968
     00001A1D  A$lcc8968 |    00001A1E  A$lcc8968 |    00001A1F  A$lcc8968
     00001A20  A$lcc8968 |    00001A21  A$lcc8968 |    00001A22  A$lcc8968
     00001A24  A$lcc8968 |    00001A25  A$lcc8968 |    00001A26  A$lcc8968
     00001A28  A$lcc8968 |    00001A2A  A$lcc8968 |    00001A2B  A$lcc8968
     00001A2C  A$lcc8968 |    00001A2D  A$lcc8968 |    00001A2D  C$scene.c
     00001A2D  C$scene.c |    00001A30  A$lcc8968 |    00001A33  A$lcc8968
     00001A33  C$scene.c |    00001A36  A$lcc8968 |    00001A39  A$lcc8968
     00001A39  C$scene.c |    00001A3C  A$lcc8968 |    00001A3F  A$lcc8968
     00001A40  A$lcc8968 |    00001A42  A$lcc8968 |    00001A45  A$lcc8968
     00001A46  A$lcc8968 |    00001A48  A$lcc8968 |    00001A48  C$scene.c
ASxxxx Linker V03.00 + NoICE + sdld,  page 50.
Hexadecimal  [32-Bits]

Area                       Addr        Size        Decimal Bytes (Attributes)
--------------------       ----        ----        ------- ----- ------------
_HOME                  000010DE    00001580 =        5504. bytes (REL,CON)

        Value  Global            Value  Global            Value  Global    
        -----  ------            -----  ------            -----  ------    
     00001A4B  A$lcc8968 |    00001A4D  A$lcc8968 |    00001A4D  C$scene.c
     00001A50  A$lcc8968 |    00001A51  A$lcc8968 |    00001A52  A$lcc8968
     00001A52  C$scene.c |    00001A54  A$lcc8968 |    00001A56  A$lcc8968
     00001A56  C$scene.c |    00001A59  A$lcc8968 |    00001A5B  A$lcc8968
     00001A5C  A$lcc8968 |    00001A5E  A$lcc8968 |    00001A5F  A$lcc8968
     00001A60  A$lcc8968 |    00001A63  A$lcc8968 |    00001A63  C$scene.c
     00001A65  A$lcc8968 |    00001A66  A$lcc8968 |    00001A67  A$lcc8968
     00001A68  A$lcc8968 |    00001A69  A$lcc8968 |    00001A6B  A$lcc8968
     00001A6C  A$lcc8968 |    00001A6D  A$lcc8968 |    00001A6E  A$lcc8968
     00001A6F  A$lcc8968 |    00001A71  A$lcc8968 |    00001A72  A$lcc8968
     00001A74  A$lcc8968 |    00001A75  A$lcc8968 |    00001A77  A$lcc8968
     00001A78  A$lcc8968 |    00001A7A  A$lcc8968 |    00001A7B  A$lcc8968
     00001A7D  A$lcc8968 |    00001A7E  A$lcc8968 |    00001A80  A$lcc8968
     00001A81  A$lcc8968 |    00001A83  A$lcc8968 |    00001A84  A$lcc8968
     00001A86  A$lcc8968 |    00001A86  C$scene.c |    00001A88  A$lcc8968
     00001A89  A$lcc8968 |    00001A8A  A$lcc8968 |    00001A8B  A$lcc8968
     00001A8E  A$lcc8968 |    00001A8F  A$lcc8968 |    00001A90  A$lcc8968
     00001A91  A$lcc8968 |    00001A92  A$lcc8968 |    00001A93  A$lcc8968
     00001A94  A$lcc8968 |    00001A95  A$lcc8968 |    00001A96  A$lcc8968
     00001A99  A$lcc8968 |    00001A9A  A$lcc8968 |    00001A9B  A$lcc8968
     00001A9C  A$lcc8968 |    00001A9E  A$lcc8968 |    00001A9F  A$lcc8968
     00001AA0  A$lcc8968 |    00001AA1  A$lcc8968 |    00001AA2  A$lcc8968
     00001AA3  A$lcc8968 |    00001AA4  A$lcc8968 |    00001AA5  A$lcc8968
     00001AA6  A$lcc8968 |    00001AA7  A$lcc8968 |    00001AA9  A$lcc8968
     00001AAA  A$lcc8968 |    00001AAB  A$lcc8968 |    00001AAC  A$lcc8968
     00001AAC  C$scene.c |    00001AAE  A$lcc8968 |    00001AAF  A$lcc8968
     00001AB0  A$lcc8968 |    00001AB1  A$lcc8968 |    00001AB4  A$lcc8968
     00001AB5  A$lcc8968 |    00001AB6  A$lcc8968 |    00001AB7  A$lcc8968
     00001AB9  A$lcc8968 |    00001ABA  A$lcc8968 |    00001ABB  A$lcc8968
     00001ABC  A$lcc8968 |    00001ABE  A$lcc8968 |    00001ABF  A$lcc8968
     00001AC0  A$lcc8968 |    00001AC1  A$lcc8968 |    00001AC2  A$lcc8968
     00001AC3  A$lcc8968 |    00001AC5  A$lcc8968 |    00001AC6  A$lcc8968
     00001AC6  C$scene.c |    00001AC8  A$lcc8968 |    00001AC9  A$lcc8968
     00001ACA  A$lcc8968 |    00001ACB  A$lcc8968 |    00001ACE  A$lcc8968
     00001ACF  A$lcc8968 |    00001AD0  A$lcc8968 |    00001AD1  A$lcc8968
     00001AD3  A$lcc8968 |    00001AD4  A$lcc8968 |    00001AD5  A$lcc8968
     00001AD6  A$lcc8968 |    00001AD8  A$lcc8968 |    00001AD9  A$lcc8968
     00001ADA  A$lcc8968 |    00001ADB  A$lcc8968 |    00001ADC  A$lcc8968
     00001ADE  A$lcc8968 |    00001ADF  A$lcc8968 |    00001AE0  A$lcc8968
     00001AE1  A$lcc8968 |    00001AE2  A$lcc8968 |    00001AE2  C$scene.c
     00001AE4  A$lcc8968 |    00001AE5  A$lcc8968 |    00001AE6  A$lcc8968
     00001AE9  A$lcc8968 |    00001AEB  A$lcc8968 |    00001AEC  A$lcc8968
     00001AED  A$lcc8968 |    00001AEE  A$lcc8968 |    00001AF1  A$lcc8968
     00001AF2  A$lcc8968 |    00001AF3  A$lcc8968 |    00001AF4  A$lcc8968
     00001AF5  A$lcc8968 |    00001AF6  A$lcc8968 |    00001AF6  C$scene.c
     00001AF8  A$lcc8968 |    00001AF9  A$lcc8968 |    00001AFA  A$lcc8968
     00001AFB  A$lcc8968 |    00001AFE  A$lcc8968 |    00001AFF  A$lcc8968
     00001B00  A$lcc8968 |    00001B01  A$lcc8968 |    00001B03  A$lcc8968
     00001B04  A$lcc8968 |    00001B05  A$lcc8968 |    00001B06  A$lcc8968
     00001B08  A$lcc8968 |    00001B09  A$lcc8968 |    00001B09  C$scene.c
     00001B0A  A$lcc8968 |    00001B0D  A$lcc8968 |    00001B0D  C$scene.c
ASxxxx Linker V03.00 + NoICE + sdld,  page 51.
Hexadecimal  [32-Bits]

Area                       Addr        Size        Decimal Bytes (Attributes)
--------------------       ----        ----        ------- ----- ------------
_HOME                  000010DE    00001580 =        5504. bytes (REL,CON)

        Value  Global            Value  Global            Value  Global    
        -----  ------            -----  ------            -----  ------    
     00001B0F  A$lcc8968 |    00001B10  A$lcc8968 |    00001B11  A$lcc8968
     00001B12  A$lcc8968 |    00001B15  A$lcc8968 |    00001B16  A$lcc8968
     00001B17  A$lcc8968 |    00001B18  A$lcc8968 |    00001B1A  A$lcc8968
     00001B1B  A$lcc8968 |    00001B1C  A$lcc8968 |    00001B1D  A$lcc8968
     00001B1F  A$lcc8968 |    00001B20  A$lcc8968 |    00001B21  A$lcc8968
     00001B22  A$lcc8968 |    00001B23  A$lcc8968 |    00001B24  A$lcc8968
     00001B26  A$lcc8968 |    00001B27  A$lcc8968 |    00001B28  A$lcc8968
     00001B29  A$lcc8968 |    00001B2A  A$lcc8968 |    00001B2B  A$lcc8968
     00001B2C  A$lcc8968 |    00001B2E  A$lcc8968 |    00001B2F  A$lcc8968
     00001B31  A$lcc8968 |    00001B32  A$lcc8968 |    00001B34  A$lcc8968
     00001B35  A$lcc8968 |    00001B37  A$lcc8968 |    00001B38  A$lcc8968
     00001B3A  A$lcc8968 |    00001B3B  A$lcc8968 |    00001B3C  A$lcc8968
     00001B3E  A$lcc8968 |    00001B3F  A$lcc8968 |    00001B40  A$lcc8968
     00001B41  A$lcc8968 |    00001B42  A$lcc8968 |    00001B43  A$lcc8968
     00001B44  A$lcc8968 |    00001B46  A$lcc8968 |    00001B47  A$lcc8968
     00001B48  A$lcc8968 |    00001B49  A$lcc8968 |    00001B4B  A$lcc8968
     00001B4C  A$lcc8968 |    00001B4D  A$lcc8968 |    00001B4E  A$lcc8968
     00001B4F  A$lcc8968 |    00001B50  A$lcc8968 |    00001B51  A$lcc8968
     00001B52  A$lcc8968 |    00001B53  A$lcc8968 |    00001B54  A$lcc8968
     00001B55  A$lcc8968 |    00001B56  A$lcc8968 |    00001B57  A$lcc8968
     00001B5A  A$lcc8968 |    00001B5A  C$scene.c |    00001B5C  A$lcc8968
     00001B5E  A$lcc8968 |    00001B5F  A$lcc8968 |    00001B60  A$lcc8968
     00001B62  A$lcc8968 |    00001B63  A$lcc8968 |    00001B65  A$lcc8968
     00001B66  A$lcc8968 |    00001B68  A$lcc8968 |    00001B6A  A$lcc8968
     00001B6C  A$lcc8968 |    00001B6E  A$lcc8968 |    00001B6F  A$lcc8968
     00001B71  A$lcc8968 |    00001B73  A$lcc8968 |    00001B75  A$lcc8968
     00001B76  A$lcc8968 |    00001B79  A$lcc8968 |    00001B7B  A$lcc8968
     00001B7C  A$lcc8968 |    00001B7E  A$lcc8968 |    00001B7F  A$lcc8968
     00001B81  A$lcc8968 |    00001B82  A$lcc8968 |    00001B84  A$lcc8968
     00001B86  A$lcc8968 |    00001B88  A$lcc8968 |    00001B8A  A$lcc8968
     00001B8C  A$lcc8968 |    00001B8D  A$lcc8968 |    00001B8F  A$lcc8968
     00001B91  A$lcc8968 |    00001B93  A$lcc8968 |    00001B94  A$lcc8968
     00001B97  A$lcc8968 |    00001B99  A$lcc8968 |    00001B9A  A$lcc8968
     00001B9B  A$lcc8968 |    00001B9C  A$lcc8968 |    00001B9F  A$lcc8968
     00001BA0  A$lcc8968 |    00001BA1  A$lcc8968 |    00001BA2  A$lcc8968
     00001BA3  A$lcc8968 |    00001BA4  A$lcc8968 |    00001BA7  A$lcc8968
     00001BA7  C$scene.c |    00001BA9  A$lcc8968 |    00001BAA  A$lcc8968
     00001BAB  A$lcc8968 |    00001BAC  A$lcc8968 |    00001BAE  A$lcc8968
     00001BAE  C$scene.c |    00001BB0  A$lcc8968 |    00001BB1  A$lcc8968
     00001BB2  A$lcc8968 |    00001BB3  A$lcc8968 |    00001BB6  A$lcc8968
     00001BB7  A$lcc8968 |    00001BB8  A$lcc8968 |    00001BB9  A$lcc8968
     00001BBA  A$lcc8968 |    00001BBC  A$lcc8968 |    00001BBD  A$lcc8968
     00001BC0  A$lcc8968 |    00001BC0  C$scene.c |    00001BC2  A$lcc8968
     00001BC3  A$lcc8968 |    00001BC4  A$lcc8968 |    00001BC5  A$lcc8968
     00001BC6  A$lcc8968 |    00001BC8  A$lcc8968 |    00001BC9  A$lcc8968
     00001BCA  A$lcc8968 |    00001BCB  A$lcc8968 |    00001BCC  A$lcc8968
     00001BCC  C$scene.c |    00001BCE  A$lcc8968 |    00001BCF  A$lcc8968
     00001BD0  A$lcc8968 |    00001BD1  A$lcc8968 |    00001BD2  A$lcc8968
     00001BD4  A$lcc8968 |    00001BD5  A$lcc8968 |    00001BD7  A$lcc8968
     00001BD8  A$lcc8968 |    00001BD9  A$lcc8968 |    00001BDA  A$lcc8968
     00001BDB  A$lcc8968 |    00001BDC  A$lcc8968 |    00001BDD  A$lcc8968
ASxxxx Linker V03.00 + NoICE + sdld,  page 52.
Hexadecimal  [32-Bits]

Area                       Addr        Size        Decimal Bytes (Attributes)
--------------------       ----        ----        ------- ----- ------------
_HOME                  000010DE    00001580 =        5504. bytes (REL,CON)

        Value  Global            Value  Global            Value  Global    
        -----  ------            -----  ------            -----  ------    
     00001BDE  A$lcc8968 |    00001BDF  A$lcc8968 |    00001BE0  A$lcc8968
     00001BE3  A$lcc8968 |    00001BE4  A$lcc8968 |    00001BE5  A$lcc8968
     00001BE6  A$lcc8968 |    00001BE8  A$lcc8968 |    00001BE9  A$lcc8968
     00001BEA  A$lcc8968 |    00001BEB  A$lcc8968 |    00001BED  A$lcc8968
     00001BEE  A$lcc8968 |    00001BEE  C$scene.c |    00001BF0  A$lcc8968
     00001BF1  A$lcc8968 |    00001BF2  A$lcc8968 |    00001BF3  A$lcc8968
     00001BF6  A$lcc8968 |    00001BF7  A$lcc8968 |    00001BF8  A$lcc8968
     00001BF9  A$lcc8968 |    00001BFB  A$lcc8968 |    00001BFC  A$lcc8968
     00001BFD  A$lcc8968 |    00001BFE  A$lcc8968 |    00001C00  A$lcc8968
     00001C01  A$lcc8968 |    00001C02  A$lcc8968 |    00001C03  A$lcc8968
     00001C04  A$lcc8968 |    00001C06  A$lcc8968 |    00001C07  A$lcc8968
     00001C08  A$lcc8968 |    00001C09  A$lcc8968 |    00001C0A  A$lcc8968
     00001C0C  A$lcc8968 |    00001C0D  A$lcc8968 |    00001C0E  A$lcc8968
     00001C0E  C$scene.c |    00001C0F  A$lcc8968 |    00001C10  A$lcc8968
     00001C12  A$lcc8968 |    00001C14  A$lcc8968 |    00001C16  A$lcc8968
     00001C18  A$lcc8968 |    00001C1A  A$lcc8968 |    00001C1C  A$lcc8968
     00001C1E  A$lcc8968 |    00001C20  A$lcc8968 |    00001C21  A$lcc8968
     00001C22  A$lcc8968 |    00001C23  A$lcc8968 |    00001C24  A$lcc8968
     00001C26  A$lcc8968 |    00001C27  A$lcc8968 |    00001C29  A$lcc8968
     00001C2A  A$lcc8968 |    00001C2B  A$lcc8968 |    00001C2C  A$lcc8968
     00001C2D  A$lcc8968 |    00001C2E  A$lcc8968 |    00001C2F  A$lcc8968
     00001C30  A$lcc8968 |    00001C32  A$lcc8968 |    00001C34  A$lcc8968
     00001C36  A$lcc8968 |    00001C38  A$lcc8968 |    00001C3A  A$lcc8968
     00001C3C  A$lcc8968 |    00001C3E  A$lcc8968 |    00001C40  A$lcc8968
     00001C41  A$lcc8968 |    00001C42  A$lcc8968 |    00001C43  A$lcc8968
     00001C44  A$lcc8968 |    00001C45  A$lcc8968 |    00001C46  A$lcc8968
     00001C48  A$lcc8968 |    00001C4A  A$lcc8968 |    00001C4A  C$scene.c
     00001C4B  A$lcc8968 |    00001C4B  C$scene.c |    00001C4D  A$lcc8968
     00001C4E  A$lcc8968 |    00001C4F  A$lcc8968 |    00001C50  A$lcc8968
     00001C51  A$lcc8968 |    00001C52  A$lcc8968 |    00001C53  A$lcc8968
     00001C54  A$lcc8968 |    00001C55  A$lcc8968 |    00001C56  A$lcc8968
     00001C58  A$lcc8968 |    00001C59  A$lcc8968 |    00001C5A  A$lcc8968
     00001C5B  A$lcc8968 |    00001C5C  A$lcc8968 |    00001C5C  C$scene.c
     00001C5E  A$lcc8968 |    00001C5F  A$lcc8968 |    00001C60  A$lcc8968
     00001C62  A$lcc8968 |    00001C64  A$lcc8968 |    00001C65  A$lcc8968
     00001C67  A$lcc8968 |    00001C69  A$lcc8968 |    00001C6B  A$lcc8968
     00001C6C  A$lcc8968 |    00001C6E  A$lcc8968 |    00001C70  A$lcc8968
     00001C72  A$lcc8968 |    00001C73  A$lcc8968 |    00001C75  A$lcc8968
     00001C77  A$lcc8968 |    00001C79  A$lcc8968 |    00001C7A  A$lcc8968
     00001C7C  A$lcc8968 |    00001C7E  A$lcc8968 |    00001C80  A$lcc8968
     00001C81  A$lcc8968 |    00001C83  A$lcc8968 |    00001C85  A$lcc8968
     00001C87  A$lcc8968 |    00001C88  A$lcc8968 |    00001C8A  A$lcc8968
     00001C8C  A$lcc8968 |    00001C8E  A$lcc8968 |    00001C8F  A$lcc8968
     00001C91  A$lcc8968 |    00001C93  A$lcc8968 |    00001C95  A$lcc8968
     00001C96  A$lcc8968 |    00001C98  A$lcc8968 |    00001C9A  A$lcc8968
     00001C9C  A$lcc8968 |    00001C9D  A$lcc8968 |    00001C9F  A$lcc8968
     00001CA1  A$lcc8968 |    00001CA3  A$lcc8968 |    00001CA4  A$lcc8968
     00001CA6  A$lcc8968 |    00001CA8  A$lcc8968 |    00001CAA  A$lcc8968
     00001CAB  A$lcc8968 |    00001CAE  A$lcc8968 |    00001CB0  A$lcc8968
     00001CB1  A$lcc8968 |    00001CB4  A$lcc8968 |    00001CB6  A$lcc8968
     00001CB7  A$lcc8968 |    00001CBA  A$lcc8968 |    00001CBC  A$lcc8968
ASxxxx Linker V03.00 + NoICE + sdld,  page 53.
Hexadecimal  [32-Bits]

Area                       Addr        Size        Decimal Bytes (Attributes)
--------------------       ----        ----        ------- ----- ------------
_HOME                  000010DE    00001580 =        5504. bytes (REL,CON)

        Value  Global            Value  Global            Value  Global    
        -----  ------            -----  ------            -----  ------    
     00001CBD  A$lcc8968 |    00001CBF  A$lcc8968 |    00001CC0  A$lcc8968
     00001CC1  A$lcc8968 |    00001CC2  A$lcc8968 |    00001CC3  A$lcc8968
     00001CC4  A$lcc8968 |    00001CC5  A$lcc8968 |    00001CC6  A$lcc8968
     00001CC7  A$lcc8968 |    00001CC8  A$lcc8968 |    00001CCB  A$lcc8968
     00001CCD  A$lcc8968 |    00001CCF  A$lcc8968 |    00001CD0  A$lcc8968
     00001CD0  C$scene.c |    00001CD1  A$lcc8968 |    00001CD2  A$lcc8968
     00001CD3  A$lcc8968 |    00001CD3  C$scene.c |    00001CD6  A$lcc8968
     00001CD7  A$lcc8968 |    00001CDA  A$lcc8968 |    00001CDA  C$scene.c
     00001CDC  A$lcc8968 |    00001CDD  A$lcc8968 |    00001CDE  A$lcc8968
     00001CDF  A$lcc8968 |    00001CE1  A$lcc8968 |    00001CE4  A$lcc8968
     00001CE6  A$lcc8968 |    00001CE7  A$lcc8968 |    00001CEA  A$lcc8968
     00001CEC  A$lcc8968 |    00001CED  A$lcc8968 |    00001CF0  A$lcc8968
     00001CF2  A$lcc8968 |    00001CF3  A$lcc8968 |    00001CF6  A$lcc8968
     00001CF8  A$lcc8968 |    00001CF9  A$lcc8968 |    00001CFA  A$lcc8968
     00001CFB  A$lcc8968 |    00001CFC  A$lcc8968 |    00001CFD  A$lcc8968
     00001CFE  A$lcc8968 |    00001CFF  A$lcc8968 |    00001D00  A$lcc8968
     00001D03  A$lcc8968 |    00001D05  A$lcc8968 |    00001D06  A$lcc8968
     00001D06  C$scene.c |    00001D08  A$lcc8968 |    00001D09  A$lcc8968
     00001D0A  A$lcc8968 |    00001D0A  C$scene.c |    00001D0D  A$lcc8968
     00001D0E  A$lcc8968 |    00001D10  A$lcc8968 |    00001D10  C$scene.c
     00001D12  A$lcc8968 |    00001D13  A$lcc8968 |    00001D14  A$lcc8968
     00001D15  A$lcc8968 |    00001D17  A$lcc8968 |    00001D19  A$lcc8968
     00001D19  C$scene.c |    00001D1B  A$lcc8968 |    00001D1C  A$lcc8968
     00001D1D  A$lcc8968 |    00001D1E  A$lcc8968 |    00001D20  A$lcc8968
     00001D22  A$lcc8968 |    00001D23  A$lcc8968 |    00001D24  A$lcc8968
     00001D25  A$lcc8968 |    00001D26  A$lcc8968 |    00001D28  A$lcc8968
     00001D29  A$lcc8968 |    00001D2A  A$lcc8968 |    00001D2B  A$lcc8968
     00001D2C  A$lcc8968 |    00001D2D  A$lcc8968 |    00001D2E  A$lcc8968
     00001D30  A$lcc8968 |    00001D31  A$lcc8968 |    00001D32  A$lcc8968
     00001D33  A$lcc8968 |    00001D35  A$lcc8968 |    00001D36  A$lcc8968
     00001D38  A$lcc8968 |    00001D39  A$lcc8968 |    00001D3A  A$lcc8968
     00001D3B  A$lcc8968 |    00001D3C  A$lcc8968 |    00001D3E  A$lcc8968
     00001D3F  A$lcc8968 |    00001D40  A$lcc8968 |    00001D41  A$lcc8968
     00001D42  A$lcc8968 |    00001D43  A$lcc8968 |    00001D44  A$lcc8968
     00001D46  A$lcc8968 |    00001D47  A$lcc8968 |    00001D48  A$lcc8968
     00001D49  A$lcc8968 |    00001D4B  A$lcc8968 |    00001D4C  A$lcc8968
     00001D4D  A$lcc8968 |    00001D4E  A$lcc8968 |    00001D4F  A$lcc8968
     00001D50  A$lcc8968 |    00001D51  A$lcc8968 |    00001D52  A$lcc8968
     00001D53  A$lcc8968 |    00001D54  A$lcc8968 |    00001D55  A$lcc8968
     00001D56  A$lcc8968 |    00001D59  A$lcc8968 |    00001D5B  A$lcc8968
     00001D5C  A$lcc8968 |    00001D5F  A$lcc8968 |    00001D61  A$lcc8968
     00001D62  A$lcc8968 |    00001D63  A$lcc8968 |    00001D64  A$lcc8968
     00001D67  A$lcc8968 |    00001D68  A$lcc8968 |    00001D68  C$scene.c
     00001D68  C$scene.c |    00001D6B  A$lcc8968 |    00001D6C  A$lcc8968
     00001D6F  A$lcc8968 |    00001D72  A$lcc8968 |    00001D73  A$lcc8968
     00001D76  A$lcc8968 |    00001D76  C$scene.c |    00001D78  A$lcc8968
     00001D79  A$lcc8968 |    00001D7A  A$lcc8968 |    00001D7B  A$lcc8968
     00001D7C  A$lcc8968 |    00001D7D  A$lcc8968 |    00001D7E  A$lcc8968
     00001D7F  A$lcc8968 |    00001D80  A$lcc8968 |    00001D81  A$lcc8968
     00001D82  A$lcc8968 |    00001D82  C$scene.c |    00001D84  A$lcc8968
     00001D85  A$lcc8968 |    00001D86  A$lcc8968 |    00001D87  A$lcc8968
ASxxxx Linker V03.00 + NoICE + sdld,  page 54.
Hexadecimal  [32-Bits]

Area                       Addr        Size        Decimal Bytes (Attributes)
--------------------       ----        ----        ------- ----- ------------
_HOME                  000010DE    00001580 =        5504. bytes (REL,CON)

        Value  Global            Value  Global            Value  Global    
        -----  ------            -----  ------            -----  ------    
     00001D88  A$lcc8968 |    00001D8A  A$lcc8968 |    00001D8B  A$lcc8968
     00001D8D  A$lcc8968 |    00001D8E  A$lcc8968 |    00001D8F  A$lcc8968
     00001D90  A$lcc8968 |    00001D91  A$lcc8968 |    00001D92  A$lcc8968
     00001D93  A$lcc8968 |    00001D94  A$lcc8968 |    00001D96  A$lcc8968
     00001D97  A$lcc8968 |    00001D98  A$lcc8968 |    00001D99  A$lcc8968
     00001D9B  A$lcc8968 |    00001D9C  A$lcc8968 |    00001D9E  A$lcc8968
     00001D9F  A$lcc8968 |    00001DA0  A$lcc8968 |    00001DA1  A$lcc8968
     00001DA2  A$lcc8968 |    00001DA4  A$lcc8968 |    00001DA5  A$lcc8968
     00001DA6  A$lcc8968 |    00001DA7  A$lcc8968 |    00001DA8  A$lcc8968
     00001DA9  A$lcc8968 |    00001DAA  A$lcc8968 |    00001DAC  A$lcc8968
     00001DAD  A$lcc8968 |    00001DAE  A$lcc8968 |    00001DAF  A$lcc8968
     00001DB1  A$lcc8968 |    00001DB2  A$lcc8968 |    00001DB3  A$lcc8968
     00001DB4  A$lcc8968 |    00001DB5  A$lcc8968 |    00001DB6  A$lcc8968
     00001DB7  A$lcc8968 |    00001DB8  A$lcc8968 |    00001DB9  A$lcc8968
     00001DBA  A$lcc8968 |    00001DBB  A$lcc8968 |    00001DBC  A$lcc8968
     00001DBD  A$lcc8968 |    00001DBF  A$lcc8968 |    00001DBF  C$scene.c
     00001DC1  A$lcc8968 |    00001DC2  A$lcc8968 |    00001DC3  A$lcc8968
     00001DC4  A$lcc8968 |    00001DC7  A$lcc8968 |    00001DC8  A$lcc8968
     00001DC9  A$lcc8968 |    00001DCA  A$lcc8968 |    00001DCC  A$lcc8968
     00001DCD  A$lcc8968 |    00001DCE  A$lcc8968 |    00001DCF  A$lcc8968
     00001DD1  A$lcc8968 |    00001DD2  A$lcc8968 |    00001DD4  A$lcc8968
     00001DD5  A$lcc8968 |    00001DD6  A$lcc8968 |    00001DD7  A$lcc8968
     00001DD8  A$lcc8968 |    00001DD9  A$lcc8968 |    00001DDB  A$lcc8968
     00001DDD  A$lcc8968 |    00001DDE  A$lcc8968 |    00001DDF  A$lcc8968
     00001DE0  A$lcc8968 |    00001DE1  A$lcc8968 |    00001DE2  A$lcc8968
     00001DE3  A$lcc8968 |    00001DE5  A$lcc8968 |    00001DE6  A$lcc8968
     00001DE7  A$lcc8968 |    00001DE8  A$lcc8968 |    00001DEA  A$lcc8968
     00001DEB  A$lcc8968 |    00001DEC  A$lcc8968 |    00001DED  A$lcc8968
     00001DEE  A$lcc8968 |    00001DEF  A$lcc8968 |    00001DF0  A$lcc8968
     00001DF1  A$lcc8968 |    00001DF2  A$lcc8968 |    00001DF3  A$lcc8968
     00001DF4  A$lcc8968 |    00001DF6  A$lcc8968 |    00001DF6  C$scene.c
     00001DF8  A$lcc8968 |    00001DF9  A$lcc8968 |    00001DFA  A$lcc8968
     00001DFB  A$lcc8968 |    00001DFD  A$lcc8968 |    00001DFF  A$lcc8968
     00001DFF  C$scene.c |    00001E01  A$lcc8968 |    00001E02  A$lcc8968
     00001E03  A$lcc8968 |    00001E05  A$lcc8968 |    00001E06  A$lcc8968
     00001E07  A$lcc8968 |    00001E08  A$lcc8968 |    00001E09  A$lcc8968
     00001E0B  A$lcc8968 |    00001E0B  C$scene.c |    00001E0D  A$lcc8968
     00001E0E  A$lcc8968 |    00001E0F  A$lcc8968 |    00001E10  A$lcc8968
     00001E12  A$lcc8968 |    00001E12  C$scene.c |    00001E15  A$lcc8968
     00001E16  A$lcc8968 |    00001E18  A$lcc8968 |    00001E19  A$lcc8968
     00001E1A  A$lcc8968 |    00001E1A  C$scene.c |    00001E1D  A$lcc8968
     00001E1F  A$lcc8968 |    00001E20  A$lcc8968 |    00001E23  A$lcc8968
     00001E25  A$lcc8968 |    00001E26  A$lcc8968 |    00001E27  A$lcc8968
     00001E28  A$lcc8968 |    00001E29  A$lcc8968 |    00001E2A  A$lcc8968
     00001E2B  A$lcc8968 |    00001E2C  A$lcc8968 |    00001E2E  A$lcc8968
     00001E2F  A$lcc8968 |    00001E30  A$lcc8968 |    00001E31  A$lcc8968
     00001E32  A$lcc8968 |    00001E33  A$lcc8968 |    00001E34  A$lcc8968
     00001E35  A$lcc8968 |    00001E36  A$lcc8968 |    00001E37  A$lcc8968
     00001E38  A$lcc8968 |    00001E39  A$lcc8968 |    00001E3A  A$lcc8968
     00001E3B  A$lcc8968 |    00001E3D  A$lcc8968 |    00001E3E  A$lcc8968
     00001E3F  A$lcc8968 |    00001E40  A$lcc8968 |    00001E42  A$lcc8968
ASxxxx Linker V03.00 + NoICE + sdld,  page 55.
Hexadecimal  [32-Bits]

Area                       Addr        Size        Decimal Bytes (Attributes)
--------------------       ----        ----        ------- ----- ------------
_HOME                  000010DE    00001580 =        5504. bytes (REL,CON)

        Value  Global            Value  Global            Value  Global    
        -----  ------            -----  ------            -----  ------    
     00001E43  A$lcc8968 |    00001E44  A$lcc8968 |    00001E45  A$lcc8968
     00001E46  A$lcc8968 |    00001E49  A$lcc8968 |    00001E4A  A$lcc8968
     00001E4B  A$lcc8968 |    00001E4C  A$lcc8968 |    00001E4E  A$lcc8968
     00001E4F  A$lcc8968 |    00001E50  A$lcc8968 |    00001E51  A$lcc8968
     00001E53  A$lcc8968 |    00001E54  A$lcc8968 |    00001E55  A$lcc8968
     00001E57  A$lcc8968 |    00001E58  A$lcc8968 |    00001E5A  A$lcc8968
     00001E5B  A$lcc8968 |    00001E5D  A$lcc8968 |    00001E5E  A$lcc8968
     00001E5E  C$scene.c |    00001E60  A$lcc8968 |    00001E61  A$lcc8968
     00001E64  A$lcc8968 |    00001E66  A$lcc8968 |    00001E68  A$lcc8968
     00001E69  A$lcc8968 |    00001E6B  A$lcc8968 |    00001E6C  A$lcc8968
     00001E6D  A$lcc8968 |    00001E6F  A$lcc8968 |    00001E71  A$lcc8968
     00001E72  A$lcc8968 |    00001E73  A$lcc8968 |    00001E76  A$lcc8968
     00001E76  C$scene.c |    00001E77  A$lcc8968 |    00001E78  A$lcc8968
     00001E79  A$lcc8968 |    00001E7A  A$lcc8968 |    00001E7B  A$lcc8968
     00001E7C  A$lcc8968 |    00001E7F  A$lcc8968 |    00001E80  A$lcc8968
     00001E81  A$lcc8968 |    00001E82  A$lcc8968 |    00001E83  A$lcc8968
     00001E84  A$lcc8968 |    00001E87  A$lcc8968 |    00001E87  C$scene.c
     00001E89  A$lcc8968 |    00001E8A  A$lcc8968 |    00001E8B  A$lcc8968
     00001E8C  A$lcc8968 |    00001E8F  A$lcc8968 |    00001E90  A$lcc8968
     00001E91  A$lcc8968 |    00001E92  A$lcc8968 |    00001E94  A$lcc8968
     00001E95  A$lcc8968 |    00001E96  A$lcc8968 |    00001E97  A$lcc8968
     00001E99  A$lcc8968 |    00001E9A  A$lcc8968 |    00001E9B  A$lcc8968
     00001E9C  A$lcc8968 |    00001E9D  A$lcc8968 |    00001E9E  A$lcc8968
     00001E9F  A$lcc8968 |    00001EA1  A$lcc8968 |    00001EA2  A$lcc8968
     00001EA3  A$lcc8968 |    00001EA4  A$lcc8968 |    00001EA5  A$lcc8968
     00001EA8  A$lcc8968 |    00001EAA  A$lcc8968 |    00001EAB  A$lcc8968
     00001EAC  A$lcc8968 |    00001EAD  A$lcc8968 |    00001EAE  A$lcc8968
     00001EAF  A$lcc8968 |    00001EB0  A$lcc8968 |    00001EB1  A$lcc8968
     00001EB2  A$lcc8968 |    00001EB4  A$lcc8968 |    00001EB6  A$lcc8968
     00001EB8  A$lcc8968 |    00001EBA  A$lcc8968 |    00001EBC  A$lcc8968
     00001EBE  A$lcc8968 |    00001EC0  A$lcc8968 |    00001EC2  A$lcc8968
     00001EC4  A$lcc8968 |    00001EC5  A$lcc8968 |    00001EC6  A$lcc8968
     00001EC7  A$lcc8968 |    00001EC8  A$lcc8968 |    00001EC9  A$lcc8968
     00001ECA  A$lcc8968 |    00001ECB  A$lcc8968 |    00001ECC  A$lcc8968
     00001ECE  A$lcc8968 |    00001ED0  A$lcc8968 |    00001ED2  A$lcc8968
     00001ED4  A$lcc8968 |    00001ED6  A$lcc8968 |    00001ED8  A$lcc8968
     00001EDA  A$lcc8968 |    00001EDC  A$lcc8968 |    00001EDD  A$lcc8968
     00001EDF  A$lcc8968 |    00001EE0  A$lcc8968 |    00001EE1  A$lcc8968
     00001EE2  A$lcc8968 |    00001EE5  A$lcc8968 |    00001EE6  A$lcc8968
     00001EE7  A$lcc8968 |    00001EE8  A$lcc8968 |    00001EE9  A$lcc8968
     00001EEC  A$lcc8968 |    00001EEF  A$lcc8968 |    00001EF0  A$lcc8968
     00001EF1  A$lcc8968 |    00001EF2  A$lcc8968 |    00001EF3  A$lcc8968
     00001EF6  A$lcc8968 |    00001EF7  A$lcc8968 |    00001EF8  A$lcc8968
     00001EF9  A$lcc8968 |    00001EFA  A$lcc8968 |    00001EFB  A$lcc8968
     00001EFC  A$lcc8968 |    00001EFD  A$lcc8968 |    00001EFE  A$lcc8968
     00001F00  A$lcc8968 |    00001F01  A$lcc8968 |    00001F02  A$lcc8968
     00001F03  A$lcc8968 |    00001F06  A$lcc8968 |    00001F08  A$lcc8968
     00001F09  A$lcc8968 |    00001F09  C$scene.c |    00001F0B  A$lcc8968
     00001F0C  A$lcc8968 |    00001F0D  A$lcc8968 |    00001F0D  C$scene.c
     00001F0F  A$lcc8968 |    00001F10  A$lcc8968 |    00001F11  A$lcc8968
     00001F12  A$lcc8968 |    00001F15  A$lcc8968 |    00001F16  A$lcc8968
ASxxxx Linker V03.00 + NoICE + sdld,  page 56.
Hexadecimal  [32-Bits]

Area                       Addr        Size        Decimal Bytes (Attributes)
--------------------       ----        ----        ------- ----- ------------
_HOME                  000010DE    00001580 =        5504. bytes (REL,CON)

        Value  Global            Value  Global            Value  Global    
        -----  ------            -----  ------            -----  ------    
     00001F17  A$lcc8968 |    00001F18  A$lcc8968 |    00001F1A  A$lcc8968
     00001F1B  A$lcc8968 |    00001F1C  A$lcc8968 |    00001F1D  A$lcc8968
     00001F1F  A$lcc8968 |    00001F1F  C$scene.c |    00001F20  A$lcc8968
     00001F21  A$lcc8968 |    00001F22  A$lcc8968 |    00001F25  A$lcc8968
     00001F25  C$scene.c |    00001F27  A$lcc8968 |    00001F28  A$lcc8968
     00001F2A  A$lcc8968 |    00001F2D  A$lcc8968 |    00001F2E  A$lcc8968
     00001F2F  A$lcc8968 |    00001F2F  C$scene.c |    00001F31  A$lcc8968
     00001F32  A$lcc8968 |    00001F33  A$lcc8968 |    00001F35  A$lcc8968
     00001F37  A$lcc8968 |    00001F37  C$scene.c |    00001F3A  A$lcc8968
     00001F3B  A$lcc8968 |    00001F3D  A$lcc8968 |    00001F3E  A$lcc8968
     00001F3F  A$lcc8968 |    00001F40  A$lcc8968 |    00001F42  A$lcc8968
     00001F42  C$scene.c |    00001F43  A$lcc8968 |    00001F45  A$lcc8968
     00001F47  A$lcc8968 |    00001F47  C$scene.c |    00001F47  XG$render
     00001F48  A$lcc8968 |    00001F48  C$scene.c |    00001F48  G$render_
     00001F48  _render_w |    00001F4A  A$lcc8968 |    00001F4A  C$scene.c
     00001F4C  A$lcc8968 |    00001F4E  A$lcc8968 |    00001F4F  A$lcc8968
     00001F4F  C$scene.c |    00001F52  A$lcc8968 |    00001F54  A$lcc8968
     00001F55  A$lcc8968 |    00001F58  A$lcc8968 |    00001F5A  A$lcc8968
     00001F5B  A$lcc8968 |    00001F5C  A$lcc8968 |    00001F5D  A$lcc8968
     00001F5E  A$lcc8968 |    00001F5F  A$lcc8968 |    00001F60  A$lcc8968
     00001F61  A$lcc8968 |    00001F63  A$lcc8968 |    00001F64  A$lcc8968
     00001F65  A$lcc8968 |    00001F66  A$lcc8968 |    00001F67  A$lcc8968
     00001F68  A$lcc8968 |    00001F69  A$lcc8968 |    00001F6A  A$lcc8968
     00001F6B  A$lcc8968 |    00001F6C  A$lcc8968 |    00001F6D  A$lcc8968
     00001F6E  A$lcc8968 |    00001F6F  A$lcc8968 |    00001F70  A$lcc8968
     00001F72  A$lcc8968 |    00001F73  A$lcc8968 |    00001F74  A$lcc8968
     00001F75  A$lcc8968 |    00001F77  A$lcc8968 |    00001F78  A$lcc8968
     00001F7B  A$lcc8968 |    00001F7C  A$lcc8968 |    00001F7D  A$lcc8968
     00001F7E  A$lcc8968 |    00001F7F  A$lcc8968 |    00001F80  A$lcc8968
     00001F81  A$lcc8968 |    00001F83  A$lcc8968 |    00001F84  A$lcc8968
     00001F85  A$lcc8968 |    00001F86  A$lcc8968 |    00001F86  C$scene.c
     00001F89  A$lcc8968 |    00001F8C  A$lcc8968 |    00001F8C  C$scene.c
     00001F8F  A$lcc8968 |    00001F92  A$lcc8968 |    00001F92  C$scene.c
     00001F95  A$lcc8968 |    00001F98  A$lcc8968 |    00001F99  A$lcc8968
     00001F9B  A$lcc8968 |    00001F9E  A$lcc8968 |    00001F9F  A$lcc8968
     00001FA1  A$lcc8968 |    00001FA1  C$scene.c |    00001FA4  A$lcc8968
     00001FA6  A$lcc8968 |    00001FA6  C$scene.c |    00001FA9  A$lcc8968
     00001FAA  A$lcc8968 |    00001FAB  A$lcc8968 |    00001FAB  C$scene.c
     00001FAD  A$lcc8968 |    00001FAF  A$lcc8968 |    00001FAF  C$scene.c
     00001FB2  A$lcc8968 |    00001FB4  A$lcc8968 |    00001FB5  A$lcc8968
     00001FB7  A$lcc8968 |    00001FB8  A$lcc8968 |    00001FB9  A$lcc8968
     00001FBC  A$lcc8968 |    00001FBC  C$scene.c |    00001FBE  A$lcc8968
     00001FBF  A$lcc8968 |    00001FC0  A$lcc8968 |    00001FC1  A$lcc8968
     00001FC4  A$lcc8968 |    00001FC5  A$lcc8968 |    00001FC6  A$lcc8968
     00001FC7  A$lcc8968 |    00001FC9  A$lcc8968 |    00001FCA  A$lcc8968
     00001FCB  A$lcc8968 |    00001FCC  A$lcc8968 |    00001FCE  A$lcc8968
     00001FCF  A$lcc8968 |    00001FD0  A$lcc8968 |    00001FD1  A$lcc8968
     00001FD2  A$lcc8968 |    00001FD3  A$lcc8968 |    00001FD5  A$lcc8968
     00001FD6  A$lcc8968 |    00001FD6  C$scene.c |    00001FD8  A$lcc8968
     00001FD9  A$lcc8968 |    00001FDA  A$lcc8968 |    00001FDB  A$lcc8968
     00001FDE  A$lcc8968 |    00001FDF  A$lcc8968 |    00001FE0  A$lcc8968
ASxxxx Linker V03.00 + NoICE + sdld,  page 57.
Hexadecimal  [32-Bits]

Area                       Addr        Size        Decimal Bytes (Attributes)
--------------------       ----        ----        ------- ----- ------------
_HOME                  000010DE    00001580 =        5504. bytes (REL,CON)

        Value  Global            Value  Global            Value  Global    
        -----  ------            -----  ------            -----  ------    
     00001FE1  A$lcc8968 |    00001FE3  A$lcc8968 |    00001FE4  A$lcc8968
     00001FE5  A$lcc8968 |    00001FE6  A$lcc8968 |    00001FE8  A$lcc8968
     00001FE9  A$lcc8968 |    00001FEB  A$lcc8968 |    00001FEC  A$lcc8968
     00001FED  A$lcc8968 |    00001FEF  A$lcc8968 |    00001FF0  A$lcc8968
     00001FF1  A$lcc8968 |    00001FF3  A$lcc8968 |    00001FF5  A$lcc8968
     00001FF6  A$lcc8968 |    00001FF7  A$lcc8968 |    00001FF8  A$lcc8968
     00001FF9  A$lcc8968 |    00001FFA  A$lcc8968 |    00001FFB  A$lcc8968
     00001FFD  A$lcc8968 |    00001FFE  A$lcc8968 |    00001FFF  A$lcc8968
     00002000  A$lcc8968 |    00002002  A$lcc8968 |    00002003  A$lcc8968
     00002004  A$lcc8968 |    00002005  A$lcc8968 |    00002006  A$lcc8968
     00002007  A$lcc8968 |    00002009  A$lcc8968 |    0000200A  A$lcc8968
     0000200B  A$lcc8968 |    0000200C  A$lcc8968 |    0000200D  A$lcc8968
     0000200D  C$scene.c |    0000200E  A$lcc8968 |    0000200F  A$lcc8968
     00002012  A$lcc8968 |    00002014  A$lcc8968 |    00002015  A$lcc8968
     00002016  A$lcc8968 |    00002017  A$lcc8968 |    0000201A  A$lcc8968
     0000201B  A$lcc8968 |    0000201C  A$lcc8968 |    0000201D  A$lcc8968
     0000201F  A$lcc8968 |    00002020  A$lcc8968 |    00002021  A$lcc8968
     00002022  A$lcc8968 |    00002024  A$lcc8968 |    00002025  A$lcc8968
     00002026  A$lcc8968 |    00002027  A$lcc8968 |    00002028  A$lcc8968
     00002029  A$lcc8968 |    0000202A  A$lcc8968 |    0000202A  C$scene.c
     0000202C  A$lcc8968 |    0000202D  A$lcc8968 |    0000202E  A$lcc8968
     0000202F  A$lcc8968 |    00002032  A$lcc8968 |    00002033  A$lcc8968
     00002034  A$lcc8968 |    00002035  A$lcc8968 |    00002037  A$lcc8968
     00002038  A$lcc8968 |    00002039  A$lcc8968 |    0000203A  A$lcc8968
     0000203C  A$lcc8968 |    0000203D  A$lcc8968 |    0000203D  C$scene.c
     0000203E  A$lcc8968 |    00002041  A$lcc8968 |    00002041  C$scene.c
     00002043  A$lcc8968 |    00002044  A$lcc8968 |    00002045  A$lcc8968
     00002046  A$lcc8968 |    00002049  A$lcc8968 |    0000204A  A$lcc8968
     0000204B  A$lcc8968 |    0000204C  A$lcc8968 |    0000204E  A$lcc8968
     0000204F  A$lcc8968 |    00002050  A$lcc8968 |    00002051  A$lcc8968
     00002053  A$lcc8968 |    00002054  A$lcc8968 |    00002055  A$lcc8968
     00002056  A$lcc8968 |    00002057  A$lcc8968 |    00002058  A$lcc8968
     0000205A  A$lcc8968 |    0000205B  A$lcc8968 |    0000205C  A$lcc8968
     0000205D  A$lcc8968 |    0000205E  A$lcc8968 |    0000205F  A$lcc8968
     00002060  A$lcc8968 |    00002062  A$lcc8968 |    00002063  A$lcc8968
     00002065  A$lcc8968 |    00002066  A$lcc8968 |    00002068  A$lcc8968
     00002069  A$lcc8968 |    0000206B  A$lcc8968 |    0000206C  A$lcc8968
     0000206E  A$lcc8968 |    0000206F  A$lcc8968 |    00002070  A$lcc8968
     00002071  A$lcc8968 |    00002072  A$lcc8968 |    00002074  A$lcc8968
     00002075  A$lcc8968 |    00002076  A$lcc8968 |    00002077  A$lcc8968
     00002078  A$lcc8968 |    00002079  A$lcc8968 |    0000207A  A$lcc8968
     0000207C  A$lcc8968 |    0000207D  A$lcc8968 |    0000207E  A$lcc8968
     0000207F  A$lcc8968 |    00002081  A$lcc8968 |    00002082  A$lcc8968
     00002083  A$lcc8968 |    00002084  A$lcc8968 |    00002085  A$lcc8968
     00002086  A$lcc8968 |    00002087  A$lcc8968 |    00002088  A$lcc8968
     00002089  A$lcc8968 |    0000208A  A$lcc8968 |    0000208B  A$lcc8968
     0000208C  A$lcc8968 |    0000208D  A$lcc8968 |    00002090  A$lcc8968
     00002090  C$scene.c |    00002092  A$lcc8968 |    00002093  A$lcc8968
     00002094  A$lcc8968 |    00002095  A$lcc8968 |    00002098  A$lcc8968
     00002099  A$lcc8968 |    0000209A  A$lcc8968 |    0000209B  A$lcc8968
     0000209C  A$lcc8968 |    0000209E  A$lcc8968 |    0000209F  A$lcc8968
ASxxxx Linker V03.00 + NoICE + sdld,  page 58.
Hexadecimal  [32-Bits]

Area                       Addr        Size        Decimal Bytes (Attributes)
--------------------       ----        ----        ------- ----- ------------
_HOME                  000010DE    00001580 =        5504. bytes (REL,CON)

        Value  Global            Value  Global            Value  Global    
        -----  ------            -----  ------            -----  ------    
     000020A2  A$lcc8968 |    000020A2  C$scene.c |    000020A4  A$lcc8968
     000020A5  A$lcc8968 |    000020A6  A$lcc8968 |    000020A7  A$lcc8968
     000020A8  A$lcc8968 |    000020AA  A$lcc8968 |    000020AB  A$lcc8968
     000020AD  A$lcc8968 |    000020AE  A$lcc8968 |    000020AF  A$lcc8968
     000020B0  A$lcc8968 |    000020B1  A$lcc8968 |    000020B2  A$lcc8968
     000020B3  A$lcc8968 |    000020B4  A$lcc8968 |    000020B5  A$lcc8968
     000020B6  A$lcc8968 |    000020B7  A$lcc8968 |    000020B9  A$lcc8968
     000020BA  A$lcc8968 |    000020BB  A$lcc8968 |    000020BC  A$lcc8968
     000020BD  A$lcc8968 |    000020BF  A$lcc8968 |    000020C0  A$lcc8968
     000020C1  A$lcc8968 |    000020C2  A$lcc8968 |    000020C5  A$lcc8968
     000020C6  A$lcc8968 |    000020C7  A$lcc8968 |    000020C8  A$lcc8968
     000020CA  A$lcc8968 |    000020CB  A$lcc8968 |    000020CC  A$lcc8968
     000020CD  A$lcc8968 |    000020CF  A$lcc8968 |    000020D0  A$lcc8968
     000020D0  C$scene.c |    000020D2  A$lcc8968 |    000020D3  A$lcc8968
     000020D4  A$lcc8968 |    000020D5  A$lcc8968 |    000020D8  A$lcc8968
     000020D9  A$lcc8968 |    000020DA  A$lcc8968 |    000020DB  A$lcc8968
     000020DD  A$lcc8968 |    000020DE  A$lcc8968 |    000020DF  A$lcc8968
     000020E0  A$lcc8968 |    000020E2  A$lcc8968 |    000020E3  A$lcc8968
     000020E4  A$lcc8968 |    000020E5  A$lcc8968 |    000020E6  A$lcc8968
     000020E8  A$lcc8968 |    000020E9  A$lcc8968 |    000020EA  A$lcc8968
     000020EB  A$lcc8968 |    000020EC  A$lcc8968 |    000020EE  A$lcc8968
     000020EF  A$lcc8968 |    000020F0  A$lcc8968 |    000020F0  C$scene.c
     000020F1  A$lcc8968 |    000020F2  A$lcc8968 |    000020F4  A$lcc8968
     000020F6  A$lcc8968 |    000020F8  A$lcc8968 |    000020FA  A$lcc8968
     000020FC  A$lcc8968 |    000020FE  A$lcc8968 |    00002100  A$lcc8968
     00002102  A$lcc8968 |    00002103  A$lcc8968 |    00002104  A$lcc8968
     00002105  A$lcc8968 |    00002106  A$lcc8968 |    00002108  A$lcc8968
     00002109  A$lcc8968 |    0000210B  A$lcc8968 |    0000210C  A$lcc8968
     0000210D  A$lcc8968 |    0000210E  A$lcc8968 |    0000210F  A$lcc8968
     00002110  A$lcc8968 |    00002111  A$lcc8968 |    00002112  A$lcc8968
     00002114  A$lcc8968 |    00002116  A$lcc8968 |    00002118  A$lcc8968
     0000211A  A$lcc8968 |    0000211C  A$lcc8968 |    0000211E  A$lcc8968
     00002120  A$lcc8968 |    00002122  A$lcc8968 |    00002123  A$lcc8968
     00002124  A$lcc8968 |    00002125  A$lcc8968 |    00002126  A$lcc8968
     00002127  A$lcc8968 |    00002128  A$lcc8968 |    0000212A  A$lcc8968
     0000212C  A$lcc8968 |    0000212C  C$scene.c |    0000212D  A$lcc8968
     0000212D  C$scene.c |    0000212F  A$lcc8968 |    00002130  A$lcc8968
     00002131  A$lcc8968 |    00002132  A$lcc8968 |    00002133  A$lcc8968
     00002134  A$lcc8968 |    00002135  A$lcc8968 |    00002136  A$lcc8968
     00002137  A$lcc8968 |    00002138  A$lcc8968 |    0000213A  A$lcc8968
     0000213B  A$lcc8968 |    0000213C  A$lcc8968 |    0000213D  A$lcc8968
     0000213E  A$lcc8968 |    0000213E  C$scene.c |    00002140  A$lcc8968
     00002141  A$lcc8968 |    00002142  A$lcc8968 |    00002144  A$lcc8968
     00002146  A$lcc8968 |    00002147  A$lcc8968 |    00002149  A$lcc8968
     0000214B  A$lcc8968 |    0000214D  A$lcc8968 |    0000214E  A$lcc8968
     00002150  A$lcc8968 |    00002152  A$lcc8968 |    00002154  A$lcc8968
     00002155  A$lcc8968 |    00002157  A$lcc8968 |    00002159  A$lcc8968
     0000215B  A$lcc8968 |    0000215C  A$lcc8968 |    0000215E  A$lcc8968
     00002160  A$lcc8968 |    00002162  A$lcc8968 |    00002163  A$lcc8968
     00002165  A$lcc8968 |    00002167  A$lcc8968 |    00002169  A$lcc8968
     0000216A  A$lcc8968 |    0000216C  A$lcc8968 |    0000216E  A$lcc8968
ASxxxx Linker V03.00 + NoICE + sdld,  page 59.
Hexadecimal  [32-Bits]

Area                       Addr        Size        Decimal Bytes (Attributes)
--------------------       ----        ----        ------- ----- ------------
_HOME                  000010DE    00001580 =        5504. bytes (REL,CON)

        Value  Global            Value  Global            Value  Global    
        -----  ------            -----  ------            -----  ------    
     00002170  A$lcc8968 |    00002171  A$lcc8968 |    00002173  A$lcc8968
     00002175  A$lcc8968 |    00002177  A$lcc8968 |    00002178  A$lcc8968
     0000217A  A$lcc8968 |    0000217C  A$lcc8968 |    0000217E  A$lcc8968
     0000217F  A$lcc8968 |    00002181  A$lcc8968 |    00002183  A$lcc8968
     00002185  A$lcc8968 |    00002186  A$lcc8968 |    00002188  A$lcc8968
     0000218A  A$lcc8968 |    0000218C  A$lcc8968 |    0000218D  A$lcc8968
     00002190  A$lcc8968 |    00002192  A$lcc8968 |    00002193  A$lcc8968
     00002196  A$lcc8968 |    00002198  A$lcc8968 |    00002199  A$lcc8968
     0000219C  A$lcc8968 |    0000219E  A$lcc8968 |    0000219F  A$lcc8968
     000021A1  A$lcc8968 |    000021A2  A$lcc8968 |    000021A3  A$lcc8968
     000021A4  A$lcc8968 |    000021A5  A$lcc8968 |    000021A6  A$lcc8968
     000021A7  A$lcc8968 |    000021A8  A$lcc8968 |    000021A9  A$lcc8968
     000021AA  A$lcc8968 |    000021AD  A$lcc8968 |    000021AF  A$lcc8968
     000021B1  A$lcc8968 |    000021B2  A$lcc8968 |    000021B2  C$scene.c
     000021B3  A$lcc8968 |    000021B4  A$lcc8968 |    000021B5  A$lcc8968
     000021B5  C$scene.c |    000021B8  A$lcc8968 |    000021B9  A$lcc8968
     000021BC  A$lcc8968 |    000021BC  C$scene.c |    000021BE  A$lcc8968
     000021BF  A$lcc8968 |    000021C0  A$lcc8968 |    000021C1  A$lcc8968
     000021C3  A$lcc8968 |    000021C6  A$lcc8968 |    000021C8  A$lcc8968
     000021C9  A$lcc8968 |    000021CC  A$lcc8968 |    000021CE  A$lcc8968
     000021CF  A$lcc8968 |    000021D2  A$lcc8968 |    000021D4  A$lcc8968
     000021D5  A$lcc8968 |    000021D8  A$lcc8968 |    000021DA  A$lcc8968
     000021DB  A$lcc8968 |    000021DC  A$lcc8968 |    000021DD  A$lcc8968
     000021DE  A$lcc8968 |    000021DF  A$lcc8968 |    000021E0  A$lcc8968
     000021E1  A$lcc8968 |    000021E2  A$lcc8968 |    000021E5  A$lcc8968
     000021E7  A$lcc8968 |    000021E8  A$lcc8968 |    000021E8  C$scene.c
     000021EA  A$lcc8968 |    000021EB  A$lcc8968 |    000021EC  A$lcc8968
     000021EC  C$scene.c |    000021EF  A$lcc8968 |    000021F0  A$lcc8968
     000021F2  A$lcc8968 |    000021F2  C$scene.c |    000021F4  A$lcc8968
     000021F5  A$lcc8968 |    000021F6  A$lcc8968 |    000021F7  A$lcc8968
     000021F9  A$lcc8968 |    000021FB  A$lcc8968 |    000021FB  C$scene.c
     000021FD  A$lcc8968 |    000021FE  A$lcc8968 |    000021FF  A$lcc8968
     00002200  A$lcc8968 |    00002202  A$lcc8968 |    00002204  A$lcc8968
     00002205  A$lcc8968 |    00002206  A$lcc8968 |    00002207  A$lcc8968
     00002208  A$lcc8968 |    0000220A  A$lcc8968 |    0000220B  A$lcc8968
     0000220C  A$lcc8968 |    0000220D  A$lcc8968 |    0000220E  A$lcc8968
     0000220F  A$lcc8968 |    00002210  A$lcc8968 |    00002211  A$lcc8968
     00002212  A$lcc8968 |    00002214  A$lcc8968 |    00002215  A$lcc8968
     00002216  A$lcc8968 |    00002217  A$lcc8968 |    00002219  A$lcc8968
     0000221A  A$lcc8968 |    0000221C  A$lcc8968 |    0000221D  A$lcc8968
     0000221E  A$lcc8968 |    0000221F  A$lcc8968 |    00002220  A$lcc8968
     00002222  A$lcc8968 |    00002223  A$lcc8968 |    00002224  A$lcc8968
     00002225  A$lcc8968 |    00002226  A$lcc8968 |    00002227  A$lcc8968
     00002228  A$lcc8968 |    0000222A  A$lcc8968 |    0000222B  A$lcc8968
     0000222C  A$lcc8968 |    0000222D  A$lcc8968 |    0000222F  A$lcc8968
     00002230  A$lcc8968 |    00002231  A$lcc8968 |    00002232  A$lcc8968
     00002233  A$lcc8968 |    00002234  A$lcc8968 |    00002235  A$lcc8968
     00002236  A$lcc8968 |    00002237  A$lcc8968 |    00002238  A$lcc8968
     00002239  A$lcc8968 |    0000223A  A$lcc8968 |    0000223D  A$lcc8968
     0000223F  A$lcc8968 |    00002240  A$lcc8968 |    00002243  A$lcc8968
     00002245  A$lcc8968 |    00002246  A$lcc8968 |    00002247  A$lcc8968
ASxxxx Linker V03.00 + NoICE + sdld,  page 60.
Hexadecimal  [32-Bits]

Area                       Addr        Size        Decimal Bytes (Attributes)
--------------------       ----        ----        ------- ----- ------------
_HOME                  000010DE    00001580 =        5504. bytes (REL,CON)

        Value  Global            Value  Global            Value  Global    
        -----  ------            -----  ------            -----  ------    
     00002248  A$lcc8968 |    0000224B  A$lcc8968 |    0000224C  A$lcc8968
     0000224C  C$scene.c |    0000224C  C$scene.c |    0000224F  A$lcc8968
     00002250  A$lcc8968 |    00002253  A$lcc8968 |    00002256  A$lcc8968
     00002257  A$lcc8968 |    0000225A  A$lcc8968 |    0000225A  C$scene.c
     0000225C  A$lcc8968 |    0000225D  A$lcc8968 |    0000225E  A$lcc8968
     0000225F  A$lcc8968 |    00002260  A$lcc8968 |    00002261  A$lcc8968
     00002262  A$lcc8968 |    00002263  A$lcc8968 |    00002264  A$lcc8968
     00002265  A$lcc8968 |    00002266  A$lcc8968 |    00002266  C$scene.c
     00002268  A$lcc8968 |    00002269  A$lcc8968 |    0000226A  A$lcc8968
     0000226B  A$lcc8968 |    0000226C  A$lcc8968 |    0000226E  A$lcc8968
     0000226F  A$lcc8968 |    00002271  A$lcc8968 |    00002272  A$lcc8968
     00002273  A$lcc8968 |    00002274  A$lcc8968 |    00002275  A$lcc8968
     00002276  A$lcc8968 |    00002277  A$lcc8968 |    00002278  A$lcc8968
     0000227A  A$lcc8968 |    0000227B  A$lcc8968 |    0000227C  A$lcc8968
     0000227D  A$lcc8968 |    0000227F  A$lcc8968 |    00002280  A$lcc8968
     00002282  A$lcc8968 |    00002283  A$lcc8968 |    00002284  A$lcc8968
     00002285  A$lcc8968 |    00002286  A$lcc8968 |    00002288  A$lcc8968
     00002289  A$lcc8968 |    0000228A  A$lcc8968 |    0000228B  A$lcc8968
     0000228C  A$lcc8968 |    0000228D  A$lcc8968 |    0000228E  A$lcc8968
     00002290  A$lcc8968 |    00002291  A$lcc8968 |    00002292  A$lcc8968
     00002293  A$lcc8968 |    00002295  A$lcc8968 |    00002296  A$lcc8968
     00002297  A$lcc8968 |    00002298  A$lcc8968 |    00002299  A$lcc8968
     0000229A  A$lcc8968 |    0000229B  A$lcc8968 |    0000229C  A$lcc8968
     0000229D  A$lcc8968 |    0000229E  A$lcc8968 |    0000229F  A$lcc8968
     000022A0  A$lcc8968 |    000022A1  A$lcc8968 |    000022A3  A$lcc8968
     000022A3  C$scene.c |    000022A5  A$lcc8968 |    000022A6  A$lcc8968
     000022A7  A$lcc8968 |    000022A8  A$lcc8968 |    000022AB  A$lcc8968
     000022AC  A$lcc8968 |    000022AD  A$lcc8968 |    000022AE  A$lcc8968
     000022B0  A$lcc8968 |    000022B1  A$lcc8968 |    000022B2  A$lcc8968
     000022B3  A$lcc8968 |    000022B5  A$lcc8968 |    000022B6  A$lcc8968
     000022B8  A$lcc8968 |    000022B9  A$lcc8968 |    000022BA  A$lcc8968
     000022BB  A$lcc8968 |    000022BC  A$lcc8968 |    000022BD  A$lcc8968
     000022BF  A$lcc8968 |    000022C1  A$lcc8968 |    000022C2  A$lcc8968
     000022C3  A$lcc8968 |    000022C4  A$lcc8968 |    000022C5  A$lcc8968
     000022C6  A$lcc8968 |    000022C7  A$lcc8968 |    000022C9  A$lcc8968
     000022CA  A$lcc8968 |    000022CB  A$lcc8968 |    000022CC  A$lcc8968
     000022CE  A$lcc8968 |    000022CF  A$lcc8968 |    000022D0  A$lcc8968
     000022D1  A$lcc8968 |    000022D2  A$lcc8968 |    000022D3  A$lcc8968
     000022D4  A$lcc8968 |    000022D5  A$lcc8968 |    000022D6  A$lcc8968
     000022D7  A$lcc8968 |    000022D8  A$lcc8968 |    000022DA  A$lcc8968
     000022DA  C$scene.c |    000022DC  A$lcc8968 |    000022DD  A$lcc8968
     000022DE  A$lcc8968 |    000022DF  A$lcc8968 |    000022E1  A$lcc8968
     000022E3  A$lcc8968 |    000022E3  C$scene.c |    000022E5  A$lcc8968
     000022E6  A$lcc8968 |    000022E7  A$lcc8968 |    000022E9  A$lcc8968
     000022EA  A$lcc8968 |    000022EB  A$lcc8968 |    000022EC  A$lcc8968
     000022ED  A$lcc8968 |    000022EF  A$lcc8968 |    000022EF  C$scene.c
     000022F1  A$lcc8968 |    000022F2  A$lcc8968 |    000022F3  A$lcc8968
     000022F4  A$lcc8968 |    000022F6  A$lcc8968 |    000022F6  C$scene.c
     000022F9  A$lcc8968 |    000022FA  A$lcc8968 |    000022FC  A$lcc8968
     000022FD  A$lcc8968 |    000022FE  A$lcc8968 |    000022FE  C$scene.c
     00002301  A$lcc8968 |    00002303  A$lcc8968 |    00002304  A$lcc8968
ASxxxx Linker V03.00 + NoICE + sdld,  page 61.
Hexadecimal  [32-Bits]

Area                       Addr        Size        Decimal Bytes (Attributes)
--------------------       ----        ----        ------- ----- ------------
_HOME                  000010DE    00001580 =        5504. bytes (REL,CON)

        Value  Global            Value  Global            Value  Global    
        -----  ------            -----  ------            -----  ------    
     00002307  A$lcc8968 |    00002309  A$lcc8968 |    0000230A  A$lcc8968
     0000230B  A$lcc8968 |    0000230C  A$lcc8968 |    0000230D  A$lcc8968
     0000230E  A$lcc8968 |    0000230F  A$lcc8968 |    00002310  A$lcc8968
     00002312  A$lcc8968 |    00002313  A$lcc8968 |    00002314  A$lcc8968
     00002315  A$lcc8968 |    00002316  A$lcc8968 |    00002317  A$lcc8968
     00002318  A$lcc8968 |    00002319  A$lcc8968 |    0000231A  A$lcc8968
     0000231B  A$lcc8968 |    0000231C  A$lcc8968 |    0000231D  A$lcc8968
     0000231E  A$lcc8968 |    0000231F  A$lcc8968 |    00002321  A$lcc8968
     00002322  A$lcc8968 |    00002323  A$lcc8968 |    00002324  A$lcc8968
     00002326  A$lcc8968 |    00002327  A$lcc8968 |    00002328  A$lcc8968
     00002329  A$lcc8968 |    0000232A  A$lcc8968 |    0000232D  A$lcc8968
     0000232E  A$lcc8968 |    0000232F  A$lcc8968 |    00002330  A$lcc8968
     00002332  A$lcc8968 |    00002333  A$lcc8968 |    00002334  A$lcc8968
     00002335  A$lcc8968 |    00002337  A$lcc8968 |    00002338  A$lcc8968
     00002339  A$lcc8968 |    0000233B  A$lcc8968 |    0000233C  A$lcc8968
     0000233E  A$lcc8968 |    0000233F  A$lcc8968 |    00002341  A$lcc8968
     00002342  A$lcc8968 |    00002342  C$scene.c |    00002344  A$lcc8968
     00002345  A$lcc8968 |    00002348  A$lcc8968 |    00002348  C$scene.c
     0000234A  A$lcc8968 |    0000234B  A$lcc8968 |    0000234D  A$lcc8968
     00002350  A$lcc8968 |    00002351  A$lcc8968 |    00002352  A$lcc8968
     00002352  C$scene.c |    00002354  A$lcc8968 |    00002355  A$lcc8968
     00002356  A$lcc8968 |    00002358  A$lcc8968 |    0000235A  A$lcc8968
     0000235A  C$scene.c |    0000235D  A$lcc8968 |    0000235E  A$lcc8968
     00002360  A$lcc8968 |    00002361  A$lcc8968 |    00002362  A$lcc8968
     00002363  A$lcc8968 |    00002365  A$lcc8968 |    00002365  C$scene.c
     00002366  A$lcc8968 |    00002368  A$lcc8968 |    0000236A  A$lcc8968
     0000236A  C$scene.c |    0000236A  XG$render |    0000236B  _abs     
     0000237A  __mulsuch |    00002384  __mulusch |    0000238E  __mulscha
     000023A0  __mulucha |    000023AC  __mulint  |    000023D2  _set_tile
     000023D7  _set_bkg_ |    000023D7  _set_win_ |    000023DF  _set_spri
     0000240F  _set_bkg_ |    00002453  .set_xy_w |    0000245C  .set_xy_b
     0000246B  .set_xy_s |    000024B1  .padup    |    000024B1  _waitpadu
     000024C1  .jpad     |    000024C1  _joypad   |    000024E9  _waitpad 
     000024EC  .wait_pad |    000024F3  ___sdcc_c |    000024F4  ___memcpy
     000024F4  _memcpy   |    00002537  __divsuch |    00002544  __modsuch
     0000254E  __divusch |    00002560  __modusch |    00002570  __divscha
     0000257C  __modscha |    00002586  __divsint |    00002597  __modsint
     000025A6  __divucha |    000025B2  __moducha |    000025BC  __divuint
     000025CD  __moduint |    000025DC  .div8     |    000025DC  .mod8    
     000025E4  .div16    |    000025E4  .mod16    |    0000261A  .divu8   
     0000261A  .modu8    |    0000261D  .divu16   |    0000261D  .modu16  
ASxxxx Linker V03.00 + NoICE + sdld,  page 62.
Hexadecimal  [32-Bits]

Area                       Addr        Size        Decimal Bytes (Attributes)
--------------------       ----        ----        ------- ----- ------------
_CODE_0                0000265E    000016A1 =        5793. bytes (REL,CON)

        Value  Global            Value  Global            Value  Global    
        -----  ------            -----  ------            -----  ------    
     0000265E  A$lcc8968 |    0000265E  C$collisi |    0000265E  G$check_L
     0000265E  _check_LR |    00002660  A$lcc8968 |    00002660  C$collisi
     00002662  A$lcc8968 |    00002664  A$lcc8968 |    00002665  A$lcc8968
     00002665  C$collisi |    00002668  A$lcc8968 |    00002669  A$lcc8968
     0000266B  A$lcc8968 |    0000266E  A$lcc8968 |    0000266F  A$lcc8968
     00002670  A$lcc8968 |    00002670  C$collisi |    00002673  A$lcc8968
     00002675  A$lcc8968 |    00002677  A$lcc8968 |    00002677  C$collisi
     0000267A  A$lcc8968 |    0000267C  A$lcc8968 |    0000267C  C$collisi
     0000267F  A$lcc8968 |    00002681  A$lcc8968 |    00002683  A$lcc8968
     00002683  C$collisi |    00002684  A$lcc8968 |    00002686  A$lcc8968
     00002686  C$collisi |    00002689  A$lcc8968 |    0000268B  A$lcc8968
     0000268B  C$collisi |    0000268E  A$lcc8968 |    00002690  A$lcc8968
     00002690  C$collisi |    00002692  A$lcc8968 |    00002693  A$lcc8968
     00002695  A$lcc8968 |    00002696  A$lcc8968 |    00002698  A$lcc8968
     00002699  A$lcc8968 |    0000269B  A$lcc8968 |    0000269C  A$lcc8968
     0000269C  C$collisi |    0000269E  A$lcc8968 |    0000269F  A$lcc8968
     000026A1  A$lcc8968 |    000026A2  A$lcc8968 |    000026A3  A$lcc8968
     000026A4  A$lcc8968 |    000026A5  A$lcc8968 |    000026A6  A$lcc8968
     000026A7  A$lcc8968 |    000026AA  A$lcc8968 |    000026AB  A$lcc8968
     000026AC  A$lcc8968 |    000026AD  A$lcc8968 |    000026AE  A$lcc8968
     000026AF  A$lcc8968 |    000026B1  A$lcc8968 |    000026B2  A$lcc8968
     000026B3  A$lcc8968 |    000026B4  A$lcc8968 |    000026B5  A$lcc8968
     000026B6  A$lcc8968 |    000026B8  A$lcc8968 |    000026BA  A$lcc8968
     000026BC  A$lcc8968 |    000026BD  A$lcc8968 |    000026BE  A$lcc8968
     000026BF  A$lcc8968 |    000026C2  A$lcc8968 |    000026C3  A$lcc8968
     000026C4  A$lcc8968 |    000026C5  A$lcc8968 |    000026C7  A$lcc8968
     000026C8  A$lcc8968 |    000026C9  A$lcc8968 |    000026CA  A$lcc8968
     000026CC  A$lcc8968 |    000026CD  A$lcc8968 |    000026CF  A$lcc8968
     000026D0  A$lcc8968 |    000026D2  A$lcc8968 |    000026D3  A$lcc8968
     000026D5  A$lcc8968 |    000026D6  A$lcc8968 |    000026D8  A$lcc8968
     000026D9  A$lcc8968 |    000026DB  A$lcc8968 |    000026DB  C$collisi
     000026DD  A$lcc8968 |    000026DE  A$lcc8968 |    000026DF  A$lcc8968
     000026E0  A$lcc8968 |    000026E3  A$lcc8968 |    000026E4  A$lcc8968
     000026E5  A$lcc8968 |    000026E6  A$lcc8968 |    000026E7  A$lcc8968
     000026E8  A$lcc8968 |    000026EA  A$lcc8968 |    000026EB  A$lcc8968
     000026EC  A$lcc8968 |    000026ED  A$lcc8968 |    000026EE  A$lcc8968
     000026EF  A$lcc8968 |    000026F1  A$lcc8968 |    000026F3  A$lcc8968
     000026F5  A$lcc8968 |    000026F6  A$lcc8968 |    000026F7  A$lcc8968
     000026F8  A$lcc8968 |    000026FB  A$lcc8968 |    000026FC  A$lcc8968
     000026FD  A$lcc8968 |    000026FE  A$lcc8968 |    00002700  A$lcc8968
     00002701  A$lcc8968 |    00002702  A$lcc8968 |    00002703  A$lcc8968
     00002705  A$lcc8968 |    00002706  A$lcc8968 |    00002708  A$lcc8968
     00002709  A$lcc8968 |    0000270B  A$lcc8968 |    0000270C  A$lcc8968
     0000270E  A$lcc8968 |    0000270F  A$lcc8968 |    00002711  A$lcc8968
     00002712  A$lcc8968 |    00002714  A$lcc8968 |    00002714  C$collisi
     00002716  A$lcc8968 |    00002717  A$lcc8968 |    00002718  A$lcc8968
     00002719  A$lcc8968 |    0000271A  A$lcc8968 |    0000271C  A$lcc8968
     0000271D  A$lcc8968 |    0000271E  A$lcc8968 |    0000271F  A$lcc8968
     00002721  A$lcc8968 |    00002723  A$lcc8968 |    00002725  A$lcc8968
     00002726  A$lcc8968 |    00002727  A$lcc8968 |    00002728  A$lcc8968
ASxxxx Linker V03.00 + NoICE + sdld,  page 63.
Hexadecimal  [32-Bits]

Area                       Addr        Size        Decimal Bytes (Attributes)
--------------------       ----        ----        ------- ----- ------------
_CODE_0                0000265E    000016A1 =        5793. bytes (REL,CON)

        Value  Global            Value  Global            Value  Global    
        -----  ------            -----  ------            -----  ------    
     0000272B  A$lcc8968 |    0000272C  A$lcc8968 |    0000272D  A$lcc8968
     0000272E  A$lcc8968 |    00002730  A$lcc8968 |    00002731  A$lcc8968
     00002732  A$lcc8968 |    00002733  A$lcc8968 |    00002735  A$lcc8968
     00002736  A$lcc8968 |    00002738  A$lcc8968 |    00002739  A$lcc8968
     0000273B  A$lcc8968 |    0000273C  A$lcc8968 |    0000273E  A$lcc8968
     0000273F  A$lcc8968 |    00002741  A$lcc8968 |    00002742  A$lcc8968
     00002744  A$lcc8968 |    00002745  A$lcc8968 |    00002747  A$lcc8968
     00002748  A$lcc8968 |    0000274A  A$lcc8968 |    0000274B  A$lcc8968
     0000274D  A$lcc8968 |    0000274E  A$lcc8968 |    00002750  A$lcc8968
     00002751  A$lcc8968 |    00002753  A$lcc8968 |    00002753  C$collisi
     00002755  A$lcc8968 |    00002756  A$lcc8968 |    00002758  A$lcc8968
     0000275B  A$lcc8968 |    0000275C  A$lcc8968 |    0000275D  A$lcc8968
     0000275E  A$lcc8968 |    0000275F  A$lcc8968 |    00002760  A$lcc8968
     00002761  A$lcc8968 |    00002762  A$lcc8968 |    00002763  A$lcc8968
     00002764  A$lcc8968 |    00002765  A$lcc8968 |    00002767  A$lcc8968
     00002768  A$lcc8968 |    00002769  A$lcc8968 |    0000276A  A$lcc8968
     0000276B  A$lcc8968 |    0000276C  A$lcc8968 |    0000276D  A$lcc8968
     0000276F  A$lcc8968 |    00002771  A$lcc8968 |    00002773  A$lcc8968
     00002775  A$lcc8968 |    00002777  A$lcc8968 |    00002779  A$lcc8968
     00002779  C$collisi |    0000277C  A$lcc8968 |    0000277D  A$lcc8968
     0000277E  A$lcc8968 |    0000277F  A$lcc8968 |    00002780  A$lcc8968
     00002781  A$lcc8968 |    00002782  A$lcc8968 |    00002783  A$lcc8968
     00002784  A$lcc8968 |    00002785  A$lcc8968 |    00002786  A$lcc8968
     00002788  A$lcc8968 |    00002789  A$lcc8968 |    0000278A  A$lcc8968
     0000278B  A$lcc8968 |    0000278C  A$lcc8968 |    0000278D  A$lcc8968
     0000278E  A$lcc8968 |    00002790  A$lcc8968 |    00002791  A$lcc8968
     00002792  A$lcc8968 |    00002793  A$lcc8968 |    00002795  A$lcc8968
     00002796  A$lcc8968 |    00002798  A$lcc8968 |    00002799  A$lcc8968
     0000279B  A$lcc8968 |    0000279C  A$lcc8968 |    0000279E  A$lcc8968
     0000279F  A$lcc8968 |    000027A1  A$lcc8968 |    000027A2  A$lcc8968
     000027A4  A$lcc8968 |    000027A4  C$collisi |    000027A7  A$lcc8968
     000027A9  A$lcc8968 |    000027AA  A$lcc8968 |    000027AB  A$lcc8968
     000027AC  A$lcc8968 |    000027AD  A$lcc8968 |    000027AE  A$lcc8968
     000027AF  A$lcc8968 |    000027B0  A$lcc8968 |    000027B1  A$lcc8968
     000027B3  A$lcc8968 |    000027B4  A$lcc8968 |    000027B5  A$lcc8968
     000027B6  A$lcc8968 |    000027B7  A$lcc8968 |    000027BA  A$lcc8968
     000027BC  A$lcc8968 |    000027BE  A$lcc8968 |    000027BF  A$lcc8968
     000027C0  A$lcc8968 |    000027C1  A$lcc8968 |    000027C2  A$lcc8968
     000027C4  A$lcc8968 |    000027C5  A$lcc8968 |    000027C6  A$lcc8968
     000027C7  A$lcc8968 |    000027C8  A$lcc8968 |    000027C9  A$lcc8968
     000027CA  A$lcc8968 |    000027CC  A$lcc8968 |    000027CD  A$lcc8968
     000027CE  A$lcc8968 |    000027CF  A$lcc8968 |    000027CF  C$collisi
     000027D0  A$lcc8968 |    000027D2  A$lcc8968 |    000027D3  A$lcc8968
     000027D4  A$lcc8968 |    000027D5  A$lcc8968 |    000027D6  A$lcc8968
     000027D8  A$lcc8968 |    000027D9  A$lcc8968 |    000027DA  A$lcc8968
     000027DB  A$lcc8968 |    000027DC  A$lcc8968 |    000027DF  A$lcc8968
     000027E1  A$lcc8968 |    000027E3  A$lcc8968 |    000027E4  A$lcc8968
     000027E5  A$lcc8968 |    000027E6  A$lcc8968 |    000027E7  A$lcc8968
     000027E9  A$lcc8968 |    000027EA  A$lcc8968 |    000027EB  A$lcc8968
     000027EC  A$lcc8968 |    000027ED  A$lcc8968 |    000027EE  A$lcc8968
     000027EF  A$lcc8968 |    000027F1  A$lcc8968 |    000027F2  A$lcc8968
ASxxxx Linker V03.00 + NoICE + sdld,  page 64.
Hexadecimal  [32-Bits]

Area                       Addr        Size        Decimal Bytes (Attributes)
--------------------       ----        ----        ------- ----- ------------
_CODE_0                0000265E    000016A1 =        5793. bytes (REL,CON)

        Value  Global            Value  Global            Value  Global    
        -----  ------            -----  ------            -----  ------    
     000027F3  A$lcc8968 |    000027F4  A$lcc8968 |    000027F4  C$collisi
     000027F5  A$lcc8968 |    000027F7  A$lcc8968 |    000027F8  A$lcc8968
     000027F9  A$lcc8968 |    000027FA  A$lcc8968 |    000027FB  A$lcc8968
     000027FC  A$lcc8968 |    000027FD  A$lcc8968 |    000027FE  A$lcc8968
     000027FF  A$lcc8968 |    00002800  A$lcc8968 |    00002803  A$lcc8968
     00002805  A$lcc8968 |    00002806  A$lcc8968 |    00002807  A$lcc8968
     00002808  A$lcc8968 |    00002809  A$lcc8968 |    0000280A  A$lcc8968
     0000280B  A$lcc8968 |    0000280D  A$lcc8968 |    0000280E  A$lcc8968
     0000280F  A$lcc8968 |    00002810  A$lcc8968 |    00002810  C$collisi
     00002811  A$lcc8968 |    00002813  A$lcc8968 |    00002814  A$lcc8968
     00002815  A$lcc8968 |    00002816  A$lcc8968 |    00002818  A$lcc8968
     00002819  A$lcc8968 |    0000281A  A$lcc8968 |    0000281B  A$lcc8968
     0000281C  A$lcc8968 |    0000281D  A$lcc8968 |    0000281E  A$lcc8968
     0000281F  A$lcc8968 |    00002821  A$lcc8968 |    00002822  A$lcc8968
     00002823  A$lcc8968 |    00002824  A$lcc8968 |    00002824  C$collisi
     00002825  A$lcc8968 |    00002827  A$lcc8968 |    00002828  A$lcc8968
     00002829  A$lcc8968 |    0000282A  A$lcc8968 |    0000282B  A$lcc8968
     0000282C  A$lcc8968 |    0000282D  A$lcc8968 |    0000282E  A$lcc8968
     0000282F  A$lcc8968 |    00002830  A$lcc8968 |    00002831  A$lcc8968
     00002832  A$lcc8968 |    00002834  A$lcc8968 |    00002835  A$lcc8968
     00002836  A$lcc8968 |    00002837  A$lcc8968 |    00002837  C$collisi
     00002839  A$lcc8968 |    0000283A  A$lcc8968 |    0000283B  A$lcc8968
     0000283C  A$lcc8968 |    0000283D  A$lcc8968 |    0000283E  A$lcc8968
     0000283F  A$lcc8968 |    00002841  A$lcc8968 |    00002842  A$lcc8968
     00002843  A$lcc8968 |    00002844  A$lcc8968 |    00002846  A$lcc8968
     00002847  A$lcc8968 |    00002848  A$lcc8968 |    00002849  A$lcc8968
     0000284C  A$lcc8968 |    0000284D  A$lcc8968 |    0000284E  A$lcc8968
     0000284F  A$lcc8968 |    00002850  A$lcc8968 |    00002851  A$lcc8968
     00002852  A$lcc8968 |    00002853  A$lcc8968 |    00002855  A$lcc8968
     00002856  A$lcc8968 |    00002857  A$lcc8968 |    00002858  A$lcc8968
     0000285B  A$lcc8968 |    0000285C  A$lcc8968 |    0000285D  A$lcc8968
     0000285E  A$lcc8968 |    0000285F  A$lcc8968 |    00002860  A$lcc8968
     00002861  A$lcc8968 |    00002863  A$lcc8968 |    00002864  A$lcc8968
     00002865  A$lcc8968 |    00002866  A$lcc8968 |    00002868  A$lcc8968
     00002869  A$lcc8968 |    00002869  C$collisi |    0000286C  A$lcc8968
     0000286D  A$lcc8968 |    00002870  A$lcc8968 |    00002870  C$collisi
     00002871  A$lcc8968 |    00002872  A$lcc8968 |    00002873  A$lcc8968
     00002874  A$lcc8968 |    00002875  A$lcc8968 |    00002877  A$lcc8968
     00002879  A$lcc8968 |    0000287A  A$lcc8968 |    0000287B  A$lcc8968
     0000287C  A$lcc8968 |    0000287D  A$lcc8968 |    0000287E  A$lcc8968
     0000287F  A$lcc8968 |    00002881  A$lcc8968 |    00002882  A$lcc8968
     00002884  A$lcc8968 |    00002886  A$lcc8968 |    00002887  A$lcc8968
     00002889  A$lcc8968 |    0000288B  A$lcc8968 |    0000288B  C$collisi
     0000288E  A$lcc8968 |    0000288F  A$lcc8968 |    00002891  A$lcc8968
     00002891  C$collisi |    00002894  A$lcc8968 |    00002895  A$lcc8968
     00002896  A$lcc8968 |    00002897  A$lcc8968 |    00002897  C$collisi
     0000289A  A$lcc8968 |    0000289D  A$lcc8968 |    0000289E  A$lcc8968
     0000289F  A$lcc8968 |    000028A0  A$lcc8968 |    000028A2  A$lcc8968
     000028A3  A$lcc8968 |    000028A4  A$lcc8968 |    000028A5  A$lcc8968
     000028A6  A$lcc8968 |    000028A7  A$lcc8968 |    000028A8  A$lcc8968
     000028A9  A$lcc8968 |    000028AA  A$lcc8968 |    000028AD  A$lcc8968
ASxxxx Linker V03.00 + NoICE + sdld,  page 65.
Hexadecimal  [32-Bits]

Area                       Addr        Size        Decimal Bytes (Attributes)
--------------------       ----        ----        ------- ----- ------------
_CODE_0                0000265E    000016A1 =        5793. bytes (REL,CON)

        Value  Global            Value  Global            Value  Global    
        -----  ------            -----  ------            -----  ------    
     000028AE  A$lcc8968 |    000028AF  A$lcc8968 |    000028B0  A$lcc8968
     000028B2  A$lcc8968 |    000028B3  A$lcc8968 |    000028B4  A$lcc8968
     000028B5  A$lcc8968 |    000028B6  A$lcc8968 |    000028B7  A$lcc8968
     000028B8  A$lcc8968 |    000028BA  A$lcc8968 |    000028BB  A$lcc8968
     000028BC  A$lcc8968 |    000028BD  A$lcc8968 |    000028BF  A$lcc8968
     000028C0  A$lcc8968 |    000028C0  C$collisi |    000028C1  A$lcc8968
     000028C2  A$lcc8968 |    000028C5  A$lcc8968 |    000028C6  A$lcc8968
     000028C7  A$lcc8968 |    000028C8  A$lcc8968 |    000028C9  A$lcc8968
     000028CA  A$lcc8968 |    000028CB  A$lcc8968 |    000028CE  A$lcc8968
     000028D1  A$lcc8968 |    000028D2  A$lcc8968 |    000028D3  A$lcc8968
     000028D4  A$lcc8968 |    000028D6  A$lcc8968 |    000028D7  A$lcc8968
     000028D8  A$lcc8968 |    000028D9  A$lcc8968 |    000028DA  A$lcc8968
     000028DB  A$lcc8968 |    000028DC  A$lcc8968 |    000028DD  A$lcc8968
     000028DE  A$lcc8968 |    000028E1  A$lcc8968 |    000028E1  C$collisi
     000028E4  A$lcc8968 |    000028E5  A$lcc8968 |    000028E7  A$lcc8968
     000028E7  C$collisi |    000028EA  A$lcc8968 |    000028EC  A$lcc8968
     000028EC  C$collisi |    000028EF  A$lcc8968 |    000028F1  A$lcc8968
     000028F1  C$collisi |    000028F4  A$lcc8968 |    000028F6  A$lcc8968
     000028F6  C$collisi |    000028F9  A$lcc8968 |    000028FA  A$lcc8968
     000028FD  A$lcc8968 |    000028FD  C$collisi |    00002900  A$lcc8968
     00002901  A$lcc8968 |    00002904  A$lcc8968 |    00002904  C$collisi
     00002905  A$lcc8968 |    00002906  A$lcc8968 |    00002907  A$lcc8968
     00002909  A$lcc8968 |    0000290A  A$lcc8968 |    0000290B  A$lcc8968
     0000290C  A$lcc8968 |    0000290E  A$lcc8968 |    00002910  A$lcc8968
     00002911  A$lcc8968 |    00002912  A$lcc8968 |    00002913  A$lcc8968
     00002914  A$lcc8968 |    00002915  A$lcc8968 |    00002916  A$lcc8968
     00002917  A$lcc8968 |    00002918  A$lcc8968 |    00002919  A$lcc8968
     0000291B  A$lcc8968 |    0000291E  A$lcc8968 |    0000291F  A$lcc8968
     00002920  A$lcc8968 |    00002921  A$lcc8968 |    00002923  A$lcc8968
     00002924  A$lcc8968 |    00002925  A$lcc8968 |    00002926  A$lcc8968
     00002927  A$lcc8968 |    00002928  A$lcc8968 |    00002929  A$lcc8968
     0000292B  A$lcc8968 |    0000292C  A$lcc8968 |    0000292D  A$lcc8968
     0000292E  A$lcc8968 |    00002930  A$lcc8968 |    00002931  A$lcc8968
     00002932  A$lcc8968 |    00002933  A$lcc8968 |    00002934  A$lcc8968
     00002935  A$lcc8968 |    00002936  A$lcc8968 |    00002937  A$lcc8968
     00002939  A$lcc8968 |    0000293B  A$lcc8968 |    0000293C  A$lcc8968
     0000293E  A$lcc8968 |    00002940  A$lcc8968 |    00002942  A$lcc8968
     00002943  A$lcc8968 |    00002945  A$lcc8968 |    00002947  A$lcc8968
     00002948  A$lcc8968 |    0000294A  A$lcc8968 |    0000294C  A$lcc8968
     0000294F  A$lcc8968 |    00002950  A$lcc8968 |    00002952  A$lcc8968
     00002952  C$collisi |    00002955  A$lcc8968 |    00002956  A$lcc8968
     00002958  A$lcc8968 |    00002958  C$collisi |    0000295B  A$lcc8968
     0000295C  A$lcc8968 |    0000295D  A$lcc8968 |    0000295E  A$lcc8968
     0000295E  C$collisi |    00002961  A$lcc8968 |    00002962  A$lcc8968
     00002964  A$lcc8968 |    00002964  C$collisi |    00002967  A$lcc8968
     00002967  C$collisi |    0000296A  A$lcc8968 |    0000296B  A$lcc8968
     0000296C  A$lcc8968 |    0000296D  A$lcc8968 |    0000296F  A$lcc8968
     00002970  A$lcc8968 |    00002971  A$lcc8968 |    00002972  A$lcc8968
     00002973  A$lcc8968 |    00002974  A$lcc8968 |    00002975  A$lcc8968
     00002977  A$lcc8968 |    00002978  A$lcc8968 |    00002979  A$lcc8968
     0000297A  A$lcc8968 |    0000297C  A$lcc8968 |    0000297D  A$lcc8968
ASxxxx Linker V03.00 + NoICE + sdld,  page 66.
Hexadecimal  [32-Bits]

Area                       Addr        Size        Decimal Bytes (Attributes)
--------------------       ----        ----        ------- ----- ------------
_CODE_0                0000265E    000016A1 =        5793. bytes (REL,CON)

        Value  Global            Value  Global            Value  Global    
        -----  ------            -----  ------            -----  ------    
     0000297D  C$collisi |    00002980  A$lcc8968 |    00002981  A$lcc8968
     00002983  A$lcc8968 |    00002983  C$collisi |    00002986  A$lcc8968
     00002987  A$lcc8968 |    00002988  A$lcc8968 |    00002989  A$lcc8968
     0000298B  A$lcc8968 |    0000298C  A$lcc8968 |    0000298D  A$lcc8968
     0000298E  A$lcc8968 |    0000298F  A$lcc8968 |    00002990  A$lcc8968
     00002991  A$lcc8968 |    00002992  A$lcc8968 |    00002993  A$lcc8968
     00002995  A$lcc8968 |    00002997  A$lcc8968 |    00002998  A$lcc8968
     00002999  A$lcc8968 |    0000299A  A$lcc8968 |    0000299B  A$lcc8968
     0000299C  A$lcc8968 |    0000299E  A$lcc8968 |    000029A1  A$lcc8968
     000029A2  A$lcc8968 |    000029A3  A$lcc8968 |    000029A4  A$lcc8968
     000029A6  A$lcc8968 |    000029A7  A$lcc8968 |    000029A8  A$lcc8968
     000029A9  A$lcc8968 |    000029AA  A$lcc8968 |    000029AB  A$lcc8968
     000029AC  A$lcc8968 |    000029AD  A$lcc8968 |    000029AE  A$lcc8968
     000029B0  A$lcc8968 |    000029B0  C$collisi |    000029B3  A$lcc8968
     000029B4  A$lcc8968 |    000029B6  A$lcc8968 |    000029B6  C$collisi
     000029B9  A$lcc8968 |    000029BB  A$lcc8968 |    000029BB  C$collisi
     000029BE  A$lcc8968 |    000029C0  A$lcc8968 |    000029C0  C$collisi
     000029C3  A$lcc8968 |    000029C5  A$lcc8968 |    000029C5  C$collisi
     000029C8  A$lcc8968 |    000029C9  A$lcc8968 |    000029C9  C$collisi
     000029CB  A$lcc8968 |    000029CC  A$lcc8968 |    000029CD  A$lcc8968
     000029CE  A$lcc8968 |    000029D1  A$lcc8968 |    000029D2  A$lcc8968
     000029D3  A$lcc8968 |    000029D4  A$lcc8968 |    000029D5  A$lcc8968
     000029D6  A$lcc8968 |    000029D7  A$lcc8968 |    000029D8  A$lcc8968
     000029DA  A$lcc8968 |    000029DC  A$lcc8968 |    000029DF  A$lcc8968
     000029E0  A$lcc8968 |    000029E1  A$lcc8968 |    000029E2  A$lcc8968
     000029E4  A$lcc8968 |    000029E5  A$lcc8968 |    000029E6  A$lcc8968
     000029E7  A$lcc8968 |    000029E8  A$lcc8968 |    000029E9  A$lcc8968
     000029EA  A$lcc8968 |    000029EB  A$lcc8968 |    000029ED  A$lcc8968
     000029EF  A$lcc8968 |    000029F2  A$lcc8968 |    000029F3  A$lcc8968
     000029F4  A$lcc8968 |    000029F5  A$lcc8968 |    000029F7  A$lcc8968
     000029F8  A$lcc8968 |    000029F9  A$lcc8968 |    000029FA  A$lcc8968
     000029FB  A$lcc8968 |    000029FC  A$lcc8968 |    000029FD  A$lcc8968
     000029FF  A$lcc8968 |    00002A00  A$lcc8968 |    00002A01  A$lcc8968
     00002A02  A$lcc8968 |    00002A04  A$lcc8968 |    00002A05  A$lcc8968
     00002A06  A$lcc8968 |    00002A07  A$lcc8968 |    00002A08  A$lcc8968
     00002A09  A$lcc8968 |    00002A0A  A$lcc8968 |    00002A0B  A$lcc8968
     00002A0D  A$lcc8968 |    00002A0F  A$lcc8968 |    00002A0F  C$collisi
     00002A12  A$lcc8968 |    00002A14  A$lcc8968 |    00002A14  C$collisi
     00002A16  A$lcc8968 |    00002A17  A$lcc8968 |    00002A18  A$lcc8968
     00002A19  A$lcc8968 |    00002A1A  A$lcc8968 |    00002A1C  A$lcc8968
     00002A1E  A$lcc8968 |    00002A1E  C$collisi |    00002A21  A$lcc8968
     00002A23  A$lcc8968 |    00002A25  A$lcc8968 |    00002A25  C$collisi
     00002A27  A$lcc8968 |    00002A29  A$lcc8968 |    00002A29  C$collisi
     00002A2C  A$lcc8968 |    00002A2E  A$lcc8968 |    00002A2E  C$collisi
     00002A30  A$lcc8968 |    00002A31  A$lcc8968 |    00002A33  A$lcc8968
     00002A36  A$lcc8968 |    00002A37  A$lcc8968 |    00002A38  A$lcc8968
     00002A3A  A$lcc8968 |    00002A3A  C$collisi |    00002A3A  XG$check_
     00002A3B  A$lcc8968 |    00002A3B  C$collisi |    00002A3B  G$check_J
     00002A3B  _check_J  |    00002A3D  A$lcc8968 |    00002A3D  C$collisi
     00002A3F  A$lcc8968 |    00002A41  A$lcc8968 |    00002A42  A$lcc8968
     00002A42  C$collisi |    00002A45  A$lcc8968 |    00002A46  A$lcc8968
ASxxxx Linker V03.00 + NoICE + sdld,  page 67.
Hexadecimal  [32-Bits]

Area                       Addr        Size        Decimal Bytes (Attributes)
--------------------       ----        ----        ------- ----- ------------
_CODE_0                0000265E    000016A1 =        5793. bytes (REL,CON)

        Value  Global            Value  Global            Value  Global    
        -----  ------            -----  ------            -----  ------    
     00002A48  A$lcc8968 |    00002A4B  A$lcc8968 |    00002A4C  A$lcc8968
     00002A4D  A$lcc8968 |    00002A4D  C$collisi |    00002A4F  A$lcc8968
     00002A50  A$lcc8968 |    00002A52  A$lcc8968 |    00002A53  A$lcc8968
     00002A55  A$lcc8968 |    00002A56  A$lcc8968 |    00002A58  A$lcc8968
     00002A59  A$lcc8968 |    00002A59  C$collisi |    00002A5B  A$lcc8968
     00002A5C  A$lcc8968 |    00002A5E  A$lcc8968 |    00002A5F  A$lcc8968
     00002A61  A$lcc8968 |    00002A62  A$lcc8968 |    00002A63  A$lcc8968
     00002A65  A$lcc8968 |    00002A66  A$lcc8968 |    00002A68  A$lcc8968
     00002A69  A$lcc8968 |    00002A6A  A$lcc8968 |    00002A6B  A$lcc8968
     00002A6C  A$lcc8968 |    00002A6D  A$lcc8968 |    00002A6E  A$lcc8968
     00002A70  A$lcc8968 |    00002A71  A$lcc8968 |    00002A72  A$lcc8968
     00002A73  A$lcc8968 |    00002A75  A$lcc8968 |    00002A76  A$lcc8968
     00002A78  A$lcc8968 |    00002A79  A$lcc8968 |    00002A7B  A$lcc8968
     00002A7C  A$lcc8968 |    00002A7E  A$lcc8968 |    00002A7F  A$lcc8968
     00002A81  A$lcc8968 |    00002A82  A$lcc8968 |    00002A84  A$lcc8968
     00002A84  C$collisi |    00002A85  A$lcc8968 |    00002A87  A$lcc8968
     00002A88  A$lcc8968 |    00002A89  A$lcc8968 |    00002A8B  A$lcc8968
     00002A8C  A$lcc8968 |    00002A8E  A$lcc8968 |    00002A8F  A$lcc8968
     00002A90  A$lcc8968 |    00002A91  A$lcc8968 |    00002A92  A$lcc8968
     00002A93  A$lcc8968 |    00002A94  A$lcc8968 |    00002A96  A$lcc8968
     00002A97  A$lcc8968 |    00002A98  A$lcc8968 |    00002A99  A$lcc8968
     00002A9B  A$lcc8968 |    00002A9C  A$lcc8968 |    00002A9E  A$lcc8968
     00002A9F  A$lcc8968 |    00002AA1  A$lcc8968 |    00002AA2  A$lcc8968
     00002AA4  A$lcc8968 |    00002AA5  A$lcc8968 |    00002AA7  A$lcc8968
     00002AA8  A$lcc8968 |    00002AAA  A$lcc8968 |    00002AAA  C$collisi
     00002AAB  A$lcc8968 |    00002AAC  A$lcc8968 |    00002AAD  A$lcc8968
     00002AAF  A$lcc8968 |    00002AB0  A$lcc8968 |    00002AB1  A$lcc8968
     00002AB2  A$lcc8968 |    00002AB3  A$lcc8968 |    00002AB4  A$lcc8968
     00002AB5  A$lcc8968 |    00002AB7  A$lcc8968 |    00002AB8  A$lcc8968
     00002AB9  A$lcc8968 |    00002ABA  A$lcc8968 |    00002ABC  A$lcc8968
     00002ABD  A$lcc8968 |    00002ABF  A$lcc8968 |    00002AC0  A$lcc8968
     00002AC2  A$lcc8968 |    00002AC3  A$lcc8968 |    00002AC5  A$lcc8968
     00002AC6  A$lcc8968 |    00002AC8  A$lcc8968 |    00002AC9  A$lcc8968
     00002ACB  A$lcc8968 |    00002ACB  C$collisi |    00002ACC  A$lcc8968
     00002ACE  A$lcc8968 |    00002ACF  A$lcc8968 |    00002AD0  A$lcc8968
     00002AD2  A$lcc8968 |    00002AD3  A$lcc8968 |    00002AD5  A$lcc8968
     00002AD6  A$lcc8968 |    00002AD7  A$lcc8968 |    00002AD8  A$lcc8968
     00002AD9  A$lcc8968 |    00002ADA  A$lcc8968 |    00002ADB  A$lcc8968
     00002ADD  A$lcc8968 |    00002ADE  A$lcc8968 |    00002ADF  A$lcc8968
     00002AE0  A$lcc8968 |    00002AE2  A$lcc8968 |    00002AE3  A$lcc8968
     00002AE5  A$lcc8968 |    00002AE6  A$lcc8968 |    00002AE8  A$lcc8968
     00002AE9  A$lcc8968 |    00002AEB  A$lcc8968 |    00002AEC  A$lcc8968
     00002AEE  A$lcc8968 |    00002AEF  A$lcc8968 |    00002AF1  A$lcc8968
     00002AF1  C$collisi |    00002AF2  A$lcc8968 |    00002AF3  A$lcc8968
     00002AF5  A$lcc8968 |    00002AF6  A$lcc8968 |    00002AF7  A$lcc8968
     00002AF8  A$lcc8968 |    00002AF9  A$lcc8968 |    00002AFA  A$lcc8968
     00002AFB  A$lcc8968 |    00002AFD  A$lcc8968 |    00002AFE  A$lcc8968
     00002AFF  A$lcc8968 |    00002B00  A$lcc8968 |    00002B02  A$lcc8968
     00002B03  A$lcc8968 |    00002B05  A$lcc8968 |    00002B06  A$lcc8968
     00002B08  A$lcc8968 |    00002B09  A$lcc8968 |    00002B0B  A$lcc8968
     00002B0C  A$lcc8968 |    00002B0E  A$lcc8968 |    00002B0F  A$lcc8968
ASxxxx Linker V03.00 + NoICE + sdld,  page 68.
Hexadecimal  [32-Bits]

Area                       Addr        Size        Decimal Bytes (Attributes)
--------------------       ----        ----        ------- ----- ------------
_CODE_0                0000265E    000016A1 =        5793. bytes (REL,CON)

        Value  Global            Value  Global            Value  Global    
        -----  ------            -----  ------            -----  ------    
     00002B11  A$lcc8968 |    00002B11  C$collisi |    00002B12  A$lcc8968
     00002B14  A$lcc8968 |    00002B15  A$lcc8968 |    00002B16  A$lcc8968
     00002B18  A$lcc8968 |    00002B19  A$lcc8968 |    00002B1B  A$lcc8968
     00002B1C  A$lcc8968 |    00002B1D  A$lcc8968 |    00002B1E  A$lcc8968
     00002B1F  A$lcc8968 |    00002B20  A$lcc8968 |    00002B21  A$lcc8968
     00002B23  A$lcc8968 |    00002B24  A$lcc8968 |    00002B25  A$lcc8968
     00002B26  A$lcc8968 |    00002B28  A$lcc8968 |    00002B29  A$lcc8968
     00002B2B  A$lcc8968 |    00002B2C  A$lcc8968 |    00002B2E  A$lcc8968
     00002B2F  A$lcc8968 |    00002B31  A$lcc8968 |    00002B32  A$lcc8968
     00002B34  A$lcc8968 |    00002B35  A$lcc8968 |    00002B37  A$lcc8968
     00002B37  C$collisi |    00002B39  A$lcc8968 |    00002B3A  A$lcc8968
     00002B3C  A$lcc8968 |    00002B3D  A$lcc8968 |    00002B3E  A$lcc8968
     00002B3F  A$lcc8968 |    00002B40  A$lcc8968 |    00002B41  A$lcc8968
     00002B42  A$lcc8968 |    00002B43  A$lcc8968 |    00002B45  A$lcc8968
     00002B46  A$lcc8968 |    00002B47  A$lcc8968 |    00002B48  A$lcc8968
     00002B4A  A$lcc8968 |    00002B4C  A$lcc8968 |    00002B4E  A$lcc8968
     00002B4F  A$lcc8968 |    00002B50  A$lcc8968 |    00002B51  A$lcc8968
     00002B54  A$lcc8968 |    00002B55  A$lcc8968 |    00002B56  A$lcc8968
     00002B57  A$lcc8968 |    00002B59  A$lcc8968 |    00002B5A  A$lcc8968
     00002B5B  A$lcc8968 |    00002B5C  A$lcc8968 |    00002B5E  A$lcc8968
     00002B5F  A$lcc8968 |    00002B61  A$lcc8968 |    00002B62  A$lcc8968
     00002B63  A$lcc8968 |    00002B64  A$lcc8968 |    00002B66  A$lcc8968
     00002B67  A$lcc8968 |    00002B68  A$lcc8968 |    00002B69  A$lcc8968
     00002B6B  A$lcc8968 |    00002B6C  A$lcc8968 |    00002B6E  A$lcc8968
     00002B6F  A$lcc8968 |    00002B71  A$lcc8968 |    00002B72  A$lcc8968
     00002B74  A$lcc8968 |    00002B75  A$lcc8968 |    00002B77  A$lcc8968
     00002B78  A$lcc8968 |    00002B7A  A$lcc8968 |    00002B7A  C$collisi
     00002B7C  A$lcc8968 |    00002B7D  A$lcc8968 |    00002B7E  A$lcc8968
     00002B7F  A$lcc8968 |    00002B82  A$lcc8968 |    00002B83  A$lcc8968
     00002B84  A$lcc8968 |    00002B85  A$lcc8968 |    00002B86  A$lcc8968
     00002B87  A$lcc8968 |    00002B89  A$lcc8968 |    00002B8A  A$lcc8968
     00002B8B  A$lcc8968 |    00002B8C  A$lcc8968 |    00002B8D  A$lcc8968
     00002B8E  A$lcc8968 |    00002B90  A$lcc8968 |    00002B91  A$lcc8968
     00002B92  A$lcc8968 |    00002B93  A$lcc8968 |    00002B96  A$lcc8968
     00002B97  A$lcc8968 |    00002B98  A$lcc8968 |    00002B99  A$lcc8968
     00002B9B  A$lcc8968 |    00002B9C  A$lcc8968 |    00002B9D  A$lcc8968
     00002B9E  A$lcc8968 |    00002BA0  A$lcc8968 |    00002BA1  A$lcc8968
     00002BA3  A$lcc8968 |    00002BA5  A$lcc8968 |    00002BA7  A$lcc8968
     00002BA9  A$lcc8968 |    00002BAA  A$lcc8968 |    00002BAB  A$lcc8968
     00002BAC  A$lcc8968 |    00002BAE  A$lcc8968 |    00002BAF  A$lcc8968
     00002BB0  A$lcc8968 |    00002BB1  A$lcc8968 |    00002BB3  A$lcc8968
     00002BB4  A$lcc8968 |    00002BB6  A$lcc8968 |    00002BB7  A$lcc8968
     00002BB9  A$lcc8968 |    00002BBA  A$lcc8968 |    00002BBC  A$lcc8968
     00002BBD  A$lcc8968 |    00002BBF  A$lcc8968 |    00002BC0  A$lcc8968
     00002BC2  A$lcc8968 |    00002BC2  C$collisi |    00002BC4  A$lcc8968
     00002BC5  A$lcc8968 |    00002BC6  A$lcc8968 |    00002BC7  A$lcc8968
     00002BC9  A$lcc8968 |    00002BCB  A$lcc8968 |    00002BCC  A$lcc8968
     00002BCD  A$lcc8968 |    00002BCE  A$lcc8968 |    00002BCF  A$lcc8968
     00002BD0  A$lcc8968 |    00002BD1  A$lcc8968 |    00002BD4  A$lcc8968
     00002BD5  A$lcc8968 |    00002BD6  A$lcc8968 |    00002BD7  A$lcc8968
     00002BD9  A$lcc8968 |    00002BDA  A$lcc8968 |    00002BDB  A$lcc8968
ASxxxx Linker V03.00 + NoICE + sdld,  page 69.
Hexadecimal  [32-Bits]

Area                       Addr        Size        Decimal Bytes (Attributes)
--------------------       ----        ----        ------- ----- ------------
_CODE_0                0000265E    000016A1 =        5793. bytes (REL,CON)

        Value  Global            Value  Global            Value  Global    
        -----  ------            -----  ------            -----  ------    
     00002BDC  A$lcc8968 |    00002BDE  A$lcc8968 |    00002BDF  A$lcc8968
     00002BE1  A$lcc8968 |    00002BE2  A$lcc8968 |    00002BE4  A$lcc8968
     00002BE5  A$lcc8968 |    00002BE7  A$lcc8968 |    00002BE8  A$lcc8968
     00002BEA  A$lcc8968 |    00002BEB  A$lcc8968 |    00002BED  A$lcc8968
     00002BED  C$collisi |    00002BEF  A$lcc8968 |    00002BF0  A$lcc8968
     00002BF1  A$lcc8968 |    00002BF2  A$lcc8968 |    00002BF5  A$lcc8968
     00002BF6  A$lcc8968 |    00002BF7  A$lcc8968 |    00002BF8  A$lcc8968
     00002BFA  A$lcc8968 |    00002BFB  A$lcc8968 |    00002BFC  A$lcc8968
     00002BFD  A$lcc8968 |    00002BFF  A$lcc8968 |    00002C00  A$lcc8968
     00002C01  A$lcc8968 |    00002C02  A$lcc8968 |    00002C03  A$lcc8968
     00002C05  A$lcc8968 |    00002C07  A$lcc8968 |    00002C08  A$lcc8968
     00002C09  A$lcc8968 |    00002C0A  A$lcc8968 |    00002C0B  A$lcc8968
     00002C0C  A$lcc8968 |    00002C0D  A$lcc8968 |    00002C10  A$lcc8968
     00002C11  A$lcc8968 |    00002C12  A$lcc8968 |    00002C13  A$lcc8968
     00002C15  A$lcc8968 |    00002C16  A$lcc8968 |    00002C17  A$lcc8968
     00002C18  A$lcc8968 |    00002C1A  A$lcc8968 |    00002C1B  A$lcc8968
     00002C1D  A$lcc8968 |    00002C1E  A$lcc8968 |    00002C20  A$lcc8968
     00002C21  A$lcc8968 |    00002C23  A$lcc8968 |    00002C24  A$lcc8968
     00002C26  A$lcc8968 |    00002C27  A$lcc8968 |    00002C29  A$lcc8968
     00002C29  C$collisi |    00002C2C  A$lcc8968 |    00002C2E  A$lcc8968
     00002C2F  A$lcc8968 |    00002C31  A$lcc8968 |    00002C33  A$lcc8968
     00002C34  A$lcc8968 |    00002C35  A$lcc8968 |    00002C36  A$lcc8968
     00002C37  A$lcc8968 |    00002C39  A$lcc8968 |    00002C3A  A$lcc8968
     00002C3B  A$lcc8968 |    00002C3C  A$lcc8968 |    00002C3D  A$lcc8968
     00002C40  A$lcc8968 |    00002C42  A$lcc8968 |    00002C44  A$lcc8968
     00002C45  A$lcc8968 |    00002C46  A$lcc8968 |    00002C47  A$lcc8968
     00002C49  A$lcc8968 |    00002C4A  A$lcc8968 |    00002C4B  A$lcc8968
     00002C4C  A$lcc8968 |    00002C4E  A$lcc8968 |    00002C4F  A$lcc8968
     00002C50  A$lcc8968 |    00002C51  A$lcc8968 |    00002C52  A$lcc8968
     00002C53  A$lcc8968 |    00002C54  A$lcc8968 |    00002C56  A$lcc8968
     00002C57  A$lcc8968 |    00002C58  A$lcc8968 |    00002C58  C$collisi
     00002C59  A$lcc8968 |    00002C5A  A$lcc8968 |    00002C5B  A$lcc8968
     00002C5C  A$lcc8968 |    00002C5D  A$lcc8968 |    00002C5E  A$lcc8968
     00002C60  A$lcc8968 |    00002C61  A$lcc8968 |    00002C62  A$lcc8968
     00002C63  A$lcc8968 |    00002C64  A$lcc8968 |    00002C65  A$lcc8968
     00002C66  A$lcc8968 |    00002C68  A$lcc8968 |    00002C69  A$lcc8968
     00002C6A  A$lcc8968 |    00002C6B  A$lcc8968 |    00002C6B  C$collisi
     00002C6D  A$lcc8968 |    00002C6E  A$lcc8968 |    00002C6F  A$lcc8968
     00002C70  A$lcc8968 |    00002C72  A$lcc8968 |    00002C73  A$lcc8968
     00002C74  A$lcc8968 |    00002C75  A$lcc8968 |    00002C76  A$lcc8968
     00002C77  A$lcc8968 |    00002C78  A$lcc8968 |    00002C7A  A$lcc8968
     00002C7B  A$lcc8968 |    00002C7C  A$lcc8968 |    00002C7D  A$lcc8968
     00002C7D  C$collisi |    00002C7F  A$lcc8968 |    00002C80  A$lcc8968
     00002C81  A$lcc8968 |    00002C82  A$lcc8968 |    00002C83  A$lcc8968
     00002C85  A$lcc8968 |    00002C86  A$lcc8968 |    00002C87  A$lcc8968
     00002C88  A$lcc8968 |    00002C89  A$lcc8968 |    00002C8C  A$lcc8968
     00002C8E  A$lcc8968 |    00002C8F  A$lcc8968 |    00002C90  A$lcc8968
     00002C92  A$lcc8968 |    00002C93  A$lcc8968 |    00002C94  A$lcc8968
     00002C95  A$lcc8968 |    00002C96  A$lcc8968 |    00002C97  A$lcc8968
     00002C98  A$lcc8968 |    00002C9A  A$lcc8968 |    00002C9B  A$lcc8968
     00002C9C  A$lcc8968 |    00002C9D  A$lcc8968 |    00002C9D  C$collisi
ASxxxx Linker V03.00 + NoICE + sdld,  page 70.
Hexadecimal  [32-Bits]

Area                       Addr        Size        Decimal Bytes (Attributes)
--------------------       ----        ----        ------- ----- ------------
_CODE_0                0000265E    000016A1 =        5793. bytes (REL,CON)

        Value  Global            Value  Global            Value  Global    
        -----  ------            -----  ------            -----  ------    
     00002C9F  A$lcc8968 |    00002CA0  A$lcc8968 |    00002CA1  A$lcc8968
     00002CA2  A$lcc8968 |    00002CA3  A$lcc8968 |    00002CA4  A$lcc8968
     00002CA5  A$lcc8968 |    00002CA7  A$lcc8968 |    00002CA8  A$lcc8968
     00002CA9  A$lcc8968 |    00002CAA  A$lcc8968 |    00002CAA  C$collisi
     00002CAC  A$lcc8968 |    00002CAD  A$lcc8968 |    00002CAE  A$lcc8968
     00002CAF  A$lcc8968 |    00002CB0  A$lcc8968 |    00002CB2  A$lcc8968
     00002CB3  A$lcc8968 |    00002CB4  A$lcc8968 |    00002CB5  A$lcc8968
     00002CB6  A$lcc8968 |    00002CB9  A$lcc8968 |    00002CBB  A$lcc8968
     00002CBC  A$lcc8968 |    00002CBD  A$lcc8968 |    00002CBF  A$lcc8968
     00002CC0  A$lcc8968 |    00002CC1  A$lcc8968 |    00002CC2  A$lcc8968
     00002CC3  A$lcc8968 |    00002CC4  A$lcc8968 |    00002CC5  A$lcc8968
     00002CC7  A$lcc8968 |    00002CC8  A$lcc8968 |    00002CC9  A$lcc8968
     00002CCA  A$lcc8968 |    00002CCA  C$collisi |    00002CCC  A$lcc8968
     00002CCD  A$lcc8968 |    00002CCE  A$lcc8968 |    00002CCF  A$lcc8968
     00002CD0  A$lcc8968 |    00002CD1  A$lcc8968 |    00002CD2  A$lcc8968
     00002CD4  A$lcc8968 |    00002CD5  A$lcc8968 |    00002CD6  A$lcc8968
     00002CD7  A$lcc8968 |    00002CD7  C$collisi |    00002CD9  A$lcc8968
     00002CDA  A$lcc8968 |    00002CDB  A$lcc8968 |    00002CDC  A$lcc8968
     00002CDE  A$lcc8968 |    00002CDF  A$lcc8968 |    00002CE0  A$lcc8968
     00002CE1  A$lcc8968 |    00002CE2  A$lcc8968 |    00002CE3  A$lcc8968
     00002CE4  A$lcc8968 |    00002CE6  A$lcc8968 |    00002CE7  A$lcc8968
     00002CE8  A$lcc8968 |    00002CE9  A$lcc8968 |    00002CE9  C$collisi
     00002CEB  A$lcc8968 |    00002CEC  A$lcc8968 |    00002CED  A$lcc8968
     00002CEE  A$lcc8968 |    00002CEF  A$lcc8968 |    00002CF0  A$lcc8968
     00002CF1  A$lcc8968 |    00002CF2  A$lcc8968 |    00002CF3  A$lcc8968
     00002CF4  A$lcc8968 |    00002CF7  A$lcc8968 |    00002CF9  A$lcc8968
     00002CFA  A$lcc8968 |    00002CFB  A$lcc8968 |    00002CFD  A$lcc8968
     00002CFE  A$lcc8968 |    00002CFF  A$lcc8968 |    00002D00  A$lcc8968
     00002D01  A$lcc8968 |    00002D02  A$lcc8968 |    00002D03  A$lcc8968
     00002D05  A$lcc8968 |    00002D06  A$lcc8968 |    00002D07  A$lcc8968
     00002D08  A$lcc8968 |    00002D08  C$collisi |    00002D0A  A$lcc8968
     00002D0B  A$lcc8968 |    00002D0C  A$lcc8968 |    00002D0D  A$lcc8968
     00002D0E  A$lcc8968 |    00002D0F  A$lcc8968 |    00002D10  A$lcc8968
     00002D12  A$lcc8968 |    00002D13  A$lcc8968 |    00002D14  A$lcc8968
     00002D15  A$lcc8968 |    00002D15  C$collisi |    00002D17  A$lcc8968
     00002D18  A$lcc8968 |    00002D19  A$lcc8968 |    00002D1A  A$lcc8968
     00002D1B  A$lcc8968 |    00002D1C  A$lcc8968 |    00002D1D  A$lcc8968
     00002D1F  A$lcc8968 |    00002D20  A$lcc8968 |    00002D21  A$lcc8968
     00002D22  A$lcc8968 |    00002D22  C$collisi |    00002D25  A$lcc8968
     00002D26  A$lcc8968 |    00002D28  A$lcc8968 |    00002D28  C$collisi
     00002D2B  A$lcc8968 |    00002D2C  A$lcc8968 |    00002D2D  A$lcc8968
     00002D30  A$lcc8968 |    00002D30  C$collisi |    00002D32  A$lcc8968
     00002D35  A$lcc8968 |    00002D35  C$collisi |    00002D38  A$lcc8968
     00002D3A  A$lcc8968 |    00002D3B  A$lcc8968 |    00002D3C  A$lcc8968
     00002D3E  A$lcc8968 |    00002D3F  A$lcc8968 |    00002D41  A$lcc8968
     00002D41  C$collisi |    00002D44  A$lcc8968 |    00002D45  A$lcc8968
     00002D46  A$lcc8968 |    00002D47  A$lcc8968 |    00002D49  A$lcc8968
     00002D4A  A$lcc8968 |    00002D4B  A$lcc8968 |    00002D4C  A$lcc8968
     00002D4D  A$lcc8968 |    00002D4E  A$lcc8968 |    00002D4F  A$lcc8968
     00002D51  A$lcc8968 |    00002D52  A$lcc8968 |    00002D53  A$lcc8968
     00002D54  A$lcc8968 |    00002D56  A$lcc8968 |    00002D57  A$lcc8968
ASxxxx Linker V03.00 + NoICE + sdld,  page 71.
Hexadecimal  [32-Bits]

Area                       Addr        Size        Decimal Bytes (Attributes)
--------------------       ----        ----        ------- ----- ------------
_CODE_0                0000265E    000016A1 =        5793. bytes (REL,CON)

        Value  Global            Value  Global            Value  Global    
        -----  ------            -----  ------            -----  ------    
     00002D58  A$lcc8968 |    00002D59  A$lcc8968 |    00002D5A  A$lcc8968
     00002D5B  A$lcc8968 |    00002D5C  A$lcc8968 |    00002D5F  A$lcc8968
     00002D61  A$lcc8968 |    00002D62  A$lcc8968 |    00002D63  A$lcc8968
     00002D64  A$lcc8968 |    00002D67  A$lcc8968 |    00002D68  A$lcc8968
     00002D69  A$lcc8968 |    00002D6A  A$lcc8968 |    00002D6B  A$lcc8968
     00002D6C  A$lcc8968 |    00002D6D  A$lcc8968 |    00002D6F  A$lcc8968
     00002D70  A$lcc8968 |    00002D71  A$lcc8968 |    00002D72  A$lcc8968
     00002D74  A$lcc8968 |    00002D75  A$lcc8968 |    00002D76  A$lcc8968
     00002D77  A$lcc8968 |    00002D78  A$lcc8968 |    00002D79  A$lcc8968
     00002D7A  A$lcc8968 |    00002D7C  A$lcc8968 |    00002D7C  C$collisi
     00002D7F  A$lcc8968 |    00002D81  A$lcc8968 |    00002D82  A$lcc8968
     00002D84  A$lcc8968 |    00002D84  C$collisi |    00002D87  A$lcc8968
     00002D89  A$lcc8968 |    00002D8B  A$lcc8968 |    00002D8B  C$collisi
     00002D8E  A$lcc8968 |    00002D90  A$lcc8968 |    00002D91  A$lcc8968
     00002D93  A$lcc8968 |    00002D95  A$lcc8968 |    00002D95  C$collisi
     00002D96  A$lcc8968 |    00002D98  A$lcc8968 |    00002D9A  A$lcc8968
     00002D9B  A$lcc8968 |    00002D9D  A$lcc8968 |    00002D9D  C$collisi
     00002DA0  A$lcc8968 |    00002DA1  A$lcc8968 |    00002DA2  A$lcc8968
     00002DA3  A$lcc8968 |    00002DA5  A$lcc8968 |    00002DA6  A$lcc8968
     00002DA7  A$lcc8968 |    00002DA8  A$lcc8968 |    00002DA9  A$lcc8968
     00002DAA  A$lcc8968 |    00002DAB  A$lcc8968 |    00002DAD  A$lcc8968
     00002DAE  A$lcc8968 |    00002DAF  A$lcc8968 |    00002DB0  A$lcc8968
     00002DB2  A$lcc8968 |    00002DB3  A$lcc8968 |    00002DB4  A$lcc8968
     00002DB5  A$lcc8968 |    00002DB6  A$lcc8968 |    00002DB7  A$lcc8968
     00002DB8  A$lcc8968 |    00002DBA  A$lcc8968 |    00002DBD  A$lcc8968
     00002DBE  A$lcc8968 |    00002DBF  A$lcc8968 |    00002DC0  A$lcc8968
     00002DC2  A$lcc8968 |    00002DC3  A$lcc8968 |    00002DC4  A$lcc8968
     00002DC5  A$lcc8968 |    00002DC6  A$lcc8968 |    00002DC7  A$lcc8968
     00002DC8  A$lcc8968 |    00002DC9  A$lcc8968 |    00002DCA  A$lcc8968
     00002DCC  A$lcc8968 |    00002DCC  C$collisi |    00002DCF  A$lcc8968
     00002DD1  A$lcc8968 |    00002DD2  A$lcc8968 |    00002DD4  A$lcc8968
     00002DD4  C$collisi |    00002DD7  A$lcc8968 |    00002DD9  A$lcc8968
     00002DDB  A$lcc8968 |    00002DDB  C$collisi |    00002DDE  A$lcc8968
     00002DE0  A$lcc8968 |    00002DE1  A$lcc8968 |    00002DE3  A$lcc8968
     00002DE3  C$collisi |    00002DE6  A$lcc8968 |    00002DE8  A$lcc8968
     00002DEB  A$lcc8968 |    00002DED  A$lcc8968 |    00002DF0  A$lcc8968
     00002DF2  A$lcc8968 |    00002DF2  C$collisi |    00002DF5  A$lcc8968
     00002DF7  A$lcc8968 |    00002DFA  A$lcc8968 |    00002DFC  A$lcc8968
     00002DFF  A$lcc8968 |    00002E01  A$lcc8968 |    00002E01  C$collisi
     00002E04  A$lcc8968 |    00002E07  A$lcc8968 |    00002E08  A$lcc8968
     00002E09  A$lcc8968 |    00002E0A  A$lcc8968 |    00002E0C  A$lcc8968
     00002E0D  A$lcc8968 |    00002E0E  A$lcc8968 |    00002E0F  A$lcc8968
     00002E10  A$lcc8968 |    00002E11  A$lcc8968 |    00002E12  A$lcc8968
     00002E15  A$lcc8968 |    00002E16  A$lcc8968 |    00002E17  A$lcc8968
     00002E18  A$lcc8968 |    00002E1A  A$lcc8968 |    00002E1B  A$lcc8968
     00002E1C  A$lcc8968 |    00002E1D  A$lcc8968 |    00002E1E  A$lcc8968
     00002E1F  A$lcc8968 |    00002E20  A$lcc8968 |    00002E22  A$lcc8968
     00002E23  A$lcc8968 |    00002E24  A$lcc8968 |    00002E25  A$lcc8968
     00002E27  A$lcc8968 |    00002E28  A$lcc8968 |    00002E2A  A$lcc8968
     00002E2B  A$lcc8968 |    00002E2C  A$lcc8968 |    00002E2D  A$lcc8968
     00002E30  A$lcc8968 |    00002E31  A$lcc8968 |    00002E32  A$lcc8968
ASxxxx Linker V03.00 + NoICE + sdld,  page 72.
Hexadecimal  [32-Bits]

Area                       Addr        Size        Decimal Bytes (Attributes)
--------------------       ----        ----        ------- ----- ------------
_CODE_0                0000265E    000016A1 =        5793. bytes (REL,CON)

        Value  Global            Value  Global            Value  Global    
        -----  ------            -----  ------            -----  ------    
     00002E33  A$lcc8968 |    00002E34  A$lcc8968 |    00002E35  A$lcc8968
     00002E36  A$lcc8968 |    00002E38  A$lcc8968 |    00002E39  A$lcc8968
     00002E3A  A$lcc8968 |    00002E3B  A$lcc8968 |    00002E3D  A$lcc8968
     00002E3E  A$lcc8968 |    00002E41  A$lcc8968 |    00002E42  A$lcc8968
     00002E43  A$lcc8968 |    00002E44  A$lcc8968 |    00002E46  A$lcc8968
     00002E47  A$lcc8968 |    00002E48  A$lcc8968 |    00002E49  A$lcc8968
     00002E4A  A$lcc8968 |    00002E4B  A$lcc8968 |    00002E4C  A$lcc8968
     00002E4E  A$lcc8968 |    00002E4F  A$lcc8968 |    00002E50  A$lcc8968
     00002E51  A$lcc8968 |    00002E53  A$lcc8968 |    00002E54  A$lcc8968
     00002E54  C$collisi |    00002E57  A$lcc8968 |    00002E58  A$lcc8968
     00002E5B  A$lcc8968 |    00002E5B  C$collisi |    00002E5C  A$lcc8968
     00002E5D  A$lcc8968 |    00002E5F  A$lcc8968 |    00002E61  A$lcc8968
     00002E63  A$lcc8968 |    00002E64  A$lcc8968 |    00002E65  A$lcc8968
     00002E66  A$lcc8968 |    00002E67  A$lcc8968 |    00002E69  A$lcc8968
     00002E6C  A$lcc8968 |    00002E6E  A$lcc8968 |    00002E6F  A$lcc8968
     00002E70  A$lcc8968 |    00002E71  A$lcc8968 |    00002E72  A$lcc8968
     00002E74  A$lcc8968 |    00002E75  A$lcc8968 |    00002E76  A$lcc8968
     00002E77  A$lcc8968 |    00002E78  A$lcc8968 |    00002E79  A$lcc8968
     00002E7A  A$lcc8968 |    00002E7B  A$lcc8968 |    00002E7D  A$lcc8968
     00002E7F  A$lcc8968 |    00002E80  A$lcc8968 |    00002E82  A$lcc8968
     00002E85  A$lcc8968 |    00002E86  A$lcc8968 |    00002E89  A$lcc8968
     00002E8A  A$lcc8968 |    00002E8D  A$lcc8968 |    00002E8F  A$lcc8968
     00002E90  A$lcc8968 |    00002E91  A$lcc8968 |    00002E92  A$lcc8968
     00002E93  A$lcc8968 |    00002E94  A$lcc8968 |    00002E97  A$lcc8968
     00002E9A  A$lcc8968 |    00002E9B  A$lcc8968 |    00002E9C  A$lcc8968
     00002E9D  A$lcc8968 |    00002E9F  A$lcc8968 |    00002EA0  A$lcc8968
     00002EA1  A$lcc8968 |    00002EA2  A$lcc8968 |    00002EA3  A$lcc8968
     00002EA4  A$lcc8968 |    00002EA5  A$lcc8968 |    00002EA6  A$lcc8968
     00002EA7  A$lcc8968 |    00002EAA  A$lcc8968 |    00002EAD  A$lcc8968
     00002EAE  A$lcc8968 |    00002EAF  A$lcc8968 |    00002EB0  A$lcc8968
     00002EB2  A$lcc8968 |    00002EB3  A$lcc8968 |    00002EB4  A$lcc8968
     00002EB5  A$lcc8968 |    00002EB6  A$lcc8968 |    00002EB7  A$lcc8968
     00002EB8  A$lcc8968 |    00002EB9  A$lcc8968 |    00002EBA  A$lcc8968
     00002EBD  A$lcc8968 |    00002EC0  A$lcc8968 |    00002EC1  A$lcc8968
     00002EC2  A$lcc8968 |    00002EC3  A$lcc8968 |    00002EC5  A$lcc8968
     00002EC6  A$lcc8968 |    00002EC7  A$lcc8968 |    00002EC8  A$lcc8968
     00002EC9  A$lcc8968 |    00002ECA  A$lcc8968 |    00002ECB  A$lcc8968
     00002ECC  A$lcc8968 |    00002ECD  A$lcc8968 |    00002ED0  A$lcc8968
     00002ED0  C$collisi |    00002ED3  A$lcc8968 |    00002ED4  A$lcc8968
     00002ED7  A$lcc8968 |    00002ED7  C$collisi |    00002EDA  A$lcc8968
     00002EDC  A$lcc8968 |    00002EDF  A$lcc8968 |    00002EE1  A$lcc8968
     00002EE1  C$collisi |    00002EE4  A$lcc8968 |    00002EE5  A$lcc8968
     00002EE8  A$lcc8968 |    00002EE8  C$collisi |    00002EEB  A$lcc8968
     00002EED  A$lcc8968 |    00002EEE  A$lcc8968 |    00002EF0  A$lcc8968
     00002EF0  C$collisi |    00002EF3  A$lcc8968 |    00002EF5  A$lcc8968
     00002EF8  A$lcc8968 |    00002EFA  A$lcc8968 |    00002EFA  C$collisi
     00002EFD  A$lcc8968 |    00002EFF  A$lcc8968 |    00002EFF  C$collisi
     00002F02  A$lcc8968 |    00002F05  A$lcc8968 |    00002F05  C$collisi
     00002F08  A$lcc8968 |    00002F09  A$lcc8968 |    00002F0C  A$lcc8968
     00002F0F  A$lcc8968 |    00002F10  A$lcc8968 |    00002F11  A$lcc8968
     00002F11  C$collisi |    00002F11  C$collisi |    00002F12  A$lcc8968
ASxxxx Linker V03.00 + NoICE + sdld,  page 73.
Hexadecimal  [32-Bits]

Area                       Addr        Size        Decimal Bytes (Attributes)
--------------------       ----        ----        ------- ----- ------------
_CODE_0                0000265E    000016A1 =        5793. bytes (REL,CON)

        Value  Global            Value  Global            Value  Global    
        -----  ------            -----  ------            -----  ------    
     00002F14  A$lcc8968 |    00002F15  A$lcc8968 |    00002F16  A$lcc8968
     00002F17  A$lcc8968 |    00002F18  A$lcc8968 |    00002F1A  A$lcc8968
     00002F1D  A$lcc8968 |    00002F1E  A$lcc8968 |    00002F20  A$lcc8968
     00002F22  A$lcc8968 |    00002F23  A$lcc8968 |    00002F25  A$lcc8968
     00002F26  A$lcc8968 |    00002F28  A$lcc8968 |    00002F2A  A$lcc8968
     00002F2C  A$lcc8968 |    00002F2E  A$lcc8968 |    00002F2F  A$lcc8968
     00002F31  A$lcc8968 |    00002F33  A$lcc8968 |    00002F35  A$lcc8968
     00002F36  A$lcc8968 |    00002F39  A$lcc8968 |    00002F3A  A$lcc8968
     00002F3B  A$lcc8968 |    00002F3D  A$lcc8968 |    00002F3F  A$lcc8968
     00002F41  A$lcc8968 |    00002F42  A$lcc8968 |    00002F43  A$lcc8968
     00002F44  A$lcc8968 |    00002F45  A$lcc8968 |    00002F47  A$lcc8968
     00002F49  A$lcc8968 |    00002F4B  A$lcc8968 |    00002F4C  A$lcc8968
     00002F4D  A$lcc8968 |    00002F4E  A$lcc8968 |    00002F4F  A$lcc8968
     00002F51  A$lcc8968 |    00002F52  A$lcc8968 |    00002F53  A$lcc8968
     00002F54  A$lcc8968 |    00002F55  A$lcc8968 |    00002F56  A$lcc8968
     00002F57  A$lcc8968 |    00002F58  A$lcc8968 |    00002F58  C$collisi
     00002F5A  A$lcc8968 |    00002F5C  A$lcc8968 |    00002F5D  A$lcc8968
     00002F5F  A$lcc8968 |    00002F61  A$lcc8968 |    00002F62  A$lcc8968
     00002F64  A$lcc8968 |    00002F65  A$lcc8968 |    00002F67  A$lcc8968
     00002F69  A$lcc8968 |    00002F6A  A$lcc8968 |    00002F6B  A$lcc8968
     00002F6C  A$lcc8968 |    00002F6D  A$lcc8968 |    00002F6E  A$lcc8968
     00002F70  A$lcc8968 |    00002F70  C$collisi |    00002F73  A$lcc8968
     00002F74  A$lcc8968 |    00002F76  A$lcc8968 |    00002F76  C$collisi
     00002F79  A$lcc8968 |    00002F7B  A$lcc8968 |    00002F7E  A$lcc8968
     00002F80  A$lcc8968 |    00002F80  C$collisi |    00002F83  A$lcc8968
     00002F84  A$lcc8968 |    00002F86  A$lcc8968 |    00002F86  C$collisi
     00002F89  A$lcc8968 |    00002F8B  A$lcc8968 |    00002F8C  A$lcc8968
     00002F8E  A$lcc8968 |    00002F8E  C$collisi |    00002F91  A$lcc8968
     00002F93  A$lcc8968 |    00002F93  C$collisi |    00002F96  A$lcc8968
     00002F98  A$lcc8968 |    00002F98  C$collisi |    00002F9B  A$lcc8968
     00002F9B  C$collisi |    00002F9E  A$lcc8968 |    00002F9F  A$lcc8968
     00002FA0  A$lcc8968 |    00002FA1  A$lcc8968 |    00002FA3  A$lcc8968
     00002FA4  A$lcc8968 |    00002FA5  A$lcc8968 |    00002FA6  A$lcc8968
     00002FA7  A$lcc8968 |    00002FA8  A$lcc8968 |    00002FA9  A$lcc8968
     00002FAA  A$lcc8968 |    00002FAC  A$lcc8968 |    00002FAE  A$lcc8968
     00002FB1  A$lcc8968 |    00002FB2  A$lcc8968 |    00002FB3  A$lcc8968
     00002FB4  A$lcc8968 |    00002FB6  A$lcc8968 |    00002FB7  A$lcc8968
     00002FB8  A$lcc8968 |    00002FB9  A$lcc8968 |    00002FBA  A$lcc8968
     00002FBB  A$lcc8968 |    00002FBC  A$lcc8968 |    00002FBD  A$lcc8968
     00002FBF  A$lcc8968 |    00002FC2  A$lcc8968 |    00002FC2  C$collisi
     00002FC5  A$lcc8968 |    00002FC7  A$lcc8968 |    00002FCA  A$lcc8968
     00002FCA  C$collisi |    00002FCD  A$lcc8968 |    00002FCE  A$lcc8968
     00002FD0  A$lcc8968 |    00002FD0  C$collisi |    00002FD1  A$lcc8968
     00002FD2  A$lcc8968 |    00002FD4  A$lcc8968 |    00002FD5  A$lcc8968
     00002FD6  A$lcc8968 |    00002FD7  A$lcc8968 |    00002FD8  A$lcc8968
     00002FD8  C$collisi |    00002FD9  A$lcc8968 |    00002FDB  A$lcc8968
     00002FDD  A$lcc8968 |    00002FDF  A$lcc8968 |    00002FE0  A$lcc8968
     00002FE1  A$lcc8968 |    00002FE2  A$lcc8968 |    00002FE4  A$lcc8968
     00002FE6  A$lcc8968 |    00002FE7  A$lcc8968 |    00002FE9  A$lcc8968
     00002FEA  A$lcc8968 |    00002FEB  A$lcc8968 |    00002FED  A$lcc8968
     00002FEF  A$lcc8968 |    00002FF0  A$lcc8968 |    00002FF1  A$lcc8968
ASxxxx Linker V03.00 + NoICE + sdld,  page 74.
Hexadecimal  [32-Bits]

Area                       Addr        Size        Decimal Bytes (Attributes)
--------------------       ----        ----        ------- ----- ------------
_CODE_0                0000265E    000016A1 =        5793. bytes (REL,CON)

        Value  Global            Value  Global            Value  Global    
        -----  ------            -----  ------            -----  ------    
     00002FF2  A$lcc8968 |    00002FF3  A$lcc8968 |    00002FF4  A$lcc8968
     00002FF6  A$lcc8968 |    00002FF7  A$lcc8968 |    00002FF9  A$lcc8968
     00002FFA  A$lcc8968 |    00002FFC  A$lcc8968 |    00002FFC  C$collisi
     00002FFF  A$lcc8968 |    00003000  A$lcc8968 |    00003002  A$lcc8968
     00003002  C$collisi |    00003005  A$lcc8968 |    00003007  A$lcc8968
     0000300A  A$lcc8968 |    0000300C  A$lcc8968 |    0000300C  C$collisi
     0000300F  A$lcc8968 |    00003010  A$lcc8968 |    00003012  A$lcc8968
     00003012  C$collisi |    00003015  A$lcc8968 |    00003017  A$lcc8968
     00003018  A$lcc8968 |    0000301A  A$lcc8968 |    0000301A  C$collisi
     0000301D  A$lcc8968 |    0000301F  A$lcc8968 |    0000301F  C$collisi
     00003022  A$lcc8968 |    00003024  A$lcc8968 |    00003024  C$collisi
     00003027  A$lcc8968 |    00003027  C$collisi |    0000302A  A$lcc8968
     0000302B  A$lcc8968 |    0000302D  A$lcc8968 |    00003030  A$lcc8968
     00003031  A$lcc8968 |    00003032  A$lcc8968 |    00003033  A$lcc8968
     00003035  A$lcc8968 |    00003036  A$lcc8968 |    00003037  A$lcc8968
     00003038  A$lcc8968 |    00003039  A$lcc8968 |    0000303A  A$lcc8968
     0000303B  A$lcc8968 |    0000303C  A$lcc8968 |    0000303D  A$lcc8968
     0000303D  C$collisi |    00003040  A$lcc8968 |    00003041  A$lcc8968
     00003042  A$lcc8968 |    00003043  A$lcc8968 |    00003045  A$lcc8968
     00003046  A$lcc8968 |    00003047  A$lcc8968 |    00003048  A$lcc8968
     00003049  A$lcc8968 |    0000304A  A$lcc8968 |    0000304B  A$lcc8968
     0000304C  A$lcc8968 |    0000304D  A$lcc8968 |    0000304F  A$lcc8968
     00003051  A$lcc8968 |    00003053  A$lcc8968 |    00003054  A$lcc8968
     00003055  A$lcc8968 |    00003055  C$collisi |    00003056  A$lcc8968
     00003058  A$lcc8968 |    0000305A  A$lcc8968 |    0000305B  A$lcc8968
     0000305D  A$lcc8968 |    0000305E  A$lcc8968 |    0000305F  A$lcc8968
     00003061  A$lcc8968 |    00003062  A$lcc8968 |    00003064  A$lcc8968
     00003065  A$lcc8968 |    00003067  A$lcc8968 |    0000306A  A$lcc8968
     0000306B  A$lcc8968 |    0000306C  A$lcc8968 |    0000306D  A$lcc8968
     0000306F  A$lcc8968 |    00003070  A$lcc8968 |    00003071  A$lcc8968
     00003072  A$lcc8968 |    00003073  A$lcc8968 |    00003074  A$lcc8968
     00003075  A$lcc8968 |    00003076  A$lcc8968 |    00003077  A$lcc8968
     00003079  A$lcc8968 |    00003079  C$collisi |    0000307C  A$lcc8968
     0000307D  A$lcc8968 |    0000307F  A$lcc8968 |    0000307F  C$collisi
     00003082  A$lcc8968 |    00003084  A$lcc8968 |    00003087  A$lcc8968
     00003089  A$lcc8968 |    00003089  C$collisi |    0000308C  A$lcc8968
     0000308D  A$lcc8968 |    0000308F  A$lcc8968 |    0000308F  C$collisi
     00003092  A$lcc8968 |    00003094  A$lcc8968 |    00003095  A$lcc8968
     00003097  A$lcc8968 |    00003097  C$collisi |    0000309A  A$lcc8968
     0000309C  A$lcc8968 |    0000309C  C$collisi |    0000309F  A$lcc8968
     000030A1  A$lcc8968 |    000030A1  C$collisi |    000030A4  A$lcc8968
     000030A4  C$collisi |    000030A7  A$lcc8968 |    000030A8  A$lcc8968
     000030A9  A$lcc8968 |    000030AA  A$lcc8968 |    000030AC  A$lcc8968
     000030AD  A$lcc8968 |    000030AE  A$lcc8968 |    000030AF  A$lcc8968
     000030B0  A$lcc8968 |    000030B1  A$lcc8968 |    000030B2  A$lcc8968
     000030B3  A$lcc8968 |    000030B5  A$lcc8968 |    000030B7  A$lcc8968
     000030BA  A$lcc8968 |    000030BB  A$lcc8968 |    000030BC  A$lcc8968
     000030BD  A$lcc8968 |    000030BF  A$lcc8968 |    000030C0  A$lcc8968
     000030C1  A$lcc8968 |    000030C2  A$lcc8968 |    000030C3  A$lcc8968
     000030C4  A$lcc8968 |    000030C5  A$lcc8968 |    000030C6  A$lcc8968
     000030C8  A$lcc8968 |    000030CA  A$lcc8968 |    000030CA  C$collisi
ASxxxx Linker V03.00 + NoICE + sdld,  page 75.
Hexadecimal  [32-Bits]

Area                       Addr        Size        Decimal Bytes (Attributes)
--------------------       ----        ----        ------- ----- ------------
_CODE_0                0000265E    000016A1 =        5793. bytes (REL,CON)

        Value  Global            Value  Global            Value  Global    
        -----  ------            -----  ------            -----  ------    
     000030CD  A$lcc8968 |    000030CF  A$lcc8968 |    000030CF  C$collisi
     000030D1  A$lcc8968 |    000030D2  A$lcc8968 |    000030D4  A$lcc8968
     000030D7  A$lcc8968 |    000030D8  A$lcc8968 |    000030D9  A$lcc8968
     000030DB  A$lcc8968 |    000030DB  C$collisi |    000030DB  XG$check_
     000030DC  A$lcc8968 |    000030DC  C$collisi |    000030DC  G$check_U
     000030DC  _check_UD |    000030DE  A$lcc8968 |    000030DE  C$collisi
     000030E0  A$lcc8968 |    000030E2  A$lcc8968 |    000030E3  A$lcc8968
     000030E3  C$collisi |    000030E6  A$lcc8968 |    000030E7  A$lcc8968
     000030E9  A$lcc8968 |    000030EC  A$lcc8968 |    000030ED  A$lcc8968
     000030EE  A$lcc8968 |    000030EE  C$collisi |    000030F0  A$lcc8968
     000030F1  A$lcc8968 |    000030F3  A$lcc8968 |    000030F4  A$lcc8968
     000030F6  A$lcc8968 |    000030F7  A$lcc8968 |    000030F9  A$lcc8968
     000030FA  A$lcc8968 |    000030FA  C$collisi |    000030FD  A$lcc8968
     000030FE  A$lcc8968 |    000030FF  A$lcc8968 |    00003100  A$lcc8968
     00003101  A$lcc8968 |    00003103  A$lcc8968 |    00003105  A$lcc8968
     00003105  C$collisi |    00003108  A$lcc8968 |    0000310A  A$lcc8968
     0000310A  C$collisi |    0000310D  A$lcc8968 |    0000310F  A$lcc8968
     0000310F  C$collisi |    00003112  A$lcc8968 |    00003114  A$lcc8968
     00003116  A$lcc8968 |    00003116  C$collisi |    00003117  A$lcc8968
     00003119  A$lcc8968 |    00003119  C$collisi |    0000311C  A$lcc8968
     0000311E  A$lcc8968 |    0000311E  C$collisi |    00003121  A$lcc8968
     00003123  A$lcc8968 |    00003123  C$collisi |    00003126  A$lcc8968
     00003128  A$lcc8968 |    00003128  C$collisi |    0000312A  A$lcc8968
     0000312B  A$lcc8968 |    0000312D  A$lcc8968 |    0000312E  A$lcc8968
     00003130  A$lcc8968 |    00003131  A$lcc8968 |    00003132  A$lcc8968
     00003134  A$lcc8968 |    00003135  A$lcc8968 |    00003137  A$lcc8968
     00003138  A$lcc8968 |    00003139  A$lcc8968 |    0000313A  A$lcc8968
     0000313B  A$lcc8968 |    0000313C  A$lcc8968 |    0000313D  A$lcc8968
     0000313F  A$lcc8968 |    00003140  A$lcc8968 |    00003141  A$lcc8968
     00003142  A$lcc8968 |    00003144  A$lcc8968 |    00003145  A$lcc8968
     00003147  A$lcc8968 |    00003148  A$lcc8968 |    0000314A  A$lcc8968
     0000314B  A$lcc8968 |    0000314D  A$lcc8968 |    0000314E  A$lcc8968
     00003150  A$lcc8968 |    00003151  A$lcc8968 |    00003153  A$lcc8968
     00003153  C$collisi |    00003154  A$lcc8968 |    00003156  A$lcc8968
     00003157  A$lcc8968 |    00003158  A$lcc8968 |    0000315A  A$lcc8968
     0000315B  A$lcc8968 |    0000315D  A$lcc8968 |    0000315E  A$lcc8968
     0000315F  A$lcc8968 |    00003160  A$lcc8968 |    00003161  A$lcc8968
     00003162  A$lcc8968 |    00003163  A$lcc8968 |    00003165  A$lcc8968
     00003166  A$lcc8968 |    00003167  A$lcc8968 |    00003168  A$lcc8968
     0000316A  A$lcc8968 |    0000316B  A$lcc8968 |    0000316D  A$lcc8968
     0000316E  A$lcc8968 |    00003170  A$lcc8968 |    00003171  A$lcc8968
     00003173  A$lcc8968 |    00003174  A$lcc8968 |    00003176  A$lcc8968
     00003177  A$lcc8968 |    00003179  A$lcc8968 |    00003179  C$collisi
     0000317A  A$lcc8968 |    0000317B  A$lcc8968 |    0000317D  A$lcc8968
     0000317E  A$lcc8968 |    0000317F  A$lcc8968 |    00003181  A$lcc8968
     00003182  A$lcc8968 |    00003183  A$lcc8968 |    00003184  A$lcc8968
     00003185  A$lcc8968 |    00003186  A$lcc8968 |    00003187  A$lcc8968
     00003188  A$lcc8968 |    0000318A  A$lcc8968 |    0000318B  A$lcc8968
     0000318C  A$lcc8968 |    0000318D  A$lcc8968 |    0000318F  A$lcc8968
     00003190  A$lcc8968 |    00003192  A$lcc8968 |    00003193  A$lcc8968
     00003195  A$lcc8968 |    00003196  A$lcc8968 |    00003198  A$lcc8968
ASxxxx Linker V03.00 + NoICE + sdld,  page 76.
Hexadecimal  [32-Bits]

Area                       Addr        Size        Decimal Bytes (Attributes)
--------------------       ----        ----        ------- ----- ------------
_CODE_0                0000265E    000016A1 =        5793. bytes (REL,CON)

        Value  Global            Value  Global            Value  Global    
        -----  ------            -----  ------            -----  ------    
     00003199  A$lcc8968 |    0000319B  A$lcc8968 |    0000319C  A$lcc8968
     0000319E  A$lcc8968 |    0000319E  C$collisi |    0000319F  A$lcc8968
     000031A1  A$lcc8968 |    000031A2  A$lcc8968 |    000031A3  A$lcc8968
     000031A5  A$lcc8968 |    000031A6  A$lcc8968 |    000031A8  A$lcc8968
     000031A9  A$lcc8968 |    000031AA  A$lcc8968 |    000031AB  A$lcc8968
     000031AC  A$lcc8968 |    000031AD  A$lcc8968 |    000031AE  A$lcc8968
     000031B0  A$lcc8968 |    000031B1  A$lcc8968 |    000031B2  A$lcc8968
     000031B3  A$lcc8968 |    000031B5  A$lcc8968 |    000031B6  A$lcc8968
     000031B8  A$lcc8968 |    000031B9  A$lcc8968 |    000031BB  A$lcc8968
     000031BC  A$lcc8968 |    000031BE  A$lcc8968 |    000031BF  A$lcc8968
     000031C1  A$lcc8968 |    000031C2  A$lcc8968 |    000031C4  A$lcc8968
     000031C4  C$collisi |    000031C5  A$lcc8968 |    000031C7  A$lcc8968
     000031C8  A$lcc8968 |    000031C9  A$lcc8968 |    000031CA  A$lcc8968
     000031CB  A$lcc8968 |    000031CC  A$lcc8968 |    000031CD  A$lcc8968
     000031CF  A$lcc8968 |    000031D0  A$lcc8968 |    000031D1  A$lcc8968
     000031D2  A$lcc8968 |    000031D4  A$lcc8968 |    000031D5  A$lcc8968
     000031D7  A$lcc8968 |    000031D8  A$lcc8968 |    000031DA  A$lcc8968
     000031DB  A$lcc8968 |    000031DD  A$lcc8968 |    000031DE  A$lcc8968
     000031E0  A$lcc8968 |    000031E1  A$lcc8968 |    000031E3  A$lcc8968
     000031E3  C$collisi |    000031E5  A$lcc8968 |    000031E6  A$lcc8968
     000031E8  A$lcc8968 |    000031E9  A$lcc8968 |    000031EB  A$lcc8968
     000031EE  A$lcc8968 |    000031EF  A$lcc8968 |    000031F0  A$lcc8968
     000031F1  A$lcc8968 |    000031F2  A$lcc8968 |    000031F4  A$lcc8968
     000031F5  A$lcc8968 |    000031F6  A$lcc8968 |    000031F7  A$lcc8968
     000031F8  A$lcc8968 |    000031F9  A$lcc8968 |    000031FA  A$lcc8968
     000031FB  A$lcc8968 |    000031FC  A$lcc8968 |    000031FD  A$lcc8968
     000031FE  A$lcc8968 |    000031FF  A$lcc8968 |    00003200  A$lcc8968
     00003201  A$lcc8968 |    00003202  A$lcc8968 |    00003203  A$lcc8968
     00003205  A$lcc8968 |    00003207  A$lcc8968 |    00003208  A$lcc8968
     00003209  A$lcc8968 |    0000320A  A$lcc8968 |    0000320B  A$lcc8968
     0000320E  A$lcc8968 |    0000320F  A$lcc8968 |    00003210  A$lcc8968
     00003211  A$lcc8968 |    00003213  A$lcc8968 |    00003214  A$lcc8968
     00003215  A$lcc8968 |    00003216  A$lcc8968 |    00003218  A$lcc8968
     00003219  A$lcc8968 |    0000321B  A$lcc8968 |    0000321C  A$lcc8968
     0000321E  A$lcc8968 |    0000321F  A$lcc8968 |    00003221  A$lcc8968
     00003222  A$lcc8968 |    00003224  A$lcc8968 |    00003225  A$lcc8968
     00003227  A$lcc8968 |    00003227  C$collisi |    00003228  A$lcc8968
     00003229  A$lcc8968 |    0000322A  A$lcc8968 |    0000322B  A$lcc8968
     0000322C  A$lcc8968 |    0000322E  A$lcc8968 |    00003230  A$lcc8968
     00003231  A$lcc8968 |    00003232  A$lcc8968 |    00003233  A$lcc8968
     00003234  A$lcc8968 |    00003237  A$lcc8968 |    00003238  A$lcc8968
     00003239  A$lcc8968 |    0000323A  A$lcc8968 |    0000323C  A$lcc8968
     0000323D  A$lcc8968 |    0000323E  A$lcc8968 |    0000323F  A$lcc8968
     00003241  A$lcc8968 |    00003242  A$lcc8968 |    00003244  A$lcc8968
     00003245  A$lcc8968 |    00003247  A$lcc8968 |    00003248  A$lcc8968
     0000324A  A$lcc8968 |    0000324B  A$lcc8968 |    0000324D  A$lcc8968
     0000324E  A$lcc8968 |    00003250  A$lcc8968 |    00003250  C$collisi
     00003253  A$lcc8968 |    00003254  A$lcc8968 |    00003255  A$lcc8968
     00003256  A$lcc8968 |    00003257  A$lcc8968 |    00003259  A$lcc8968
     0000325A  A$lcc8968 |    0000325B  A$lcc8968 |    0000325C  A$lcc8968
     0000325D  A$lcc8968 |    0000325E  A$lcc8968 |    0000325F  A$lcc8968
ASxxxx Linker V03.00 + NoICE + sdld,  page 77.
Hexadecimal  [32-Bits]

Area                       Addr        Size        Decimal Bytes (Attributes)
--------------------       ----        ----        ------- ----- ------------
_CODE_0                0000265E    000016A1 =        5793. bytes (REL,CON)

        Value  Global            Value  Global            Value  Global    
        -----  ------            -----  ------            -----  ------    
     00003260  A$lcc8968 |    00003261  A$lcc8968 |    00003263  A$lcc8968
     00003264  A$lcc8968 |    00003265  A$lcc8968 |    00003266  A$lcc8968
     00003267  A$lcc8968 |    00003268  A$lcc8968 |    0000326A  A$lcc8968
     0000326C  A$lcc8968 |    0000326D  A$lcc8968 |    0000326E  A$lcc8968
     0000326F  A$lcc8968 |    00003270  A$lcc8968 |    00003273  A$lcc8968
     00003274  A$lcc8968 |    00003275  A$lcc8968 |    00003276  A$lcc8968
     00003278  A$lcc8968 |    00003279  A$lcc8968 |    0000327A  A$lcc8968
     0000327B  A$lcc8968 |    0000327D  A$lcc8968 |    0000327E  A$lcc8968
     00003280  A$lcc8968 |    00003281  A$lcc8968 |    00003283  A$lcc8968
     00003284  A$lcc8968 |    00003286  A$lcc8968 |    00003287  A$lcc8968
     00003289  A$lcc8968 |    0000328A  A$lcc8968 |    0000328C  A$lcc8968
     0000328C  C$collisi |    0000328F  A$lcc8968 |    00003290  A$lcc8968
     00003291  A$lcc8968 |    00003292  A$lcc8968 |    00003293  A$lcc8968
     00003295  A$lcc8968 |    00003296  A$lcc8968 |    00003297  A$lcc8968
     00003298  A$lcc8968 |    00003299  A$lcc8968 |    0000329A  A$lcc8968
     0000329B  A$lcc8968 |    0000329C  A$lcc8968 |    0000329D  A$lcc8968
     0000329E  A$lcc8968 |    0000329F  A$lcc8968 |    000032A0  A$lcc8968
     000032A1  A$lcc8968 |    000032A3  A$lcc8968 |    000032A5  A$lcc8968
     000032A8  A$lcc8968 |    000032A9  A$lcc8968 |    000032AA  A$lcc8968
     000032AB  A$lcc8968 |    000032AD  A$lcc8968 |    000032AF  A$lcc8968
     000032B1  A$lcc8968 |    000032B3  A$lcc8968 |    000032B5  A$lcc8968
     000032B7  A$lcc8968 |    000032B7  C$collisi |    000032BA  A$lcc8968
     000032BC  A$lcc8968 |    000032BD  A$lcc8968 |    000032BF  A$lcc8968
     000032C0  A$lcc8968 |    000032C2  A$lcc8968 |    000032C3  A$lcc8968
     000032C4  A$lcc8968 |    000032C5  A$lcc8968 |    000032C6  A$lcc8968
     000032C7  A$lcc8968 |    000032C8  A$lcc8968 |    000032C9  A$lcc8968
     000032CA  A$lcc8968 |    000032CB  A$lcc8968 |    000032CE  A$lcc8968
     000032D0  A$lcc8968 |    000032D1  A$lcc8968 |    000032D3  A$lcc8968
     000032D4  A$lcc8968 |    000032D5  A$lcc8968 |    000032D5  C$collisi
     000032D6  A$lcc8968 |    000032D7  A$lcc8968 |    000032D8  A$lcc8968
     000032D9  A$lcc8968 |    000032DA  A$lcc8968 |    000032DC  A$lcc8968
     000032DD  A$lcc8968 |    000032DE  A$lcc8968 |    000032DF  A$lcc8968
     000032E0  A$lcc8968 |    000032E1  A$lcc8968 |    000032E2  A$lcc8968
     000032E4  A$lcc8968 |    000032E5  A$lcc8968 |    000032E6  A$lcc8968
     000032E6  C$collisi |    000032E7  A$lcc8968 |    000032E8  A$lcc8968
     000032E9  A$lcc8968 |    000032EA  A$lcc8968 |    000032EC  A$lcc8968
     000032ED  A$lcc8968 |    000032EE  A$lcc8968 |    000032EF  A$lcc8968
     000032F0  A$lcc8968 |    000032F1  A$lcc8968 |    000032F2  A$lcc8968
     000032F4  A$lcc8968 |    000032F5  A$lcc8968 |    000032F6  A$lcc8968
     000032F6  C$collisi |    000032F7  A$lcc8968 |    000032F8  A$lcc8968
     000032F9  A$lcc8968 |    000032FA  A$lcc8968 |    000032FB  A$lcc8968
     000032FC  A$lcc8968 |    000032FE  A$lcc8968 |    000032FF  A$lcc8968
     00003300  A$lcc8968 |    00003301  A$lcc8968 |    00003302  A$lcc8968
     00003303  A$lcc8968 |    00003304  A$lcc8968 |    00003306  A$lcc8968
     00003307  A$lcc8968 |    00003308  A$lcc8968 |    00003309  A$lcc8968
     00003309  C$collisi |    0000330A  A$lcc8968 |    0000330C  A$lcc8968
     0000330D  A$lcc8968 |    0000330E  A$lcc8968 |    0000330F  A$lcc8968
     00003310  A$lcc8968 |    00003313  A$lcc8968 |    00003315  A$lcc8968
     00003315  C$collisi |    00003317  A$lcc8968 |    00003318  A$lcc8968
     00003319  A$lcc8968 |    0000331A  A$lcc8968 |    0000331B  A$lcc8968
     0000331C  A$lcc8968 |    0000331D  A$lcc8968 |    0000331F  A$lcc8968
ASxxxx Linker V03.00 + NoICE + sdld,  page 78.
Hexadecimal  [32-Bits]

Area                       Addr        Size        Decimal Bytes (Attributes)
--------------------       ----        ----        ------- ----- ------------
_CODE_0                0000265E    000016A1 =        5793. bytes (REL,CON)

        Value  Global            Value  Global            Value  Global    
        -----  ------            -----  ------            -----  ------    
     00003320  A$lcc8968 |    00003321  A$lcc8968 |    00003321  C$collisi
     00003322  A$lcc8968 |    00003323  A$lcc8968 |    00003324  A$lcc8968
     00003325  A$lcc8968 |    00003326  A$lcc8968 |    00003328  A$lcc8968
     00003329  A$lcc8968 |    0000332A  A$lcc8968 |    0000332B  A$lcc8968
     0000332C  A$lcc8968 |    0000332F  A$lcc8968 |    00003331  A$lcc8968
     00003332  A$lcc8968 |    00003333  A$lcc8968 |    00003333  C$collisi
     00003335  A$lcc8968 |    00003336  A$lcc8968 |    00003337  A$lcc8968
     00003338  A$lcc8968 |    00003339  A$lcc8968 |    0000333A  A$lcc8968
     0000333B  A$lcc8968 |    0000333D  A$lcc8968 |    0000333E  A$lcc8968
     0000333F  A$lcc8968 |    0000333F  C$collisi |    00003340  A$lcc8968
     00003341  A$lcc8968 |    00003342  A$lcc8968 |    00003343  A$lcc8968
     00003344  A$lcc8968 |    00003345  A$lcc8968 |    00003346  A$lcc8968
     00003348  A$lcc8968 |    00003349  A$lcc8968 |    0000334A  A$lcc8968
     0000334A  C$collisi |    0000334B  A$lcc8968 |    0000334C  A$lcc8968
     0000334D  A$lcc8968 |    0000334E  A$lcc8968 |    0000334F  A$lcc8968
     00003350  A$lcc8968 |    00003351  A$lcc8968 |    00003353  A$lcc8968
     00003354  A$lcc8968 |    00003355  A$lcc8968 |    00003356  A$lcc8968
     00003356  C$collisi |    00003358  A$lcc8968 |    00003359  A$lcc8968
     0000335A  A$lcc8968 |    0000335B  A$lcc8968 |    0000335C  A$lcc8968
     0000335E  A$lcc8968 |    0000335F  A$lcc8968 |    00003360  A$lcc8968
     00003361  A$lcc8968 |    00003362  A$lcc8968 |    00003365  A$lcc8968
     00003367  A$lcc8968 |    00003368  A$lcc8968 |    00003369  A$lcc8968
     00003369  C$collisi |    0000336B  A$lcc8968 |    0000336C  A$lcc8968
     0000336D  A$lcc8968 |    0000336E  A$lcc8968 |    0000336F  A$lcc8968
     00003370  A$lcc8968 |    00003371  A$lcc8968 |    00003373  A$lcc8968
     00003374  A$lcc8968 |    00003375  A$lcc8968 |    00003375  C$collisi
     00003376  A$lcc8968 |    00003377  A$lcc8968 |    00003378  A$lcc8968
     00003379  A$lcc8968 |    0000337A  A$lcc8968 |    0000337B  A$lcc8968
     0000337C  A$lcc8968 |    0000337E  A$lcc8968 |    0000337F  A$lcc8968
     00003380  A$lcc8968 |    00003381  A$lcc8968 |    00003381  C$collisi
     00003383  A$lcc8968 |    00003384  A$lcc8968 |    00003385  A$lcc8968
     00003386  A$lcc8968 |    00003387  A$lcc8968 |    00003388  A$lcc8968
     00003389  A$lcc8968 |    0000338B  A$lcc8968 |    0000338C  A$lcc8968
     0000338D  A$lcc8968 |    0000338E  A$lcc8968 |    0000338E  C$collisi
     00003391  A$lcc8968 |    00003392  A$lcc8968 |    00003395  A$lcc8968
     00003395  C$collisi |    00003398  A$lcc8968 |    00003399  A$lcc8968
     0000339A  A$lcc8968 |    0000339B  A$lcc8968 |    0000339C  A$lcc8968
     0000339E  A$lcc8968 |    0000339F  A$lcc8968 |    000033A0  A$lcc8968
     000033A1  A$lcc8968 |    000033A2  A$lcc8968 |    000033A4  A$lcc8968
     000033A6  A$lcc8968 |    000033A7  A$lcc8968 |    000033A9  A$lcc8968
     000033AB  A$lcc8968 |    000033AC  A$lcc8968 |    000033AE  A$lcc8968
     000033AF  A$lcc8968 |    000033B1  A$lcc8968 |    000033B3  A$lcc8968
     000033B5  A$lcc8968 |    000033B7  A$lcc8968 |    000033B8  A$lcc8968
     000033BA  A$lcc8968 |    000033BC  A$lcc8968 |    000033BE  A$lcc8968
     000033BF  A$lcc8968 |    000033C1  A$lcc8968 |    000033C1  C$collisi
     000033C4  A$lcc8968 |    000033C5  A$lcc8968 |    000033C6  A$lcc8968
     000033C7  A$lcc8968 |    000033C9  A$lcc8968 |    000033CA  A$lcc8968
     000033CB  A$lcc8968 |    000033CC  A$lcc8968 |    000033CD  A$lcc8968
     000033CE  A$lcc8968 |    000033CF  A$lcc8968 |    000033D0  A$lcc8968
     000033D2  A$lcc8968 |    000033D4  A$lcc8968 |    000033D6  A$lcc8968
     000033D7  A$lcc8968 |    000033D8  A$lcc8968 |    000033DB  A$lcc8968
ASxxxx Linker V03.00 + NoICE + sdld,  page 79.
Hexadecimal  [32-Bits]

Area                       Addr        Size        Decimal Bytes (Attributes)
--------------------       ----        ----        ------- ----- ------------
_CODE_0                0000265E    000016A1 =        5793. bytes (REL,CON)

        Value  Global            Value  Global            Value  Global    
        -----  ------            -----  ------            -----  ------    
     000033DC  A$lcc8968 |    000033DD  A$lcc8968 |    000033DE  A$lcc8968
     000033E0  A$lcc8968 |    000033E1  A$lcc8968 |    000033E2  A$lcc8968
     000033E3  A$lcc8968 |    000033E4  A$lcc8968 |    000033E5  A$lcc8968
     000033E6  A$lcc8968 |    000033E8  A$lcc8968 |    000033EA  A$lcc8968
     000033EB  A$lcc8968 |    000033ED  A$lcc8968 |    000033EF  A$lcc8968
     000033EF  C$collisi |    000033F2  A$lcc8968 |    000033F4  A$lcc8968
     000033F5  A$lcc8968 |    000033F7  A$lcc8968 |    000033F9  A$lcc8968
     000033F9  C$collisi |    000033FA  A$lcc8968 |    000033FB  A$lcc8968
     000033FD  A$lcc8968 |    000033FE  A$lcc8968 |    00003400  A$lcc8968
     00003402  A$lcc8968 |    00003402  C$collisi |    00003405  A$lcc8968
     00003407  A$lcc8968 |    00003408  A$lcc8968 |    0000340A  A$lcc8968
     0000340A  C$collisi |    0000340D  A$lcc8968 |    0000340E  A$lcc8968
     0000340F  A$lcc8968 |    00003410  A$lcc8968 |    00003412  A$lcc8968
     00003413  A$lcc8968 |    00003414  A$lcc8968 |    00003415  A$lcc8968
     00003416  A$lcc8968 |    00003417  A$lcc8968 |    00003418  A$lcc8968
     00003419  A$lcc8968 |    0000341B  A$lcc8968 |    0000341D  A$lcc8968
     00003420  A$lcc8968 |    00003421  A$lcc8968 |    00003422  A$lcc8968
     00003423  A$lcc8968 |    00003425  A$lcc8968 |    00003426  A$lcc8968
     00003427  A$lcc8968 |    00003428  A$lcc8968 |    00003429  A$lcc8968
     0000342A  A$lcc8968 |    0000342B  A$lcc8968 |    0000342C  A$lcc8968
     0000342E  A$lcc8968 |    00003430  A$lcc8968 |    00003430  C$collisi
     00003433  A$lcc8968 |    00003434  A$lcc8968 |    00003435  A$lcc8968
     00003436  A$lcc8968 |    00003436  C$collisi |    00003437  A$lcc8968
     00003439  A$lcc8968 |    0000343A  A$lcc8968 |    0000343C  A$lcc8968
     0000343D  A$lcc8968 |    0000343F  A$lcc8968 |    00003441  A$lcc8968
     00003442  A$lcc8968 |    00003444  A$lcc8968 |    00003447  A$lcc8968
     00003449  A$lcc8968 |    0000344B  A$lcc8968 |    0000344C  A$lcc8968
     0000344E  A$lcc8968 |    0000344E  C$collisi |    00003451  A$lcc8968
     00003452  A$lcc8968 |    00003453  A$lcc8968 |    00003454  A$lcc8968
     00003454  C$collisi |    00003457  A$lcc8968 |    00003459  A$lcc8968
     0000345C  A$lcc8968 |    0000345D  A$lcc8968 |    0000345F  A$lcc8968
     00003460  A$lcc8968 |    00003461  A$lcc8968 |    00003462  A$lcc8968
     00003463  A$lcc8968 |    00003463  C$collisi |    00003465  A$lcc8968
     00003466  A$lcc8968 |    00003467  A$lcc8968 |    00003468  A$lcc8968
     0000346B  A$lcc8968 |    0000346C  A$lcc8968 |    0000346D  A$lcc8968
     0000346E  A$lcc8968 |    0000346F  A$lcc8968 |    00003470  A$lcc8968
     00003471  A$lcc8968 |    00003473  A$lcc8968 |    00003474  A$lcc8968
     00003475  A$lcc8968 |    00003476  A$lcc8968 |    00003478  A$lcc8968
     00003479  A$lcc8968 |    0000347B  A$lcc8968 |    0000347C  A$lcc8968
     0000347D  A$lcc8968 |    0000347E  A$lcc8968 |    00003481  A$lcc8968
     00003482  A$lcc8968 |    00003483  A$lcc8968 |    00003484  A$lcc8968
     00003485  A$lcc8968 |    00003486  A$lcc8968 |    00003487  A$lcc8968
     00003489  A$lcc8968 |    0000348A  A$lcc8968 |    0000348B  A$lcc8968
     0000348C  A$lcc8968 |    0000348E  A$lcc8968 |    0000348F  A$lcc8968
     0000348F  C$collisi |    00003491  A$lcc8968 |    00003492  A$lcc8968
     00003493  A$lcc8968 |    00003494  A$lcc8968 |    00003497  A$lcc8968
     00003498  A$lcc8968 |    00003499  A$lcc8968 |    0000349A  A$lcc8968
     0000349B  A$lcc8968 |    0000349C  A$lcc8968 |    0000349D  A$lcc8968
     0000349F  A$lcc8968 |    000034A0  A$lcc8968 |    000034A1  A$lcc8968
     000034A2  A$lcc8968 |    000034A4  A$lcc8968 |    000034A5  A$lcc8968
     000034A5  C$collisi |    000034A7  A$lcc8968 |    000034A8  A$lcc8968
ASxxxx Linker V03.00 + NoICE + sdld,  page 80.
Hexadecimal  [32-Bits]

Area                       Addr        Size        Decimal Bytes (Attributes)
--------------------       ----        ----        ------- ----- ------------
_CODE_0                0000265E    000016A1 =        5793. bytes (REL,CON)

        Value  Global            Value  Global            Value  Global    
        -----  ------            -----  ------            -----  ------    
     000034A9  A$lcc8968 |    000034AA  A$lcc8968 |    000034AD  A$lcc8968
     000034AE  A$lcc8968 |    000034AF  A$lcc8968 |    000034B0  A$lcc8968
     000034B1  A$lcc8968 |    000034B2  A$lcc8968 |    000034B3  A$lcc8968
     000034B5  A$lcc8968 |    000034B6  A$lcc8968 |    000034B7  A$lcc8968
     000034B8  A$lcc8968 |    000034BA  A$lcc8968 |    000034BB  A$lcc8968
     000034BD  A$lcc8968 |    000034BE  A$lcc8968 |    000034BF  A$lcc8968
     000034C0  A$lcc8968 |    000034C3  A$lcc8968 |    000034C4  A$lcc8968
     000034C5  A$lcc8968 |    000034C6  A$lcc8968 |    000034C7  A$lcc8968
     000034C8  A$lcc8968 |    000034C9  A$lcc8968 |    000034CB  A$lcc8968
     000034CC  A$lcc8968 |    000034CD  A$lcc8968 |    000034CE  A$lcc8968
     000034D0  A$lcc8968 |    000034D1  A$lcc8968 |    000034D3  A$lcc8968
     000034D4  A$lcc8968 |    000034D5  A$lcc8968 |    000034D6  A$lcc8968
     000034D9  A$lcc8968 |    000034DA  A$lcc8968 |    000034DB  A$lcc8968
     000034DC  A$lcc8968 |    000034DD  A$lcc8968 |    000034DE  A$lcc8968
     000034DF  A$lcc8968 |    000034E1  A$lcc8968 |    000034E2  A$lcc8968
     000034E3  A$lcc8968 |    000034E4  A$lcc8968 |    000034E6  A$lcc8968
     000034E7  A$lcc8968 |    000034E7  C$collisi |    000034E9  A$lcc8968
     000034EA  A$lcc8968 |    000034EB  A$lcc8968 |    000034EC  A$lcc8968
     000034EE  A$lcc8968 |    000034EF  A$lcc8968 |    000034F1  A$lcc8968
     000034F2  A$lcc8968 |    000034F4  A$lcc8968 |    000034F6  A$lcc8968
     000034F8  A$lcc8968 |    000034FA  A$lcc8968 |    000034FB  A$lcc8968
     000034FD  A$lcc8968 |    000034FF  A$lcc8968 |    00003501  A$lcc8968
     00003502  A$lcc8968 |    00003505  A$lcc8968 |    00003505  C$collisi
     00003507  A$lcc8968 |    00003508  A$lcc8968 |    00003509  A$lcc8968
     0000350A  A$lcc8968 |    0000350B  A$lcc8968 |    0000350C  A$lcc8968
     0000350D  A$lcc8968 |    00003510  A$lcc8968 |    00003512  A$lcc8968
     00003513  A$lcc8968 |    00003514  A$lcc8968 |    00003515  A$lcc8968
     00003516  A$lcc8968 |    00003517  A$lcc8968 |    00003518  A$lcc8968
     0000351B  A$lcc8968 |    0000351C  A$lcc8968 |    0000351D  A$lcc8968
     0000351E  A$lcc8968 |    0000351F  A$lcc8968 |    00003520  A$lcc8968
     00003521  A$lcc8968 |    00003522  A$lcc8968 |    00003523  A$lcc8968
     00003524  A$lcc8968 |    00003527  A$lcc8968 |    00003528  A$lcc8968
     0000352A  A$lcc8968 |    0000352D  A$lcc8968 |    0000352E  A$lcc8968
     00003530  A$lcc8968 |    00003533  A$lcc8968 |    00003534  A$lcc8968
     00003536  A$lcc8968 |    00003539  A$lcc8968 |    0000353C  A$lcc8968
     0000353D  A$lcc8968 |    0000353E  A$lcc8968 |    0000353F  A$lcc8968
     00003541  A$lcc8968 |    00003542  A$lcc8968 |    00003543  A$lcc8968
     00003544  A$lcc8968 |    00003545  A$lcc8968 |    00003546  A$lcc8968
     00003547  A$lcc8968 |    00003548  A$lcc8968 |    00003549  A$lcc8968
     0000354A  A$lcc8968 |    0000354D  A$lcc8968 |    0000354E  A$lcc8968
     0000354F  A$lcc8968 |    00003550  A$lcc8968 |    00003552  A$lcc8968
     00003553  A$lcc8968 |    00003554  A$lcc8968 |    00003555  A$lcc8968
     00003556  A$lcc8968 |    00003557  A$lcc8968 |    00003558  A$lcc8968
     00003559  A$lcc8968 |    0000355A  A$lcc8968 |    0000355C  A$lcc8968
     0000355E  A$lcc8968 |    00003561  A$lcc8968 |    00003562  A$lcc8968
     00003564  A$lcc8968 |    00003567  A$lcc8968 |    00003568  A$lcc8968
     0000356A  A$lcc8968 |    0000356B  A$lcc8968 |    0000356D  A$lcc8968
     0000356F  A$lcc8968 |    00003572  A$lcc8968 |    00003573  A$lcc8968
     00003574  A$lcc8968 |    00003575  A$lcc8968 |    00003577  A$lcc8968
     00003578  A$lcc8968 |    00003579  A$lcc8968 |    0000357A  A$lcc8968
     0000357B  A$lcc8968 |    0000357C  A$lcc8968 |    0000357D  A$lcc8968
ASxxxx Linker V03.00 + NoICE + sdld,  page 81.
Hexadecimal  [32-Bits]

Area                       Addr        Size        Decimal Bytes (Attributes)
--------------------       ----        ----        ------- ----- ------------
_CODE_0                0000265E    000016A1 =        5793. bytes (REL,CON)

        Value  Global            Value  Global            Value  Global    
        -----  ------            -----  ------            -----  ------    
     0000357E  A$lcc8968 |    00003580  A$lcc8968 |    00003582  A$lcc8968
     00003585  A$lcc8968 |    00003586  A$lcc8968 |    00003588  A$lcc8968
     0000358B  A$lcc8968 |    0000358C  A$lcc8968 |    0000358E  A$lcc8968
     0000358F  A$lcc8968 |    00003591  A$lcc8968 |    00003593  A$lcc8968
     00003596  A$lcc8968 |    00003597  A$lcc8968 |    00003598  A$lcc8968
     00003599  A$lcc8968 |    0000359B  A$lcc8968 |    0000359C  A$lcc8968
     0000359D  A$lcc8968 |    0000359E  A$lcc8968 |    0000359F  A$lcc8968
     000035A0  A$lcc8968 |    000035A1  A$lcc8968 |    000035A2  A$lcc8968
     000035A4  A$lcc8968 |    000035A7  A$lcc8968 |    000035AA  A$lcc8968
     000035AB  A$lcc8968 |    000035AE  A$lcc8968 |    000035B1  A$lcc8968
     000035B2  A$lcc8968 |    000035B5  A$lcc8968 |    000035B6  A$lcc8968
     000035B8  A$lcc8968 |    000035BB  A$lcc8968 |    000035BB  C$collisi
     000035BE  A$lcc8968 |    000035BF  A$lcc8968 |    000035C2  A$lcc8968
     000035C2  C$collisi |    000035C5  A$lcc8968 |    000035C6  A$lcc8968
     000035C7  A$lcc8968 |    000035C8  A$lcc8968 |    000035CA  A$lcc8968
     000035CB  A$lcc8968 |    000035CC  A$lcc8968 |    000035CD  A$lcc8968
     000035CF  A$lcc8968 |    000035D0  A$lcc8968 |    000035D2  A$lcc8968
     000035D3  A$lcc8968 |    000035D5  A$lcc8968 |    000035D6  A$lcc8968
     000035D8  A$lcc8968 |    000035D9  A$lcc8968 |    000035DB  A$lcc8968
     000035DC  A$lcc8968 |    000035DE  A$lcc8968 |    000035DF  A$lcc8968
     000035E1  A$lcc8968 |    000035E2  A$lcc8968 |    000035E4  A$lcc8968
     000035E5  A$lcc8968 |    000035E6  A$lcc8968 |    000035E7  A$lcc8968
     000035E8  A$lcc8968 |    000035E9  A$lcc8968 |    000035EA  A$lcc8968
     000035EB  A$lcc8968 |    000035ED  A$lcc8968 |    000035EF  A$lcc8968
     000035F0  A$lcc8968 |    000035F1  A$lcc8968 |    000035F2  A$lcc8968
     000035F3  A$lcc8968 |    000035F6  A$lcc8968 |    000035F7  A$lcc8968
     000035F8  A$lcc8968 |    000035F9  A$lcc8968 |    000035FB  A$lcc8968
     000035FC  A$lcc8968 |    000035FD  A$lcc8968 |    000035FE  A$lcc8968
     00003600  A$lcc8968 |    00003601  A$lcc8968 |    00003603  A$lcc8968
     00003604  A$lcc8968 |    00003605  A$lcc8968 |    00003606  A$lcc8968
     00003608  A$lcc8968 |    0000360A  A$lcc8968 |    0000360C  A$lcc8968
     0000360E  A$lcc8968 |    00003610  A$lcc8968 |    00003612  A$lcc8968
     00003612  C$collisi |    00003613  A$lcc8968 |    00003615  A$lcc8968
     00003616  A$lcc8968 |    00003617  A$lcc8968 |    00003618  A$lcc8968
     00003619  A$lcc8968 |    0000361A  A$lcc8968 |    0000361B  A$lcc8968
     0000361C  A$lcc8968 |    0000361D  A$lcc8968 |    0000361E  A$lcc8968
     00003621  A$lcc8968 |    00003622  A$lcc8968 |    00003623  A$lcc8968
     00003624  A$lcc8968 |    00003624  C$collisi |    00003627  A$lcc8968
     00003628  A$lcc8968 |    00003629  A$lcc8968 |    0000362A  A$lcc8968
     0000362A  C$collisi |    0000362D  A$lcc8968 |    0000362F  A$lcc8968
     00003632  A$lcc8968 |    00003634  A$lcc8968 |    00003637  A$lcc8968
     00003639  A$lcc8968 |    0000363C  A$lcc8968 |    0000363E  A$lcc8968
     0000363E  C$collisi |    00003641  A$lcc8968 |    00003644  A$lcc8968
     00003644  C$collisi |    00003646  A$lcc8968 |    00003647  A$lcc8968
     00003648  A$lcc8968 |    00003649  A$lcc8968 |    0000364A  A$lcc8968
     0000364C  A$lcc8968 |    0000364E  A$lcc8968 |    0000364F  A$lcc8968
     00003650  A$lcc8968 |    00003651  A$lcc8968 |    00003652  A$lcc8968
     00003653  A$lcc8968 |    00003655  A$lcc8968 |    00003657  A$lcc8968
     00003658  A$lcc8968 |    00003659  A$lcc8968 |    0000365A  A$lcc8968
     0000365B  A$lcc8968 |    0000365C  A$lcc8968 |    0000365E  A$lcc8968
     00003661  A$lcc8968 |    00003661  C$collisi |    00003664  A$lcc8968
ASxxxx Linker V03.00 + NoICE + sdld,  page 82.
Hexadecimal  [32-Bits]

Area                       Addr        Size        Decimal Bytes (Attributes)
--------------------       ----        ----        ------- ----- ------------
_CODE_0                0000265E    000016A1 =        5793. bytes (REL,CON)

        Value  Global            Value  Global            Value  Global    
        -----  ------            -----  ------            -----  ------    
     00003666  A$lcc8968 |    00003669  A$lcc8968 |    00003669  C$collisi
     0000366B  A$lcc8968 |    0000366D  A$lcc8968 |    0000366F  A$lcc8968
     0000366F  C$collisi |    00003671  A$lcc8968 |    00003672  A$lcc8968
     00003673  A$lcc8968 |    00003674  A$lcc8968 |    00003675  A$lcc8968
     00003676  A$lcc8968 |    00003678  A$lcc8968 |    00003679  A$lcc8968
     0000367A  A$lcc8968 |    0000367B  A$lcc8968 |    0000367C  A$lcc8968
     0000367D  A$lcc8968 |    0000367E  A$lcc8968 |    00003680  A$lcc8968
     00003681  A$lcc8968 |    00003682  A$lcc8968 |    00003683  A$lcc8968
     00003684  A$lcc8968 |    00003685  A$lcc8968 |    00003686  A$lcc8968
     00003688  A$lcc8968 |    0000368B  A$lcc8968 |    0000368C  A$lcc8968
     0000368E  A$lcc8968 |    0000368E  C$collisi |    00003691  A$lcc8968
     00003692  A$lcc8968 |    00003693  A$lcc8968 |    00003694  A$lcc8968
     00003694  C$collisi |    00003697  A$lcc8968 |    00003699  A$lcc8968
     0000369B  A$lcc8968 |    0000369B  C$collisi |    0000369D  A$lcc8968
     0000369E  A$lcc8968 |    0000369F  A$lcc8968 |    000036A0  A$lcc8968
     000036A1  A$lcc8968 |    000036A3  A$lcc8968 |    000036A5  A$lcc8968
     000036A7  A$lcc8968 |    000036A8  A$lcc8968 |    000036A9  A$lcc8968
     000036AA  A$lcc8968 |    000036AB  A$lcc8968 |    000036AD  A$lcc8968
     000036AF  A$lcc8968 |    000036B0  A$lcc8968 |    000036B1  A$lcc8968
     000036B2  A$lcc8968 |    000036B3  A$lcc8968 |    000036B4  A$lcc8968
     000036B5  A$lcc8968 |    000036B6  A$lcc8968 |    000036B8  A$lcc8968
     000036BA  A$lcc8968 |    000036BA  C$collisi |    000036BD  A$lcc8968
     000036BF  A$lcc8968 |    000036C1  A$lcc8968 |    000036C1  C$collisi
     000036C3  A$lcc8968 |    000036C4  A$lcc8968 |    000036C5  A$lcc8968
     000036C7  A$lcc8968 |    000036C7  C$collisi |    000036C9  A$lcc8968
     000036CA  A$lcc8968 |    000036CB  A$lcc8968 |    000036CC  A$lcc8968
     000036CD  A$lcc8968 |    000036CE  A$lcc8968 |    000036D0  A$lcc8968
     000036D2  A$lcc8968 |    000036D3  A$lcc8968 |    000036D4  A$lcc8968
     000036D5  A$lcc8968 |    000036D6  A$lcc8968 |    000036D7  A$lcc8968
     000036D9  A$lcc8968 |    000036DA  A$lcc8968 |    000036DB  A$lcc8968
     000036DC  A$lcc8968 |    000036DD  A$lcc8968 |    000036DE  A$lcc8968
     000036DF  A$lcc8968 |    000036E0  A$lcc8968 |    000036E1  A$lcc8968
     000036E3  A$lcc8968 |    000036E6  A$lcc8968 |    000036E7  A$lcc8968
     000036E9  A$lcc8968 |    000036E9  C$collisi |    000036EC  A$lcc8968
     000036EE  A$lcc8968 |    000036EE  C$collisi |    000036F0  A$lcc8968
     000036F1  A$lcc8968 |    000036F3  A$lcc8968 |    000036F6  A$lcc8968
     000036F7  A$lcc8968 |    000036F8  A$lcc8968 |    000036FA  A$lcc8968
     000036FA  C$collisi |    000036FA  XG$check_ |    000036FB  A$lcc8968
     000036FB  C$collisi |    000036FB  G$check_D |    000036FB  _check_Dr
     000036FD  A$lcc8968 |    000036FD  C$collisi |    000036FF  A$lcc8968
     00003701  A$lcc8968 |    00003702  A$lcc8968 |    00003702  C$collisi
     00003705  A$lcc8968 |    00003706  A$lcc8968 |    00003708  A$lcc8968
     0000370B  A$lcc8968 |    0000370C  A$lcc8968 |    0000370D  A$lcc8968
     0000370D  C$collisi |    0000370F  A$lcc8968 |    00003710  A$lcc8968
     00003712  A$lcc8968 |    00003713  A$lcc8968 |    00003715  A$lcc8968
     00003716  A$lcc8968 |    00003718  A$lcc8968 |    00003719  A$lcc8968
     00003719  C$collisi |    0000371B  A$lcc8968 |    0000371C  A$lcc8968
     0000371E  A$lcc8968 |    0000371F  A$lcc8968 |    00003721  A$lcc8968
     00003722  A$lcc8968 |    00003723  A$lcc8968 |    00003725  A$lcc8968
     00003726  A$lcc8968 |    00003728  A$lcc8968 |    00003729  A$lcc8968
     0000372A  A$lcc8968 |    0000372B  A$lcc8968 |    0000372C  A$lcc8968
ASxxxx Linker V03.00 + NoICE + sdld,  page 83.
Hexadecimal  [32-Bits]

Area                       Addr        Size        Decimal Bytes (Attributes)
--------------------       ----        ----        ------- ----- ------------
_CODE_0                0000265E    000016A1 =        5793. bytes (REL,CON)

        Value  Global            Value  Global            Value  Global    
        -----  ------            -----  ------            -----  ------    
     0000372D  A$lcc8968 |    0000372E  A$lcc8968 |    00003730  A$lcc8968
     00003731  A$lcc8968 |    00003732  A$lcc8968 |    00003733  A$lcc8968
     00003735  A$lcc8968 |    00003736  A$lcc8968 |    00003738  A$lcc8968
     00003739  A$lcc8968 |    0000373B  A$lcc8968 |    0000373C  A$lcc8968
     0000373E  A$lcc8968 |    0000373F  A$lcc8968 |    00003741  A$lcc8968
     00003742  A$lcc8968 |    00003744  A$lcc8968 |    00003744  C$collisi
     00003745  A$lcc8968 |    00003747  A$lcc8968 |    00003748  A$lcc8968
     00003749  A$lcc8968 |    0000374A  A$lcc8968 |    0000374B  A$lcc8968
     0000374C  A$lcc8968 |    0000374D  A$lcc8968 |    0000374F  A$lcc8968
     00003750  A$lcc8968 |    00003751  A$lcc8968 |    00003752  A$lcc8968
     00003754  A$lcc8968 |    00003755  A$lcc8968 |    00003757  A$lcc8968
     00003758  A$lcc8968 |    0000375A  A$lcc8968 |    0000375B  A$lcc8968
     0000375D  A$lcc8968 |    0000375E  A$lcc8968 |    00003760  A$lcc8968
     00003761  A$lcc8968 |    00003763  A$lcc8968 |    00003763  C$collisi
     00003765  A$lcc8968 |    00003766  A$lcc8968 |    00003768  A$lcc8968
     00003769  A$lcc8968 |    0000376A  A$lcc8968 |    0000376B  A$lcc8968
     0000376C  A$lcc8968 |    0000376D  A$lcc8968 |    0000376E  A$lcc8968
     0000376F  A$lcc8968 |    00003770  A$lcc8968 |    00003771  A$lcc8968
     00003772  A$lcc8968 |    00003773  A$lcc8968 |    00003775  A$lcc8968
     00003777  A$lcc8968 |    00003778  A$lcc8968 |    00003779  A$lcc8968
     0000377A  A$lcc8968 |    0000377B  A$lcc8968 |    0000377C  A$lcc8968
     0000377D  A$lcc8968 |    00003780  A$lcc8968 |    00003781  A$lcc8968
     00003782  A$lcc8968 |    00003783  A$lcc8968 |    00003785  A$lcc8968
     00003786  A$lcc8968 |    00003787  A$lcc8968 |    00003788  A$lcc8968
     0000378A  A$lcc8968 |    0000378B  A$lcc8968 |    0000378D  A$lcc8968
     0000378E  A$lcc8968 |    0000378F  A$lcc8968 |    00003790  A$lcc8968
     00003792  A$lcc8968 |    00003794  A$lcc8968 |    00003796  A$lcc8968
     00003798  A$lcc8968 |    0000379A  A$lcc8968 |    0000379C  A$lcc8968
     0000379C  C$collisi |    0000379F  A$lcc8968 |    000037A0  A$lcc8968
     000037A2  A$lcc8968 |    000037A3  A$lcc8968 |    000037A4  A$lcc8968
     000037A7  A$lcc8968 |    000037A9  A$lcc8968 |    000037AA  A$lcc8968
     000037AC  A$lcc8968 |    000037AD  A$lcc8968 |    000037AE  A$lcc8968
     000037AF  A$lcc8968 |    000037B0  A$lcc8968 |    000037B1  A$lcc8968
     000037B2  A$lcc8968 |    000037B3  A$lcc8968 |    000037B3  C$collisi
     000037B5  A$lcc8968 |    000037B6  A$lcc8968 |    000037B7  A$lcc8968
     000037B8  A$lcc8968 |    000037B9  A$lcc8968 |    000037BA  A$lcc8968
     000037BB  A$lcc8968 |    000037BB  C$collisi |    000037BC  A$lcc8968
     000037BF  A$lcc8968 |    000037C0  A$lcc8968 |    000037C1  A$lcc8968
     000037C2  A$lcc8968 |    000037C3  A$lcc8968 |    000037C4  A$lcc8968
     000037C5  A$lcc8968 |    000037C6  A$lcc8968 |    000037C7  A$lcc8968
     000037C8  A$lcc8968 |    000037C9  A$lcc8968 |    000037CA  A$lcc8968
     000037CB  A$lcc8968 |    000037CC  A$lcc8968 |    000037CD  A$lcc8968
     000037CE  A$lcc8968 |    000037CF  A$lcc8968 |    000037D0  A$lcc8968
     000037D1  A$lcc8968 |    000037D2  A$lcc8968 |    000037D4  A$lcc8968
     000037D6  A$lcc8968 |    000037D7  A$lcc8968 |    000037D8  A$lcc8968
     000037DA  A$lcc8968 |    000037DB  A$lcc8968 |    000037DD  A$lcc8968
     000037DF  A$lcc8968 |    000037E0  A$lcc8968 |    000037E2  A$lcc8968
     000037E2  C$collisi |    000037E5  A$lcc8968 |    000037E7  A$lcc8968
     000037EA  A$lcc8968 |    000037EC  A$lcc8968 |    000037EC  C$collisi
     000037EE  A$lcc8968 |    000037EF  A$lcc8968 |    000037F1  A$lcc8968
     000037F4  A$lcc8968 |    000037F5  A$lcc8968 |    000037F6  A$lcc8968
ASxxxx Linker V03.00 + NoICE + sdld,  page 84.
Hexadecimal  [32-Bits]

Area                       Addr        Size        Decimal Bytes (Attributes)
--------------------       ----        ----        ------- ----- ------------
_CODE_0                0000265E    000016A1 =        5793. bytes (REL,CON)

        Value  Global            Value  Global            Value  Global    
        -----  ------            -----  ------            -----  ------    
     000037F8  A$lcc8968 |    000037F8  C$collisi |    000037F8  XG$check_
     000037F9  A$lcc8968 |    000037F9  C$collisi |    000037F9  G$check_C
     000037F9  _check_C  |    000037FB  A$lcc8968 |    000037FB  C$collisi
     000037FD  A$lcc8968 |    000037FF  A$lcc8968 |    00003800  A$lcc8968
     00003800  C$collisi |    00003803  A$lcc8968 |    00003804  A$lcc8968
     00003806  A$lcc8968 |    00003809  A$lcc8968 |    0000380A  A$lcc8968
     0000380B  A$lcc8968 |    0000380B  C$collisi |    0000380D  A$lcc8968
     0000380E  A$lcc8968 |    00003810  A$lcc8968 |    00003811  A$lcc8968
     00003813  A$lcc8968 |    00003814  A$lcc8968 |    00003816  A$lcc8968
     00003817  A$lcc8968 |    00003817  C$collisi |    00003819  A$lcc8968
     0000381A  A$lcc8968 |    0000381C  A$lcc8968 |    0000381D  A$lcc8968
     0000381F  A$lcc8968 |    00003820  A$lcc8968 |    00003821  A$lcc8968
     00003823  A$lcc8968 |    00003824  A$lcc8968 |    00003826  A$lcc8968
     00003827  A$lcc8968 |    00003828  A$lcc8968 |    00003829  A$lcc8968
     0000382A  A$lcc8968 |    0000382B  A$lcc8968 |    0000382C  A$lcc8968
     0000382E  A$lcc8968 |    0000382F  A$lcc8968 |    00003830  A$lcc8968
     00003831  A$lcc8968 |    00003833  A$lcc8968 |    00003834  A$lcc8968
     00003836  A$lcc8968 |    00003837  A$lcc8968 |    00003839  A$lcc8968
     0000383A  A$lcc8968 |    0000383C  A$lcc8968 |    0000383D  A$lcc8968
     0000383F  A$lcc8968 |    00003840  A$lcc8968 |    00003842  A$lcc8968
     00003842  C$collisi |    00003843  A$lcc8968 |    00003845  A$lcc8968
     00003846  A$lcc8968 |    00003847  A$lcc8968 |    00003848  A$lcc8968
     00003849  A$lcc8968 |    0000384A  A$lcc8968 |    0000384B  A$lcc8968
     0000384D  A$lcc8968 |    0000384E  A$lcc8968 |    0000384F  A$lcc8968
     00003850  A$lcc8968 |    00003852  A$lcc8968 |    00003853  A$lcc8968
     00003855  A$lcc8968 |    00003856  A$lcc8968 |    00003858  A$lcc8968
     00003859  A$lcc8968 |    0000385B  A$lcc8968 |    0000385C  A$lcc8968
     0000385E  A$lcc8968 |    0000385F  A$lcc8968 |    00003861  A$lcc8968
     00003861  C$collisi |    00003863  A$lcc8968 |    00003864  A$lcc8968
     00003866  A$lcc8968 |    00003867  A$lcc8968 |    00003868  A$lcc8968
     00003869  A$lcc8968 |    0000386A  A$lcc8968 |    0000386B  A$lcc8968
     0000386C  A$lcc8968 |    0000386F  A$lcc8968 |    00003870  A$lcc8968
     00003871  A$lcc8968 |    00003872  A$lcc8968 |    00003873  A$lcc8968
     00003874  A$lcc8968 |    00003876  A$lcc8968 |    00003877  A$lcc8968
     00003878  A$lcc8968 |    00003879  A$lcc8968 |    0000387A  A$lcc8968
     0000387B  A$lcc8968 |    0000387D  A$lcc8968 |    0000387F  A$lcc8968
     00003880  A$lcc8968 |    00003881  A$lcc8968 |    00003882  A$lcc8968
     00003883  A$lcc8968 |    00003884  A$lcc8968 |    00003885  A$lcc8968
     00003888  A$lcc8968 |    00003889  A$lcc8968 |    0000388A  A$lcc8968
     0000388B  A$lcc8968 |    0000388D  A$lcc8968 |    0000388F  A$lcc8968
     00003891  A$lcc8968 |    00003893  A$lcc8968 |    00003895  A$lcc8968
     00003897  A$lcc8968 |    00003897  C$collisi |    0000389A  A$lcc8968
     0000389B  A$lcc8968 |    0000389D  A$lcc8968 |    0000389E  A$lcc8968
     0000389F  A$lcc8968 |    000038A2  A$lcc8968 |    000038A4  A$lcc8968
     000038A5  A$lcc8968 |    000038A7  A$lcc8968 |    000038A8  A$lcc8968
     000038A9  A$lcc8968 |    000038AA  A$lcc8968 |    000038AB  A$lcc8968
     000038AC  A$lcc8968 |    000038AD  A$lcc8968 |    000038AE  A$lcc8968
     000038AE  C$collisi |    000038B0  A$lcc8968 |    000038B1  A$lcc8968
     000038B2  A$lcc8968 |    000038B3  A$lcc8968 |    000038B4  A$lcc8968
     000038B5  A$lcc8968 |    000038B6  A$lcc8968 |    000038B6  C$collisi
     000038B9  A$lcc8968 |    000038BA  A$lcc8968 |    000038BC  A$lcc8968
ASxxxx Linker V03.00 + NoICE + sdld,  page 85.
Hexadecimal  [32-Bits]

Area                       Addr        Size        Decimal Bytes (Attributes)
--------------------       ----        ----        ------- ----- ------------
_CODE_0                0000265E    000016A1 =        5793. bytes (REL,CON)

        Value  Global            Value  Global            Value  Global    
        -----  ------            -----  ------            -----  ------    
     000038BC  C$collisi |    000038BD  A$lcc8968 |    000038C0  A$lcc8968
     000038C1  A$lcc8968 |    000038C2  A$lcc8968 |    000038C3  A$lcc8968
     000038C4  A$lcc8968 |    000038C5  A$lcc8968 |    000038C6  A$lcc8968
     000038C7  A$lcc8968 |    000038C8  A$lcc8968 |    000038CA  A$lcc8968
     000038CB  A$lcc8968 |    000038CC  A$lcc8968 |    000038CD  A$lcc8968
     000038CE  A$lcc8968 |    000038CF  A$lcc8968 |    000038D0  A$lcc8968
     000038D1  A$lcc8968 |    000038D2  A$lcc8968 |    000038D3  A$lcc8968
     000038D4  A$lcc8968 |    000038D6  A$lcc8968 |    000038D6  C$collisi
     000038D9  A$lcc8968 |    000038DB  A$lcc8968 |    000038DB  C$collisi
     000038DD  A$lcc8968 |    000038DE  A$lcc8968 |    000038E0  A$lcc8968
     000038E3  A$lcc8968 |    000038E4  A$lcc8968 |    000038E5  A$lcc8968
     000038E7  A$lcc8968 |    000038E7  C$collisi |    000038E7  XG$check_
     000038E8  A$lcc8968 |    000038E8  C$collisi |    000038E8  G$check_w
     000038E8  _check_wo |    000038EA  A$lcc8968 |    000038EA  C$collisi
     000038EC  A$lcc8968 |    000038ED  A$lcc8968 |    000038ED  C$collisi
     000038F0  A$lcc8968 |    000038F1  A$lcc8968 |    000038F3  A$lcc8968
     000038F6  A$lcc8968 |    000038F7  A$lcc8968 |    000038F8  A$lcc8968
     000038F8  C$collisi |    000038FB  A$lcc8968 |    000038FD  A$lcc8968
     000038FF  A$lcc8968 |    000038FF  C$collisi |    00003902  A$lcc8968
     00003904  A$lcc8968 |    00003906  A$lcc8968 |    00003906  C$collisi
     00003907  A$lcc8968 |    00003909  A$lcc8968 |    00003909  C$collisi
     0000390C  A$lcc8968 |    0000390E  A$lcc8968 |    0000390E  C$collisi
     00003910  A$lcc8968 |    00003911  A$lcc8968 |    00003913  A$lcc8968
     00003914  A$lcc8968 |    00003916  A$lcc8968 |    00003917  A$lcc8968
     00003919  A$lcc8968 |    0000391A  A$lcc8968 |    0000391A  C$collisi
     0000391C  A$lcc8968 |    0000391D  A$lcc8968 |    0000391F  A$lcc8968
     00003920  A$lcc8968 |    00003922  A$lcc8968 |    00003923  A$lcc8968
     00003924  A$lcc8968 |    00003927  A$lcc8968 |    00003928  A$lcc8968
     00003929  A$lcc8968 |    0000392A  A$lcc8968 |    0000392B  A$lcc8968
     0000392C  A$lcc8968 |    0000392E  A$lcc8968 |    0000392F  A$lcc8968
     00003930  A$lcc8968 |    00003931  A$lcc8968 |    00003932  A$lcc8968
     00003933  A$lcc8968 |    00003934  A$lcc8968 |    00003935  A$lcc8968
     00003937  A$lcc8968 |    00003938  A$lcc8968 |    00003939  A$lcc8968
     0000393A  A$lcc8968 |    0000393B  A$lcc8968 |    0000393C  A$lcc8968
     0000393D  A$lcc8968 |    0000393F  A$lcc8968 |    00003940  A$lcc8968
     00003941  A$lcc8968 |    00003942  A$lcc8968 |    00003944  A$lcc8968
     00003945  A$lcc8968 |    00003946  A$lcc8968 |    00003947  A$lcc8968
     00003948  A$lcc8968 |    00003949  A$lcc8968 |    0000394A  A$lcc8968
     0000394B  A$lcc8968 |    0000394C  A$lcc8968 |    0000394E  A$lcc8968
     00003950  A$lcc8968 |    00003951  A$lcc8968 |    00003952  A$lcc8968
     00003953  A$lcc8968 |    00003954  A$lcc8968 |    00003957  A$lcc8968
     00003958  A$lcc8968 |    00003959  A$lcc8968 |    0000395A  A$lcc8968
     0000395C  A$lcc8968 |    0000395D  A$lcc8968 |    0000395E  A$lcc8968
     0000395F  A$lcc8968 |    00003961  A$lcc8968 |    00003962  A$lcc8968
     00003964  A$lcc8968 |    00003965  A$lcc8968 |    00003966  A$lcc8968
     00003967  A$lcc8968 |    00003969  A$lcc8968 |    0000396A  A$lcc8968
     0000396B  A$lcc8968 |    0000396C  A$lcc8968 |    0000396E  A$lcc8968
     0000396F  A$lcc8968 |    00003971  A$lcc8968 |    00003972  A$lcc8968
     00003974  A$lcc8968 |    00003975  A$lcc8968 |    00003977  A$lcc8968
     00003978  A$lcc8968 |    0000397A  A$lcc8968 |    0000397B  A$lcc8968
     0000397D  A$lcc8968 |    0000397D  C$collisi |    0000397E  A$lcc8968
ASxxxx Linker V03.00 + NoICE + sdld,  page 86.
Hexadecimal  [32-Bits]

Area                       Addr        Size        Decimal Bytes (Attributes)
--------------------       ----        ----        ------- ----- ------------
_CODE_0                0000265E    000016A1 =        5793. bytes (REL,CON)

        Value  Global            Value  Global            Value  Global    
        -----  ------            -----  ------            -----  ------    
     0000397F  A$lcc8968 |    00003982  A$lcc8968 |    00003983  A$lcc8968
     00003984  A$lcc8968 |    00003985  A$lcc8968 |    00003986  A$lcc8968
     00003987  A$lcc8968 |    00003989  A$lcc8968 |    0000398A  A$lcc8968
     0000398B  A$lcc8968 |    0000398C  A$lcc8968 |    0000398D  A$lcc8968
     0000398E  A$lcc8968 |    0000398F  A$lcc8968 |    00003990  A$lcc8968
     00003992  A$lcc8968 |    00003993  A$lcc8968 |    00003994  A$lcc8968
     00003995  A$lcc8968 |    00003996  A$lcc8968 |    00003997  A$lcc8968
     00003998  A$lcc8968 |    00003999  A$lcc8968 |    0000399B  A$lcc8968
     0000399C  A$lcc8968 |    0000399E  A$lcc8968 |    0000399F  A$lcc8968
     000039A1  A$lcc8968 |    000039A2  A$lcc8968 |    000039A4  A$lcc8968
     000039A5  A$lcc8968 |    000039A7  A$lcc8968 |    000039A9  A$lcc8968
     000039AB  A$lcc8968 |    000039AC  A$lcc8968 |    000039AD  A$lcc8968
     000039B0  A$lcc8968 |    000039B1  A$lcc8968 |    000039B2  A$lcc8968
     000039B3  A$lcc8968 |    000039B5  A$lcc8968 |    000039B6  A$lcc8968
     000039B7  A$lcc8968 |    000039B8  A$lcc8968 |    000039BA  A$lcc8968
     000039BB  A$lcc8968 |    000039BD  A$lcc8968 |    000039BF  A$lcc8968
     000039C0  A$lcc8968 |    000039C2  A$lcc8968 |    000039C3  A$lcc8968
     000039C5  A$lcc8968 |    000039C6  A$lcc8968 |    000039C8  A$lcc8968
     000039C9  A$lcc8968 |    000039CB  A$lcc8968 |    000039CC  A$lcc8968
     000039CE  A$lcc8968 |    000039CE  C$collisi |    000039D0  A$lcc8968
     000039D1  A$lcc8968 |    000039D3  A$lcc8968 |    000039D6  A$lcc8968
     000039D7  A$lcc8968 |    000039D8  A$lcc8968 |    000039D9  A$lcc8968
     000039DA  A$lcc8968 |    000039DB  A$lcc8968 |    000039DC  A$lcc8968
     000039DD  A$lcc8968 |    000039DE  A$lcc8968 |    000039DF  A$lcc8968
     000039E0  A$lcc8968 |    000039E2  A$lcc8968 |    000039E3  A$lcc8968
     000039E4  A$lcc8968 |    000039E5  A$lcc8968 |    000039E6  A$lcc8968
     000039E7  A$lcc8968 |    000039E8  A$lcc8968 |    000039EA  A$lcc8968
     000039EC  A$lcc8968 |    000039EE  A$lcc8968 |    000039F0  A$lcc8968
     000039F2  A$lcc8968 |    000039F4  A$lcc8968 |    000039F4  C$collisi
     000039F7  A$lcc8968 |    000039F9  A$lcc8968 |    000039FA  A$lcc8968
     000039FB  A$lcc8968 |    000039FC  A$lcc8968 |    000039FD  A$lcc8968
     000039FE  A$lcc8968 |    000039FF  A$lcc8968 |    00003A00  A$lcc8968
     00003A01  A$lcc8968 |    00003A02  A$lcc8968 |    00003A04  A$lcc8968
     00003A05  A$lcc8968 |    00003A06  A$lcc8968 |    00003A07  A$lcc8968
     00003A08  A$lcc8968 |    00003A0B  A$lcc8968 |    00003A0D  A$lcc8968
     00003A0E  A$lcc8968 |    00003A0F  A$lcc8968 |    00003A10  A$lcc8968
     00003A11  A$lcc8968 |    00003A12  A$lcc8968 |    00003A13  A$lcc8968
     00003A14  A$lcc8968 |    00003A16  A$lcc8968 |    00003A17  A$lcc8968
     00003A18  A$lcc8968 |    00003A18  C$collisi |    00003A19  A$lcc8968
     00003A1A  A$lcc8968 |    00003A1B  A$lcc8968 |    00003A1C  A$lcc8968
     00003A1D  A$lcc8968 |    00003A1E  A$lcc8968 |    00003A1F  A$lcc8968
     00003A21  A$lcc8968 |    00003A22  A$lcc8968 |    00003A23  A$lcc8968
     00003A24  A$lcc8968 |    00003A25  A$lcc8968 |    00003A28  A$lcc8968
     00003A2A  A$lcc8968 |    00003A2B  A$lcc8968 |    00003A2C  A$lcc8968
     00003A2D  A$lcc8968 |    00003A2E  A$lcc8968 |    00003A2F  A$lcc8968
     00003A30  A$lcc8968 |    00003A31  A$lcc8968 |    00003A33  A$lcc8968
     00003A34  A$lcc8968 |    00003A35  A$lcc8968 |    00003A35  C$collisi
     00003A36  A$lcc8968 |    00003A37  A$lcc8968 |    00003A38  A$lcc8968
     00003A39  A$lcc8968 |    00003A3A  A$lcc8968 |    00003A3B  A$lcc8968
     00003A3E  A$lcc8968 |    00003A3F  A$lcc8968 |    00003A40  A$lcc8968
     00003A41  A$lcc8968 |    00003A42  A$lcc8968 |    00003A43  A$lcc8968
ASxxxx Linker V03.00 + NoICE + sdld,  page 87.
Hexadecimal  [32-Bits]

Area                       Addr        Size        Decimal Bytes (Attributes)
--------------------       ----        ----        ------- ----- ------------
_CODE_0                0000265E    000016A1 =        5793. bytes (REL,CON)

        Value  Global            Value  Global            Value  Global    
        -----  ------            -----  ------            -----  ------    
     00003A44  A$lcc8968 |    00003A45  A$lcc8968 |    00003A46  A$lcc8968
     00003A48  A$lcc8968 |    00003A4B  A$lcc8968 |    00003A4C  A$lcc8968
     00003A4D  A$lcc8968 |    00003A4E  A$lcc8968 |    00003A50  A$lcc8968
     00003A51  A$lcc8968 |    00003A52  A$lcc8968 |    00003A53  A$lcc8968
     00003A54  A$lcc8968 |    00003A55  A$lcc8968 |    00003A56  A$lcc8968
     00003A57  A$lcc8968 |    00003A58  A$lcc8968 |    00003A5A  A$lcc8968
     00003A5D  A$lcc8968 |    00003A5E  A$lcc8968 |    00003A60  A$lcc8968
     00003A60  C$collisi |    00003A63  A$lcc8968 |    00003A64  A$lcc8968
     00003A65  A$lcc8968 |    00003A66  A$lcc8968 |    00003A66  C$collisi
     00003A68  A$lcc8968 |    00003A69  A$lcc8968 |    00003A6A  A$lcc8968
     00003A6B  A$lcc8968 |    00003A6E  A$lcc8968 |    00003A6F  A$lcc8968
     00003A70  A$lcc8968 |    00003A71  A$lcc8968 |    00003A72  A$lcc8968
     00003A73  A$lcc8968 |    00003A74  A$lcc8968 |    00003A75  A$lcc8968
     00003A76  A$lcc8968 |    00003A78  A$lcc8968 |    00003A7A  A$lcc8968
     00003A7C  A$lcc8968 |    00003A7D  A$lcc8968 |    00003A7E  A$lcc8968
     00003A7F  A$lcc8968 |    00003A82  A$lcc8968 |    00003A83  A$lcc8968
     00003A84  A$lcc8968 |    00003A85  A$lcc8968 |    00003A86  A$lcc8968
     00003A87  A$lcc8968 |    00003A88  A$lcc8968 |    00003A89  A$lcc8968
     00003A8A  A$lcc8968 |    00003A8C  A$lcc8968 |    00003A8E  A$lcc8968
     00003A8E  C$collisi |    00003A91  A$lcc8968 |    00003A93  A$lcc8968
     00003A95  A$lcc8968 |    00003A95  C$collisi |    00003A96  A$lcc8968
     00003A98  A$lcc8968 |    00003A9A  A$lcc8968 |    00003A9B  A$lcc8968
     00003A9D  A$lcc8968 |    00003A9F  A$lcc8968 |    00003A9F  C$collisi
     00003AA2  A$lcc8968 |    00003AA4  A$lcc8968 |    00003AA4  C$collisi
     00003AA5  A$lcc8968 |    00003AA7  A$lcc8968 |    00003AAA  A$lcc8968
     00003AAB  A$lcc8968 |    00003AAD  A$lcc8968 |    00003AAD  C$collisi
     00003AAD  XG$check_ |    00003AAE  A$lcc8968 |    00003AAE  C$collisi
     00003AAE  G$check_w |    00003AAE  _check_wo |    00003AB0  A$lcc8968
     00003AB0  C$collisi |    00003AB2  A$lcc8968 |    00003AB3  A$lcc8968
     00003AB3  C$collisi |    00003AB6  A$lcc8968 |    00003AB7  A$lcc8968
     00003AB9  A$lcc8968 |    00003ABC  A$lcc8968 |    00003ABD  A$lcc8968
     00003ABE  A$lcc8968 |    00003ABE  C$collisi |    00003AC1  A$lcc8968
     00003AC3  A$lcc8968 |    00003AC5  A$lcc8968 |    00003AC5  C$collisi
     00003AC8  A$lcc8968 |    00003ACA  A$lcc8968 |    00003ACC  A$lcc8968
     00003ACC  C$collisi |    00003ACE  A$lcc8968 |    00003AD0  A$lcc8968
     00003AD0  C$collisi |    00003AD3  A$lcc8968 |    00003AD5  A$lcc8968
     00003AD5  C$collisi |    00003AD7  A$lcc8968 |    00003AD8  A$lcc8968
     00003ADA  A$lcc8968 |    00003ADB  A$lcc8968 |    00003ADD  A$lcc8968
     00003ADE  A$lcc8968 |    00003AE0  A$lcc8968 |    00003AE1  A$lcc8968
     00003AE1  C$collisi |    00003AE3  A$lcc8968 |    00003AE4  A$lcc8968
     00003AE6  A$lcc8968 |    00003AE9  A$lcc8968 |    00003AEA  A$lcc8968
     00003AEB  A$lcc8968 |    00003AEC  A$lcc8968 |    00003AED  A$lcc8968
     00003AEE  A$lcc8968 |    00003AEF  A$lcc8968 |    00003AF0  A$lcc8968
     00003AF1  A$lcc8968 |    00003AF2  A$lcc8968 |    00003AF3  A$lcc8968
     00003AF5  A$lcc8968 |    00003AF6  A$lcc8968 |    00003AF7  A$lcc8968
     00003AF8  A$lcc8968 |    00003AF9  A$lcc8968 |    00003AFA  A$lcc8968
     00003AFB  A$lcc8968 |    00003AFD  A$lcc8968 |    00003AFE  A$lcc8968
     00003AFF  A$lcc8968 |    00003B00  A$lcc8968 |    00003B02  A$lcc8968
     00003B03  A$lcc8968 |    00003B04  A$lcc8968 |    00003B05  A$lcc8968
     00003B06  A$lcc8968 |    00003B07  A$lcc8968 |    00003B08  A$lcc8968
     00003B09  A$lcc8968 |    00003B0A  A$lcc8968 |    00003B0C  A$lcc8968
ASxxxx Linker V03.00 + NoICE + sdld,  page 88.
Hexadecimal  [32-Bits]

Area                       Addr        Size        Decimal Bytes (Attributes)
--------------------       ----        ----        ------- ----- ------------
_CODE_0                0000265E    000016A1 =        5793. bytes (REL,CON)

        Value  Global            Value  Global            Value  Global    
        -----  ------            -----  ------            -----  ------    
     00003B0E  A$lcc8968 |    00003B0F  A$lcc8968 |    00003B10  A$lcc8968
     00003B11  A$lcc8968 |    00003B12  A$lcc8968 |    00003B15  A$lcc8968
     00003B16  A$lcc8968 |    00003B17  A$lcc8968 |    00003B18  A$lcc8968
     00003B1A  A$lcc8968 |    00003B1B  A$lcc8968 |    00003B1C  A$lcc8968
     00003B1D  A$lcc8968 |    00003B1F  A$lcc8968 |    00003B20  A$lcc8968
     00003B22  A$lcc8968 |    00003B23  A$lcc8968 |    00003B24  A$lcc8968
     00003B25  A$lcc8968 |    00003B27  A$lcc8968 |    00003B28  A$lcc8968
     00003B29  A$lcc8968 |    00003B2A  A$lcc8968 |    00003B2C  A$lcc8968
     00003B2D  A$lcc8968 |    00003B2F  A$lcc8968 |    00003B30  A$lcc8968
     00003B32  A$lcc8968 |    00003B33  A$lcc8968 |    00003B35  A$lcc8968
     00003B36  A$lcc8968 |    00003B38  A$lcc8968 |    00003B39  A$lcc8968
     00003B3B  A$lcc8968 |    00003B3B  C$collisi |    00003B3D  A$lcc8968
     00003B3E  A$lcc8968 |    00003B40  A$lcc8968 |    00003B41  A$lcc8968
     00003B43  A$lcc8968 |    00003B44  A$lcc8968 |    00003B45  A$lcc8968
     00003B47  A$lcc8968 |    00003B48  A$lcc8968 |    00003B49  A$lcc8968
     00003B4A  A$lcc8968 |    00003B4B  A$lcc8968 |    00003B4D  A$lcc8968
     00003B4E  A$lcc8968 |    00003B4F  A$lcc8968 |    00003B50  A$lcc8968
     00003B51  A$lcc8968 |    00003B52  A$lcc8968 |    00003B53  A$lcc8968
     00003B54  A$lcc8968 |    00003B56  A$lcc8968 |    00003B57  A$lcc8968
     00003B58  A$lcc8968 |    00003B59  A$lcc8968 |    00003B5B  A$lcc8968
     00003B5C  A$lcc8968 |    00003B5E  A$lcc8968 |    00003B5F  A$lcc8968
     00003B61  A$lcc8968 |    00003B62  A$lcc8968 |    00003B64  A$lcc8968
     00003B65  A$lcc8968 |    00003B67  A$lcc8968 |    00003B68  A$lcc8968
     00003B6A  A$lcc8968 |    00003B6B  A$lcc8968 |    00003B6D  A$lcc8968
     00003B6D  C$collisi |    00003B6E  A$lcc8968 |    00003B70  A$lcc8968
     00003B71  A$lcc8968 |    00003B72  A$lcc8968 |    00003B74  A$lcc8968
     00003B75  A$lcc8968 |    00003B76  A$lcc8968 |    00003B77  A$lcc8968
     00003B78  A$lcc8968 |    00003B79  A$lcc8968 |    00003B7A  A$lcc8968
     00003B7B  A$lcc8968 |    00003B7C  A$lcc8968 |    00003B7D  A$lcc8968
     00003B7F  A$lcc8968 |    00003B81  A$lcc8968 |    00003B82  A$lcc8968
     00003B84  A$lcc8968 |    00003B85  A$lcc8968 |    00003B87  A$lcc8968
     00003B88  A$lcc8968 |    00003B8A  A$lcc8968 |    00003B8B  A$lcc8968
     00003B8D  A$lcc8968 |    00003B8E  A$lcc8968 |    00003B90  A$lcc8968
     00003B90  C$collisi |    00003B93  A$lcc8968 |    00003B94  A$lcc8968
     00003B96  A$lcc8968 |    00003B97  A$lcc8968 |    00003B99  A$lcc8968
     00003B9A  A$lcc8968 |    00003B9B  A$lcc8968 |    00003B9C  A$lcc8968
     00003B9D  A$lcc8968 |    00003B9E  A$lcc8968 |    00003BA1  A$lcc8968
     00003BA3  A$lcc8968 |    00003BA4  A$lcc8968 |    00003BA5  A$lcc8968
     00003BA7  A$lcc8968 |    00003BA8  A$lcc8968 |    00003BA9  A$lcc8968
     00003BAA  A$lcc8968 |    00003BAB  A$lcc8968 |    00003BAC  A$lcc8968
     00003BAD  A$lcc8968 |    00003BAE  A$lcc8968 |    00003BB0  A$lcc8968
     00003BB1  A$lcc8968 |    00003BB2  A$lcc8968 |    00003BB3  A$lcc8968
     00003BB3  C$collisi |    00003BB4  A$lcc8968 |    00003BB5  A$lcc8968
     00003BB6  A$lcc8968 |    00003BB7  A$lcc8968 |    00003BB8  A$lcc8968
     00003BBA  A$lcc8968 |    00003BBB  A$lcc8968 |    00003BBC  A$lcc8968
     00003BBC  C$collisi |    00003BBD  A$lcc8968 |    00003BBE  A$lcc8968
     00003BBF  A$lcc8968 |    00003BC0  A$lcc8968 |    00003BC3  A$lcc8968
     00003BC4  A$lcc8968 |    00003BC5  A$lcc8968 |    00003BC6  A$lcc8968
     00003BC7  A$lcc8968 |    00003BC8  A$lcc8968 |    00003BC9  A$lcc8968
     00003BCA  A$lcc8968 |    00003BCB  A$lcc8968 |    00003BCD  A$lcc8968
     00003BD0  A$lcc8968 |    00003BD1  A$lcc8968 |    00003BD2  A$lcc8968
ASxxxx Linker V03.00 + NoICE + sdld,  page 89.
Hexadecimal  [32-Bits]

Area                       Addr        Size        Decimal Bytes (Attributes)
--------------------       ----        ----        ------- ----- ------------
_CODE_0                0000265E    000016A1 =        5793. bytes (REL,CON)

        Value  Global            Value  Global            Value  Global    
        -----  ------            -----  ------            -----  ------    
     00003BD3  A$lcc8968 |    00003BD5  A$lcc8968 |    00003BD6  A$lcc8968
     00003BD7  A$lcc8968 |    00003BD8  A$lcc8968 |    00003BD9  A$lcc8968
     00003BDA  A$lcc8968 |    00003BDB  A$lcc8968 |    00003BDC  A$lcc8968
     00003BDD  A$lcc8968 |    00003BDF  A$lcc8968 |    00003BE2  A$lcc8968
     00003BE3  A$lcc8968 |    00003BE5  A$lcc8968 |    00003BE5  C$collisi
     00003BE8  A$lcc8968 |    00003BE9  A$lcc8968 |    00003BEA  A$lcc8968
     00003BEB  A$lcc8968 |    00003BEB  C$collisi |    00003BED  A$lcc8968
     00003BEE  A$lcc8968 |    00003BEF  A$lcc8968 |    00003BF0  A$lcc8968
     00003BF3  A$lcc8968 |    00003BF4  A$lcc8968 |    00003BF5  A$lcc8968
     00003BF6  A$lcc8968 |    00003BF7  A$lcc8968 |    00003BF8  A$lcc8968
     00003BF9  A$lcc8968 |    00003BFA  A$lcc8968 |    00003BFB  A$lcc8968
     00003BFD  A$lcc8968 |    00003BFF  A$lcc8968 |    00003C01  A$lcc8968
     00003C02  A$lcc8968 |    00003C03  A$lcc8968 |    00003C04  A$lcc8968
     00003C07  A$lcc8968 |    00003C08  A$lcc8968 |    00003C09  A$lcc8968
     00003C0A  A$lcc8968 |    00003C0B  A$lcc8968 |    00003C0C  A$lcc8968
     00003C0D  A$lcc8968 |    00003C0E  A$lcc8968 |    00003C0F  A$lcc8968
     00003C11  A$lcc8968 |    00003C13  A$lcc8968 |    00003C13  C$collisi
     00003C16  A$lcc8968 |    00003C18  A$lcc8968 |    00003C1A  A$lcc8968
     00003C1A  C$collisi |    00003C1B  A$lcc8968 |    00003C1D  A$lcc8968
     00003C1F  A$lcc8968 |    00003C20  A$lcc8968 |    00003C22  A$lcc8968
     00003C24  A$lcc8968 |    00003C24  C$collisi |    00003C27  A$lcc8968
     00003C29  A$lcc8968 |    00003C29  C$collisi |    00003C2A  A$lcc8968
     00003C2C  A$lcc8968 |    00003C2F  A$lcc8968 |    00003C30  A$lcc8968
     00003C32  A$lcc8968 |    00003C32  C$collisi |    00003C32  XG$check_
     00003C33  A$lcc8968 |    00003C33  C$collisi |    00003C33  C$collisi
     00003C33  G$overlap |    00003C33  _overlap  |    00003C35  A$lcc8968
     00003C36  A$lcc8968 |    00003C38  A$lcc8968 |    00003C39  A$lcc8968
     00003C3B  A$lcc8968 |    00003C3D  A$lcc8968 |    00003C3E  A$lcc8968
     00003C40  A$lcc8968 |    00003C41  A$lcc8968 |    00003C43  A$lcc8968
     00003C45  A$lcc8968 |    00003C46  A$lcc8968 |    00003C48  A$lcc8968
     00003C49  A$lcc8968 |    00003C4B  A$lcc8968 |    00003C4D  A$lcc8968
     00003C4E  A$lcc8968 |    00003C50  A$lcc8968 |    00003C51  A$lcc8968
     00003C53  A$lcc8968 |    00003C55  A$lcc8968 |    00003C56  A$lcc8968
     00003C58  A$lcc8968 |    00003C59  A$lcc8968 |    00003C5B  A$lcc8968
     00003C5D  A$lcc8968 |    00003C5E  A$lcc8968 |    00003C60  A$lcc8968
     00003C61  A$lcc8968 |    00003C63  A$lcc8968 |    00003C65  A$lcc8968
     00003C66  A$lcc8968 |    00003C68  A$lcc8968 |    00003C69  A$lcc8968
     00003C6B  A$lcc8968 |    00003C6D  A$lcc8968 |    00003C6E  A$lcc8968
     00003C70  A$lcc8968 |    00003C71  A$lcc8968 |    00003C73  A$lcc8968
     00003C73  C$collisi |    00003C75  A$lcc8968 |    00003C76  A$lcc8968
     00003C76  C$collisi |    00003C78  A$lcc8968 |    00003C79  A$lcc8968
     00003C7A  A$lcc8968 |    00003C7C  A$lcc8968 |    00003C7D  A$lcc8968
     00003C7E  A$lcc8968 |    00003C7F  A$lcc8968 |    00003C80  A$lcc8968
     00003C81  A$lcc8968 |    00003C82  A$lcc8968 |    00003C83  A$lcc8968
     00003C84  A$lcc8968 |    00003C86  A$lcc8968 |    00003C88  A$lcc8968
     00003C8A  A$lcc8968 |    00003C8C  A$lcc8968 |    00003C8D  A$lcc8968
     00003C8F  A$lcc8968 |    00003C91  A$lcc8968 |    00003C93  A$lcc8968
     00003C94  A$lcc8968 |    00003C96  A$lcc8968 |    00003C98  A$lcc8968
     00003C99  A$lcc8968 |    00003C9A  A$lcc8968 |    00003C9C  A$lcc8968
     00003C9D  A$lcc8968 |    00003C9E  A$lcc8968 |    00003C9F  A$lcc8968
     00003CA0  A$lcc8968 |    00003CA1  A$lcc8968 |    00003CA2  A$lcc8968
ASxxxx Linker V03.00 + NoICE + sdld,  page 90.
Hexadecimal  [32-Bits]

Area                       Addr        Size        Decimal Bytes (Attributes)
--------------------       ----        ----        ------- ----- ------------
_CODE_0                0000265E    000016A1 =        5793. bytes (REL,CON)

        Value  Global            Value  Global            Value  Global    
        -----  ------            -----  ------            -----  ------    
     00003CA3  A$lcc8968 |    00003CA4  A$lcc8968 |    00003CA6  A$lcc8968
     00003CA8  A$lcc8968 |    00003CAA  A$lcc8968 |    00003CAC  A$lcc8968
     00003CAD  A$lcc8968 |    00003CAF  A$lcc8968 |    00003CB1  A$lcc8968
     00003CB3  A$lcc8968 |    00003CB4  A$lcc8968 |    00003CB6  A$lcc8968
     00003CB6  C$collisi |    00003CB8  A$lcc8968 |    00003CB9  A$lcc8968
     00003CB9  C$collisi |    00003CBB  A$lcc8968 |    00003CBC  A$lcc8968
     00003CBD  A$lcc8968 |    00003CBF  A$lcc8968 |    00003CC0  A$lcc8968
     00003CC1  A$lcc8968 |    00003CC2  A$lcc8968 |    00003CC3  A$lcc8968
     00003CC4  A$lcc8968 |    00003CC5  A$lcc8968 |    00003CC6  A$lcc8968
     00003CC7  A$lcc8968 |    00003CC9  A$lcc8968 |    00003CCB  A$lcc8968
     00003CCD  A$lcc8968 |    00003CCF  A$lcc8968 |    00003CD0  A$lcc8968
     00003CD2  A$lcc8968 |    00003CD4  A$lcc8968 |    00003CD6  A$lcc8968
     00003CD7  A$lcc8968 |    00003CD9  A$lcc8968 |    00003CDB  A$lcc8968
     00003CDC  A$lcc8968 |    00003CDD  A$lcc8968 |    00003CDF  A$lcc8968
     00003CE0  A$lcc8968 |    00003CE1  A$lcc8968 |    00003CE2  A$lcc8968
     00003CE3  A$lcc8968 |    00003CE4  A$lcc8968 |    00003CE5  A$lcc8968
     00003CE6  A$lcc8968 |    00003CE7  A$lcc8968 |    00003CE9  A$lcc8968
     00003CEB  A$lcc8968 |    00003CED  A$lcc8968 |    00003CEF  A$lcc8968
     00003CF0  A$lcc8968 |    00003CF2  A$lcc8968 |    00003CF4  A$lcc8968
     00003CF6  A$lcc8968 |    00003CF7  A$lcc8968 |    00003CF9  A$lcc8968
     00003CF9  C$collisi |    00003CFB  A$lcc8968 |    00003CFC  A$lcc8968
     00003CFC  C$collisi |    00003CFE  A$lcc8968 |    00003CFE  C$collisi
     00003CFE  XG$overla
ASxxxx Linker V03.00 + NoICE + sdld,  page 91.
Hexadecimal  [32-Bits]

Area                       Addr        Size        Decimal Bytes (Attributes)
--------------------       ----        ----        ------- ----- ------------
_INITIALIZER           00003CFF    0000007F =         127. bytes (REL,CON)

        Value  Global            Value  Global            Value  Global    
        -----  ------            -----  ------            -----  ------    
     00003CFF  Flevel1$_ |    00003D03  Flevel1$_ |    00003D06  Flevel1$_
     00003D09  Flevel1$_ |    00003D0B  Flevel1$_ |    00003D0E  Flevel1$_
     00003D10  Flevel1$_ |    00003D12  Flevel1$_ |    00003D13  Flevel2$_
     00003D16  Flevel2$_ |    00003D18  Flevel2$_ |    00003D1B  Flevel2$_
     00003D1D  Flevel2$_ |    00003D1F  Flevel2$_ |    00003D20  Flevel2$_
     00003D22  Flevel2$_ |    00003D23  Fmain$__x |    00003D24  Fmain$__x
     00003D25  Fmain$__x |    00003D27  Fmain$__x |    00003D28  Fmain$__x
     00003D29  Fmain$__x |    00003D2A  Fscene$__ |    00003D2C  Fscene$__
     00003D2E  Fscene$__ |    00003D30  Fscene$__ |    00003D31  Fworldtes
     00003D33  Fworldtes |    00003D36  Fworldtes |    00003D37  Fworldtes
     00003D39  Fworldtes |    00003D3A  Fworldtes |    00003D3B  Fworldtes
     00003D3C  Fworldtes |    00003D3D  Fworld1_t
ASxxxx Linker V03.00 + NoICE + sdld,  page 92.
Hexadecimal  [32-Bits]

Area                       Addr        Size        Decimal Bytes (Attributes)
--------------------       ----        ----        ------- ----- ------------
_GSINIT                00003D7E    0000000C =          12. bytes (REL,CON)

        Value  Global            Value  Global            Value  Global    
        -----  ------            -----  ------            -----  ------    
     00003D7E  gsinit   
ASxxxx Linker V03.00 + NoICE + sdld,  page 93.
Hexadecimal  [32-Bits]

Area                       Addr        Size        Decimal Bytes (Attributes)
--------------------       ----        ----        ------- ----- ------------
_GSFINAL               00003D8A    00000001 =           1. bytes (REL,CON)

        Value  Global            Value  Global            Value  Global    
        -----  ------            -----  ------            -----  ------    
ASxxxx Linker V03.00 + NoICE + sdld,  page 94.
Hexadecimal  [32-Bits]

Area                       Addr        Size        Decimal Bytes (Attributes)
--------------------       ----        ----        ------- ----- ------------
_DATA                  0000C0A0    000003D5 =         981. bytes (REL,CON)

        Value  Global            Value  Global            Value  Global    
        -----  ------            -----  ------            -----  ------    
     0000C0A0  __cpu     |    0000C0A1  __is_GBA  |    0000C0A2  .mode    
     0000C0A3  .sys_time |    0000C0A3  _sys_time |    0000C0A5  .int_0x40
     0000C0B9  G$bkg$0_0 |    0000C0B9  _bkg      |    0000C0DB  G$CAM$0_0
     0000C0DB  _CAM      |    0000C0DC  G$SPAWN$0 |    0000C0DC  _SPAWN   
     0000C0DD  G$Gravity |    0000C0DD  _Gravity  |    0000C0DE  G$JUMP$0_
     0000C0DE  _JUMP     |    0000C0DF  G$CROUCH$ |    0000C0DF  _CROUCH  
     0000C0E0  G$canCROU |    0000C0E0  _canCROUC |    0000C0E1  G$DROP$0_
     0000C0E1  _DROP     |    0000C0E2  G$x_Adjus |    0000C0E2  _x_Adjust
     0000C0E3  G$L_LEFT$ |    0000C0E3  _L_LEFT   |    0000C0E4  G$L_RIGHT
     0000C0E4  _L_RIGHT  |    0000C0E5  G$canCROU |    0000C0E5  _canCROUC
     0000C0E6  G$canCROU |    0000C0E6  _canCROUC |    0000C0E7  G$DROP_ti
     0000C0E7  _DROP_tim |    0000C0E8  G$ONTO_La |    0000C0E8  _ONTO_Lad
     0000C0E9  G$DOWN_LA |    0000C0E9  _DOWN_LAD |    0000C0EA  G$UP_LADD
     0000C0EA  _UP_LADDE |    0000C0EB  G$OFF_LAD |    0000C0EB  _OFF_LADD
     0000C0EC  G$LADDER$ |    0000C0EC  _LADDER   |    0000C0ED  G$ONTO_La
     0000C0ED  _ONTO_Lad |    0000C0EE  G$DOWN_LA |    0000C0EE  _DOWN_LAD
     0000C0EF  G$DOWN_LA |    0000C0EF  _DOWN_LAD |    0000C0F0  G$UP_LADD
     0000C0F0  _UP_LADDE |    0000C0F1  G$OFF_LAD |    0000C0F1  _OFF_LADD
     0000C0F2  G$LADDER_ |    0000C0F2  _LADDER_R |    0000C0F3  G$LR_Offs
     0000C0F3  _LR_Offse |    0000C0F4  G$LR_Offs |    0000C0F4  _LR_Offse
     0000C0F5  G$UD_Offs |    0000C0F5  _UD_Offse |    0000C0F6  G$UD_Offs
     0000C0F6  _UD_Offse |    0000C0F7  G$UD_Offs |    0000C0F7  _UD_Offse
     0000C0F8  G$COLLISI |    0000C0F8  _COLLISIO |    0000C0FA  G$COLLISI
     0000C0FA  _COLLISIO |    0000C0FB  G$COLLISI |    0000C0FB  _COLLISIO
     0000C0FC  G$joy$0_0 |    0000C0FC  _joy      |    0000C0FD  G$last_jo
     0000C0FD  _last_joy |    0000C0FE  G$px$0_0$ |    0000C0FE  _px      
     0000C0FF  G$py$0_0$ |    0000C0FF  _py       |    0000C100  G$GAMEOVE
     0000C100  _GAMEOVER |    0000C101  G$EXIT1$0 |    0000C101  _EXIT1   
     0000C102  G$EXIT2$0 |    0000C102  _EXIT2    |    0000C103  G$JOYLOCK
     0000C103  _JOYLOCK  |    0000C104  G$ANIMATI |    0000C104  _ANIMATIO
     0000C105  G$WALKSTA |    0000C105  _WALKSTAT |    0000C106  G$GAMESTA
     0000C106  _GAMESTAT |    0000C107  G$current |    0000C107  _current_
     0000C109  G$ATTACH$ |    0000C109  _ATTACH   |    0000C10A  G$x_Colli
     0000C10A  _x_Collid |    0000C10B  G$y_Colli |    0000C10B  _y_Collid
     0000C10C  G$current |    0000C10C  _current_ |    0000C10D  G$dir$0_0
     0000C10D  _dir      |    0000C10E  G$last_di |    0000C10E  _last_dir
     0000C10F  G$active_ |    0000C10F  _active_a |    0000C397  G$active_
     0000C397  _active_b |    0000C46F  G$total_a |    0000C46F  _total_ac
     0000C470  G$hiwater |    0000C470  _hiwater  |    0000C471  .image_ti
     0000C472  ___curren |    0000C474  ___curren
ASxxxx Linker V03.00 + NoICE + sdld,  page 95.
Hexadecimal  [32-Bits]

Area                       Addr        Size        Decimal Bytes (Attributes)
--------------------       ----        ----        ------- ----- ------------
_INITIALIZED           0000C475    0000007F =         127. bytes (REL,CON)

        Value  Global            Value  Global            Value  Global    
        -----  ------            -----  ------            -----  ------    
     0000C475  G$lvl1_ca |    0000C475  _lvl1_cam |    0000C479  G$lvl1_ca
     0000C479  _lvl1_cam |    0000C47C  G$lvl1_ca |    0000C47C  _lvl1_cam
     0000C47F  G$lvl1_ca |    0000C47F  _lvl1_cam |    0000C481  G$lvl1_ca
     0000C481  _lvl1_cam |    0000C484  G$lvl1_ca |    0000C484  _lvl1_cam
     0000C486  G$lvl1_ca |    0000C486  _lvl1_cam |    0000C488  G$lvl1_ca
     0000C488  _lvl1_cam |    0000C489  G$lvl2_ca |    0000C489  _lvl2_cam
     0000C48C  G$lvl2_ca |    0000C48C  _lvl2_cam |    0000C48E  G$lvl2_ca
     0000C48E  _lvl2_cam |    0000C491  G$lvl2_ca |    0000C491  _lvl2_cam
     0000C493  G$lvl2_ca |    0000C493  _lvl2_cam |    0000C495  G$lvl2_ca
     0000C495  _lvl2_cam |    0000C496  G$lvl2_ca |    0000C496  _lvl2_cam
     0000C498  G$lvl2_ca |    0000C498  _lvl2_cam |    0000C499  G$shadow_
     0000C499  _shadow_s |    0000C49A  G$shadow_ |    0000C49A  _shadow_s
     0000C49B  G$cam_ptr |    0000C49B  _cam_ptr  |    0000C49D  G$render_
     0000C49D  _render_a |    0000C49E  G$render_ |    0000C49E  _render_b
     0000C49F  G$PLAYER_ |    0000C49F  _PLAYER_b |    0000C4A0  G$animate
     0000C4A0  _animate_ |    0000C4A2  G$collide |    0000C4A2  _collide_
     0000C4A4  G$load_su |    0000C4A4  _load_sub |    0000C4A6  G$animati
     0000C4A6  _animatio |    0000C4A7  G$worldte |    0000C4A7  _worldtes
     0000C4A9  G$worldte |    0000C4A9  _worldtes |    0000C4AC  G$worldte
     0000C4AC  _worldtes |    0000C4AD  G$worldte |    0000C4AD  _worldtes
     0000C4AF  G$worldte |    0000C4AF  _worldtes |    0000C4B0  G$worldte
     0000C4B0  _worldtes |    0000C4B1  G$worldte |    0000C4B1  _worldtes
     0000C4B2  G$worldte |    0000C4B2  _worldtes |    0000C4B3  G$WORLD1_
     0000C4B3  _WORLD1_T |    0000C4F3  ___render
ASxxxx Linker V03.00 + NoICE + sdld,  page 96.
Hexadecimal  [32-Bits]

Area                       Addr        Size        Decimal Bytes (Attributes)
--------------------       ----        ----        ------- ----- ------------
_HRAM12                00000000    00000003 =           3. bytes (ABS,CON)

        Value  Global            Value  Global            Value  Global    
        -----  ------            -----  ------            -----  ------    
     0000FF90  __current |    0000FF92  __shadow_
ASxxxx Linker V03.00 + NoICE + sdld,  page 97.
Hexadecimal  [32-Bits]

Area                       Addr        Size        Decimal Bytes (Attributes)
--------------------       ----        ----        ------- ----- ------------
_CODE_5                00054000    000017D9 =        6105. bytes (REL,CON)

        Value  Global            Value  Global            Value  Global    
        -----  ------            -----  ------            -----  ------    
     00054000  A$lcc8968 |    00054000  C$level1. |    00054000  G$anim_le
     00054000  _anim_lev |    00054002  A$lcc8968 |    00054002  C$level1.
     00054003  A$lcc8968 |    00054005  A$lcc8968 |    00054006  A$lcc8968
     00054007  A$lcc8968 |    00054007  C$level1. |    00054008  A$lcc8968
     0005400A  A$lcc8968 |    0005400B  A$lcc8968 |    0005400B  C$level1.
     0005400C  A$lcc8968 |    0005400D  A$lcc8968 |    0005400E  A$lcc8968
     0005400F  A$lcc8968 |    0005400F  C$level1. |    00054012  A$lcc8968
     00054013  A$lcc8968 |    00054014  A$lcc8968 |    00054015  A$lcc8968
     00054017  A$lcc8968 |    00054018  A$lcc8968 |    00054019  A$lcc8968
     0005401A  A$lcc8968 |    0005401C  A$lcc8968 |    0005401D  A$lcc8968
     0005401F  A$lcc8968 |    00054020  A$lcc8968 |    00054022  A$lcc8968
     00054023  A$lcc8968 |    00054025  A$lcc8968 |    00054026  A$lcc8968
     00054028  A$lcc8968 |    00054029  A$lcc8968 |    0005402B  A$lcc8968
     0005402C  A$lcc8968 |    0005402E  A$lcc8968 |    0005402F  A$lcc8968
     00054031  A$lcc8968 |    00054031  C$level1. |    00054034  A$lcc8968
     00054035  A$lcc8968 |    00054036  A$lcc8968 |    00054037  A$lcc8968
     00054039  A$lcc8968 |    0005403B  A$lcc8968 |    0005403D  A$lcc8968
     0005403F  A$lcc8968 |    00054041  A$lcc8968 |    00054043  A$lcc8968
     00054045  A$lcc8968 |    00054047  A$lcc8968 |    00054049  A$lcc8968
     0005404A  A$lcc8968 |    0005404A  C$level1. |    0005404C  A$lcc8968
     0005404E  A$lcc8968 |    0005404E  C$level1. |    00054050  A$lcc8968
     00054050  C$level1. |    00054051  A$lcc8968 |    00054052  A$lcc8968
     00054053  A$lcc8968 |    00054053  C$level1. |    00054055  A$lcc8968
     00054056  A$lcc8968 |    00054058  A$lcc8968 |    00054059  A$lcc8968
     0005405B  A$lcc8968 |    0005405C  A$lcc8968 |    0005405E  A$lcc8968
     0005405F  A$lcc8968 |    00054061  A$lcc8968 |    00054063  A$lcc8968
     00054065  A$lcc8968 |    00054067  A$lcc8968 |    00054068  A$lcc8968
     0005406A  A$lcc8968 |    0005406C  A$lcc8968 |    0005406E  A$lcc8968
     0005406F  A$lcc8968 |    00054071  A$lcc8968 |    00054072  A$lcc8968
     00054074  A$lcc8968 |    00054075  A$lcc8968 |    00054077  A$lcc8968
     00054078  A$lcc8968 |    0005407A  A$lcc8968 |    0005407B  A$lcc8968
     0005407D  A$lcc8968 |    0005407E  A$lcc8968 |    00054080  A$lcc8968
     00054081  A$lcc8968 |    00054083  A$lcc8968 |    00054085  A$lcc8968
     00054087  A$lcc8968 |    0005408A  A$lcc8968 |    0005408B  A$lcc8968
     0005408C  A$lcc8968 |    0005408D  A$lcc8968 |    0005408F  A$lcc8968
     00054090  A$lcc8968 |    00054091  A$lcc8968 |    00054092  A$lcc8968
     00054093  A$lcc8968 |    00054094  A$lcc8968 |    00054096  A$lcc8968
     00054096  C$level1. |    00054099  A$lcc8968 |    0005409B  A$lcc8968
     0005409C  A$lcc8968 |    0005409E  A$lcc8968 |    0005409E  C$level1.
     000540A0  A$lcc8968 |    000540A2  A$lcc8968 |    000540A2  C$level1.
     000540A4  A$lcc8968 |    000540A6  A$lcc8968 |    000540A6  C$level1.
     000540A8  A$lcc8968 |    000540AA  A$lcc8968 |    000540AB  A$lcc8968
     000540AD  A$lcc8968 |    000540AD  C$level1. |    000540AF  A$lcc8968
     000540B1  A$lcc8968 |    000540B2  A$lcc8968 |    000540B4  A$lcc8968
     000540B7  A$lcc8968 |    000540B7  C$level1. |    000540B9  A$lcc8968
     000540BA  A$lcc8968 |    000540BC  A$lcc8968 |    000540BD  A$lcc8968
     000540BF  A$lcc8968 |    000540C0  A$lcc8968 |    000540C2  A$lcc8968
     000540C3  A$lcc8968 |    000540C5  A$lcc8968 |    000540C7  A$lcc8968
     000540C9  A$lcc8968 |    000540CB  A$lcc8968 |    000540CC  A$lcc8968
     000540CE  A$lcc8968 |    000540D0  A$lcc8968 |    000540D2  A$lcc8968
ASxxxx Linker V03.00 + NoICE + sdld,  page 98.
Hexadecimal  [32-Bits]

Area                       Addr        Size        Decimal Bytes (Attributes)
--------------------       ----        ----        ------- ----- ------------
_CODE_5                00054000    000017D9 =        6105. bytes (REL,CON)

        Value  Global            Value  Global            Value  Global    
        -----  ------            -----  ------            -----  ------    
     000540D3  A$lcc8968 |    000540D5  A$lcc8968 |    000540D6  A$lcc8968
     000540D7  A$lcc8968 |    000540D9  A$lcc8968 |    000540DB  A$lcc8968
     000540DD  A$lcc8968 |    000540DE  A$lcc8968 |    000540DF  A$lcc8968
     000540E1  A$lcc8968 |    000540E1  C$level1. |    000540E4  A$lcc8968
     000540E6  A$lcc8968 |    000540E7  A$lcc8968 |    000540E9  A$lcc8968
     000540E9  C$level1. |    000540EB  A$lcc8968 |    000540ED  A$lcc8968
     000540ED  C$level1. |    000540EF  A$lcc8968 |    000540F1  A$lcc8968
     000540F1  C$level1. |    000540F3  A$lcc8968 |    000540F5  A$lcc8968
     000540F5  C$level1. |    000540F7  A$lcc8968 |    000540F9  A$lcc8968
     000540FA  A$lcc8968 |    000540FC  A$lcc8968 |    000540FC  C$level1.
     000540FE  A$lcc8968 |    00054100  A$lcc8968 |    00054101  A$lcc8968
     00054103  A$lcc8968 |    00054103  C$level1. |    00054105  A$lcc8968
     00054107  A$lcc8968 |    00054108  A$lcc8968 |    0005410A  A$lcc8968
     0005410C  A$lcc8968 |    0005410C  C$level1. |    0005410E  A$lcc8968
     0005410F  A$lcc8968 |    00054111  A$lcc8968 |    00054112  A$lcc8968
     00054114  A$lcc8968 |    00054115  A$lcc8968 |    00054117  A$lcc8968
     00054118  A$lcc8968 |    0005411A  A$lcc8968 |    0005411C  A$lcc8968
     0005411E  A$lcc8968 |    00054120  A$lcc8968 |    00054121  A$lcc8968
     00054123  A$lcc8968 |    00054125  A$lcc8968 |    00054127  A$lcc8968
     00054128  A$lcc8968 |    0005412A  A$lcc8968 |    0005412B  A$lcc8968
     0005412C  A$lcc8968 |    0005412E  A$lcc8968 |    00054130  A$lcc8968
     00054131  A$lcc8968 |    00054132  A$lcc8968 |    00054134  A$lcc8968
     00054134  C$level1. |    00054137  A$lcc8968 |    00054139  A$lcc8968
     0005413A  A$lcc8968 |    0005413C  A$lcc8968 |    0005413C  C$level1.
     0005413E  A$lcc8968 |    00054140  A$lcc8968 |    00054140  C$level1.
     00054142  A$lcc8968 |    00054144  A$lcc8968 |    00054144  C$level1.
     00054146  A$lcc8968 |    00054148  A$lcc8968 |    00054148  C$level1.
     0005414A  A$lcc8968 |    0005414C  A$lcc8968 |    0005414D  A$lcc8968
     0005414F  A$lcc8968 |    0005414F  C$level1. |    00054151  A$lcc8968
     00054153  A$lcc8968 |    00054154  A$lcc8968 |    00054156  A$lcc8968
     00054156  C$level1. |    00054158  A$lcc8968 |    0005415A  A$lcc8968
     0005415B  A$lcc8968 |    0005415D  A$lcc8968 |    0005415F  A$lcc8968
     0005415F  C$level1. |    00054160  A$lcc8968 |    00054161  A$lcc8968
     00054163  A$lcc8968 |    00054163  C$level1. |    00054166  A$lcc8968
     00054168  A$lcc8968 |    00054169  A$lcc8968 |    0005416B  A$lcc8968
     0005416B  C$level1. |    0005416D  A$lcc8968 |    0005416F  A$lcc8968
     0005416F  C$level1. |    00054171  A$lcc8968 |    00054173  A$lcc8968
     00054173  C$level1. |    00054175  A$lcc8968 |    00054177  A$lcc8968
     00054178  A$lcc8968 |    0005417A  A$lcc8968 |    0005417A  C$level1.
     0005417C  A$lcc8968 |    0005417E  A$lcc8968 |    0005417F  A$lcc8968
     00054181  A$lcc8968 |    00054181  C$level1. |    00054183  A$lcc8968
     00054184  A$lcc8968 |    00054185  A$lcc8968 |    00054188  A$lcc8968
     00054188  C$level1. |    0005418A  A$lcc8968 |    0005418B  A$lcc8968
     0005418C  A$lcc8968 |    0005418D  A$lcc8968 |    0005418E  A$lcc8968
     0005418F  A$lcc8968 |    00054191  A$lcc8968 |    00054192  A$lcc8968
     00054193  A$lcc8968 |    00054194  A$lcc8968 |    00054195  A$lcc8968
     00054196  A$lcc8968 |    00054197  A$lcc8968 |    00054198  A$lcc8968
     00054199  A$lcc8968 |    0005419A  A$lcc8968 |    0005419B  A$lcc8968
     0005419C  A$lcc8968 |    0005419D  A$lcc8968 |    0005419F  A$lcc8968
     000541A0  A$lcc8968 |    000541A1  A$lcc8968 |    000541A3  A$lcc8968
     000541A5  A$lcc8968 |    000541A6  A$lcc8968 |    000541A7  A$lcc8968
ASxxxx Linker V03.00 + NoICE + sdld,  page 99.
Hexadecimal  [32-Bits]

Area                       Addr        Size        Decimal Bytes (Attributes)
--------------------       ----        ----        ------- ----- ------------
_CODE_5                00054000    000017D9 =        6105. bytes (REL,CON)

        Value  Global            Value  Global            Value  Global    
        -----  ------            -----  ------            -----  ------    
     000541A8  A$lcc8968 |    000541A8  C$level1. |    000541AA  A$lcc8968
     000541AB  A$lcc8968 |    000541AC  A$lcc8968 |    000541AD  A$lcc8968
     000541AE  A$lcc8968 |    000541AF  A$lcc8968 |    000541B1  A$lcc8968
     000541B2  A$lcc8968 |    000541B3  A$lcc8968 |    000541B4  A$lcc8968
     000541B5  A$lcc8968 |    000541B6  A$lcc8968 |    000541B7  A$lcc8968
     000541B8  A$lcc8968 |    000541B9  A$lcc8968 |    000541BA  A$lcc8968
     000541BB  A$lcc8968 |    000541BC  A$lcc8968 |    000541BD  A$lcc8968
     000541BF  A$lcc8968 |    000541C0  A$lcc8968 |    000541C1  A$lcc8968
     000541C3  A$lcc8968 |    000541C5  A$lcc8968 |    000541C6  A$lcc8968
     000541C7  A$lcc8968 |    000541C8  A$lcc8968 |    000541C8  C$level1.
     000541CA  A$lcc8968 |    000541CB  A$lcc8968 |    000541CC  A$lcc8968
     000541CD  A$lcc8968 |    000541CE  A$lcc8968 |    000541CF  A$lcc8968
     000541D1  A$lcc8968 |    000541D2  A$lcc8968 |    000541D3  A$lcc8968
     000541D4  A$lcc8968 |    000541D5  A$lcc8968 |    000541D6  A$lcc8968
     000541D7  A$lcc8968 |    000541D8  A$lcc8968 |    000541D9  A$lcc8968
     000541DA  A$lcc8968 |    000541DB  A$lcc8968 |    000541DC  A$lcc8968
     000541DD  A$lcc8968 |    000541DF  A$lcc8968 |    000541E0  A$lcc8968
     000541E1  A$lcc8968 |    000541E3  A$lcc8968 |    000541E5  A$lcc8968
     000541E6  A$lcc8968 |    000541E7  A$lcc8968 |    000541E7  C$level1.
     000541E7  C$level1. |    000541E7  C$level1. |    000541E8  A$lcc8968
     000541EB  A$lcc8968 |    000541EC  A$lcc8968 |    000541ED  A$lcc8968
     000541EE  A$lcc8968 |    000541EF  A$lcc8968 |    000541F0  A$lcc8968
     000541F0  C$level1. |    000541F2  A$lcc8968 |    000541F3  A$lcc8968
     000541F4  A$lcc8968 |    000541F5  A$lcc8968 |    000541F7  A$lcc8968
     000541F8  A$lcc8968 |    000541FA  A$lcc8968 |    000541FB  A$lcc8968
     000541FD  A$lcc8968 |    000541FF  A$lcc8968 |    00054201  A$lcc8968
     00054203  A$lcc8968 |    00054204  A$lcc8968 |    00054206  A$lcc8968
     00054208  A$lcc8968 |    0005420A  A$lcc8968 |    0005420B  A$lcc8968
     0005420D  A$lcc8968 |    00054210  A$lcc8968 |    00054211  A$lcc8968
     00054212  A$lcc8968 |    00054213  A$lcc8968 |    00054215  A$lcc8968
     00054216  A$lcc8968 |    00054217  A$lcc8968 |    00054218  A$lcc8968
     00054219  A$lcc8968 |    0005421B  A$lcc8968 |    0005421B  C$level1.
     0005421E  A$lcc8968 |    0005421F  A$lcc8968 |    00054220  A$lcc8968
     00054221  A$lcc8968 |    00054223  A$lcc8968 |    00054224  A$lcc8968
     00054225  A$lcc8968 |    00054226  A$lcc8968 |    00054227  A$lcc8968
     00054228  A$lcc8968 |    00054229  A$lcc8968 |    0005422C  A$lcc8968
     0005422D  A$lcc8968 |    0005422E  A$lcc8968 |    0005422F  A$lcc8968
     0005422F  C$level1. |    00054232  A$lcc8968 |    00054234  A$lcc8968
     00054236  A$lcc8968 |    00054236  C$level1. |    00054239  A$lcc8968
     0005423A  A$lcc8968 |    0005423B  A$lcc8968 |    0005423C  A$lcc8968
     0005423E  A$lcc8968 |    0005423F  A$lcc8968 |    00054240  A$lcc8968
     00054241  A$lcc8968 |    00054242  A$lcc8968 |    00054243  A$lcc8968
     00054244  A$lcc8968 |    00054247  A$lcc8968 |    00054248  A$lcc8968
     00054249  A$lcc8968 |    0005424A  A$lcc8968 |    0005424C  A$lcc8968
     0005424D  A$lcc8968 |    0005424E  A$lcc8968 |    0005424F  A$lcc8968
     00054250  A$lcc8968 |    00054250  C$level1. |    00054253  A$lcc8968
     00054255  A$lcc8968 |    00054256  A$lcc8968 |    00054256  C$level1.
     00054257  A$lcc8968 |    00054258  A$lcc8968 |    00054259  A$lcc8968
     0005425A  A$lcc8968 |    0005425B  A$lcc8968 |    0005425D  A$lcc8968
     0005425F  A$lcc8968 |    00054261  A$lcc8968 |    00054263  A$lcc8968
     00054264  A$lcc8968 |    00054266  A$lcc8968 |    00054268  A$lcc8968
ASxxxx Linker V03.00 + NoICE + sdld,  page 100.
Hexadecimal  [32-Bits]

Area                       Addr        Size        Decimal Bytes (Attributes)
--------------------       ----        ----        ------- ----- ------------
_CODE_5                00054000    000017D9 =        6105. bytes (REL,CON)

        Value  Global            Value  Global            Value  Global    
        -----  ------            -----  ------            -----  ------    
     0005426A  A$lcc8968 |    0005426B  A$lcc8968 |    0005426D  A$lcc8968
     0005426D  C$level1. |    0005426E  A$lcc8968 |    00054270  A$lcc8968
     00054272  A$lcc8968 |    00054273  A$lcc8968 |    00054275  A$lcc8968
     00054277  A$lcc8968 |    00054278  A$lcc8968 |    0005427A  A$lcc8968
     0005427C  A$lcc8968 |    0005427C  C$level1. |    0005427F  A$lcc8968
     00054280  A$lcc8968 |    00054281  A$lcc8968 |    00054282  A$lcc8968
     00054285  A$lcc8968 |    00054286  A$lcc8968 |    00054287  A$lcc8968
     00054288  A$lcc8968 |    00054289  A$lcc8968 |    0005428A  A$lcc8968
     0005428B  A$lcc8968 |    0005428E  A$lcc8968 |    0005428F  A$lcc8968
     00054290  A$lcc8968 |    00054291  A$lcc8968 |    00054291  C$level1.
     00054294  A$lcc8968 |    00054296  A$lcc8968 |    00054298  A$lcc8968
     00054298  C$level1. |    0005429A  A$lcc8968 |    0005429B  A$lcc8968
     0005429C  A$lcc8968 |    0005429D  A$lcc8968 |    0005429E  A$lcc8968
     000542A1  A$lcc8968 |    000542A2  A$lcc8968 |    000542A3  A$lcc8968
     000542A4  A$lcc8968 |    000542A5  A$lcc8968 |    000542A6  A$lcc8968
     000542A7  A$lcc8968 |    000542A8  A$lcc8968 |    000542AA  A$lcc8968
     000542AA  C$level1. |    000542AB  A$lcc8968 |    000542AD  A$lcc8968
     000542AF  A$lcc8968 |    000542B0  A$lcc8968 |    000542B2  A$lcc8968
     000542B4  A$lcc8968 |    000542B6  A$lcc8968 |    000542B7  A$lcc8968
     000542B9  A$lcc8968 |    000542B9  C$level1. |    000542BA  A$lcc8968
     000542BD  A$lcc8968 |    000542BE  A$lcc8968 |    000542BF  A$lcc8968
     000542C0  A$lcc8968 |    000542C1  A$lcc8968 |    000542C2  A$lcc8968
     000542C5  A$lcc8968 |    000542C6  A$lcc8968 |    000542C8  A$lcc8968
     000542C9  A$lcc8968 |    000542CA  A$lcc8968 |    000542CB  A$lcc8968
     000542CC  A$lcc8968 |    000542CD  A$lcc8968 |    000542CE  A$lcc8968
     000542CF  A$lcc8968 |    000542D1  A$lcc8968 |    000542D2  A$lcc8968
     000542D3  A$lcc8968 |    000542D4  A$lcc8968 |    000542D5  A$lcc8968
     000542D6  A$lcc8968 |    000542D7  A$lcc8968 |    000542D9  A$lcc8968
     000542DA  A$lcc8968 |    000542DB  A$lcc8968 |    000542DC  A$lcc8968
     000542DE  A$lcc8968 |    000542DF  A$lcc8968 |    000542E2  A$lcc8968
     000542E3  A$lcc8968 |    000542E4  A$lcc8968 |    000542E5  A$lcc8968
     000542E6  A$lcc8968 |    000542E7  A$lcc8968 |    000542E7  C$level1.
     000542EA  A$lcc8968 |    000542EC  A$lcc8968 |    000542EC  C$level1.
     000542EE  A$lcc8968 |    000542EF  A$lcc8968 |    000542F1  A$lcc8968
     000542F2  A$lcc8968 |    000542F4  A$lcc8968 |    000542F5  A$lcc8968
     000542F7  A$lcc8968 |    000542F8  A$lcc8968 |    000542FA  A$lcc8968
     000542FB  A$lcc8968 |    000542FD  A$lcc8968 |    000542FE  A$lcc8968
     00054300  A$lcc8968 |    00054301  A$lcc8968 |    00054302  A$lcc8968
     00054304  A$lcc8968 |    00054304  C$level1. |    00054305  A$lcc8968
     00054306  A$lcc8968 |    00054307  A$lcc8968 |    00054308  A$lcc8968
     0005430B  A$lcc8968 |    0005430C  A$lcc8968 |    0005430D  A$lcc8968
     0005430E  A$lcc8968 |    00054310  A$lcc8968 |    00054311  A$lcc8968
     00054312  A$lcc8968 |    00054313  A$lcc8968 |    00054315  A$lcc8968
     00054316  A$lcc8968 |    00054317  A$lcc8968 |    00054318  A$lcc8968
     00054319  A$lcc8968 |    0005431B  A$lcc8968 |    0005431B  C$level1.
     0005431D  A$lcc8968 |    0005431E  A$lcc8968 |    00054320  A$lcc8968
     00054321  A$lcc8968 |    00054322  A$lcc8968 |    00054322  C$level1.
     00054324  A$lcc8968 |    00054325  A$lcc8968 |    00054326  A$lcc8968
     00054327  A$lcc8968 |    00054328  A$lcc8968 |    00054329  A$lcc8968
     0005432B  A$lcc8968 |    0005432C  A$lcc8968 |    0005432D  A$lcc8968
     0005432E  A$lcc8968 |    0005432F  A$lcc8968 |    00054330  A$lcc8968
ASxxxx Linker V03.00 + NoICE + sdld,  page 101.
Hexadecimal  [32-Bits]

Area                       Addr        Size        Decimal Bytes (Attributes)
--------------------       ----        ----        ------- ----- ------------
_CODE_5                00054000    000017D9 =        6105. bytes (REL,CON)

        Value  Global            Value  Global            Value  Global    
        -----  ------            -----  ------            -----  ------    
     00054331  A$lcc8968 |    00054332  A$lcc8968 |    00054333  A$lcc8968
     00054334  A$lcc8968 |    00054335  A$lcc8968 |    00054336  A$lcc8968
     00054337  A$lcc8968 |    00054339  A$lcc8968 |    0005433A  A$lcc8968
     0005433B  A$lcc8968 |    0005433D  A$lcc8968 |    0005433F  A$lcc8968
     00054340  A$lcc8968 |    00054341  A$lcc8968 |    00054341  C$level1.
     00054342  A$lcc8968 |    00054343  A$lcc8968 |    00054344  A$lcc8968
     00054346  A$lcc8968 |    00054346  C$level1. |    00054348  A$lcc8968
     00054349  A$lcc8968 |    0005434B  A$lcc8968 |    0005434C  A$lcc8968
     0005434E  A$lcc8968 |    0005434F  A$lcc8968 |    00054351  A$lcc8968
     00054352  A$lcc8968 |    00054354  A$lcc8968 |    00054355  A$lcc8968
     00054357  A$lcc8968 |    00054358  A$lcc8968 |    0005435A  A$lcc8968
     0005435B  A$lcc8968 |    0005435C  A$lcc8968 |    0005435E  A$lcc8968
     0005435E  C$level1. |    0005435F  A$lcc8968 |    00054360  A$lcc8968
     00054361  A$lcc8968 |    00054362  A$lcc8968 |    00054365  A$lcc8968
     00054366  A$lcc8968 |    00054367  A$lcc8968 |    00054368  A$lcc8968
     0005436A  A$lcc8968 |    0005436B  A$lcc8968 |    0005436C  A$lcc8968
     0005436D  A$lcc8968 |    0005436F  A$lcc8968 |    00054370  A$lcc8968
     00054371  A$lcc8968 |    00054372  A$lcc8968 |    00054373  A$lcc8968
     00054375  A$lcc8968 |    00054375  C$level1. |    00054377  A$lcc8968
     00054378  A$lcc8968 |    0005437A  A$lcc8968 |    0005437B  A$lcc8968
     0005437C  A$lcc8968 |    0005437C  C$level1. |    0005437E  A$lcc8968
     0005437F  A$lcc8968 |    00054380  A$lcc8968 |    00054381  A$lcc8968
     00054382  A$lcc8968 |    00054383  A$lcc8968 |    00054385  A$lcc8968
     00054386  A$lcc8968 |    00054387  A$lcc8968 |    00054388  A$lcc8968
     00054389  A$lcc8968 |    0005438A  A$lcc8968 |    0005438B  A$lcc8968
     0005438C  A$lcc8968 |    0005438D  A$lcc8968 |    0005438E  A$lcc8968
     0005438F  A$lcc8968 |    00054390  A$lcc8968 |    00054391  A$lcc8968
     00054393  A$lcc8968 |    00054394  A$lcc8968 |    00054395  A$lcc8968
     00054397  A$lcc8968 |    00054399  A$lcc8968 |    0005439A  A$lcc8968
     0005439B  A$lcc8968 |    0005439B  C$level1. |    0005439C  A$lcc8968
     0005439D  A$lcc8968 |    0005439E  A$lcc8968 |    000543A0  A$lcc8968
     000543A0  C$level1. |    000543A3  A$lcc8968 |    000543A4  A$lcc8968
     000543A5  A$lcc8968 |    000543A6  A$lcc8968 |    000543A8  A$lcc8968
     000543A9  A$lcc8968 |    000543AA  A$lcc8968 |    000543AB  A$lcc8968
     000543AD  A$lcc8968 |    000543AE  A$lcc8968 |    000543B0  A$lcc8968
     000543B1  A$lcc8968 |    000543B3  A$lcc8968 |    000543B4  A$lcc8968
     000543B6  A$lcc8968 |    000543B7  A$lcc8968 |    000543B9  A$lcc8968
     000543BA  A$lcc8968 |    000543BC  A$lcc8968 |    000543BD  A$lcc8968
     000543BF  A$lcc8968 |    000543C0  A$lcc8968 |    000543C2  A$lcc8968
     000543C2  C$level1. |    000543C3  A$lcc8968 |    000543C4  A$lcc8968
     000543C5  A$lcc8968 |    000543C7  A$lcc8968 |    000543C8  A$lcc8968
     000543CA  A$lcc8968 |    000543CB  A$lcc8968 |    000543CD  A$lcc8968
     000543CF  A$lcc8968 |    000543D1  A$lcc8968 |    000543D3  A$lcc8968
     000543D4  A$lcc8968 |    000543D6  A$lcc8968 |    000543D8  A$lcc8968
     000543DA  A$lcc8968 |    000543DB  A$lcc8968 |    000543DD  A$lcc8968
     000543DE  A$lcc8968 |    000543E0  A$lcc8968 |    000543E1  A$lcc8968
     000543E1  C$level1. |    000543E3  A$lcc8968 |    000543E4  A$lcc8968
     000543E6  A$lcc8968 |    000543E7  A$lcc8968 |    000543E9  A$lcc8968
     000543EA  A$lcc8968 |    000543EC  A$lcc8968 |    000543ED  A$lcc8968
     000543EF  A$lcc8968 |    000543F0  A$lcc8968 |    000543F1  A$lcc8968
     000543F4  A$lcc8968 |    000543F4  C$level1. |    000543F5  A$lcc8968
ASxxxx Linker V03.00 + NoICE + sdld,  page 102.
Hexadecimal  [32-Bits]

Area                       Addr        Size        Decimal Bytes (Attributes)
--------------------       ----        ----        ------- ----- ------------
_CODE_5                00054000    000017D9 =        6105. bytes (REL,CON)

        Value  Global            Value  Global            Value  Global    
        -----  ------            -----  ------            -----  ------    
     000543F6  A$lcc8968 |    000543F9  A$lcc8968 |    000543FA  A$lcc8968
     000543FB  A$lcc8968 |    000543FC  A$lcc8968 |    000543FE  A$lcc8968
     000543FF  A$lcc8968 |    00054400  A$lcc8968 |    00054401  A$lcc8968
     00054403  A$lcc8968 |    00054404  A$lcc8968 |    00054405  A$lcc8968
     00054406  A$lcc8968 |    00054407  A$lcc8968 |    00054409  A$lcc8968
     00054409  C$level1. |    0005440B  A$lcc8968 |    0005440C  A$lcc8968
     0005440D  A$lcc8968 |    0005440F  A$lcc8968 |    00054412  A$lcc8968
     00054413  A$lcc8968 |    00054414  A$lcc8968 |    00054415  A$lcc8968
     00054417  A$lcc8968 |    00054418  A$lcc8968 |    00054419  A$lcc8968
     0005441A  A$lcc8968 |    0005441B  A$lcc8968 |    0005441D  A$lcc8968
     0005441D  C$level1. |    0005441E  A$lcc8968 |    0005441F  A$lcc8968
     00054420  A$lcc8968 |    00054421  A$lcc8968 |    00054422  A$lcc8968
     00054423  A$lcc8968 |    00054424  A$lcc8968 |    00054427  A$lcc8968
     00054428  A$lcc8968 |    00054429  A$lcc8968 |    0005442A  A$lcc8968
     0005442B  A$lcc8968 |    0005442C  A$lcc8968 |    0005442D  A$lcc8968
     0005442E  A$lcc8968 |    0005442F  A$lcc8968 |    00054430  A$lcc8968
     00054431  A$lcc8968 |    00054432  A$lcc8968 |    00054433  A$lcc8968
     00054434  A$lcc8968 |    00054435  A$lcc8968 |    00054435  C$level1.
     00054437  A$lcc8968 |    00054438  A$lcc8968 |    00054439  A$lcc8968
     0005443A  A$lcc8968 |    0005443B  A$lcc8968 |    0005443C  A$lcc8968
     0005443F  A$lcc8968 |    00054440  A$lcc8968 |    00054441  A$lcc8968
     00054444  A$lcc8968 |    00054445  A$lcc8968 |    00054446  A$lcc8968
     00054447  A$lcc8968 |    00054449  A$lcc8968 |    0005444A  A$lcc8968
     0005444B  A$lcc8968 |    0005444C  A$lcc8968 |    0005444E  A$lcc8968
     0005444F  A$lcc8968 |    00054450  A$lcc8968 |    00054451  A$lcc8968
     00054452  A$lcc8968 |    00054453  A$lcc8968 |    00054454  A$lcc8968
     00054457  A$lcc8968 |    00054458  A$lcc8968 |    00054459  A$lcc8968
     0005445C  A$lcc8968 |    0005445D  A$lcc8968 |    0005445E  A$lcc8968
     0005445F  A$lcc8968 |    00054460  A$lcc8968 |    00054462  A$lcc8968
     00054463  A$lcc8968 |    00054463  C$level1. |    00054464  A$lcc8968
     00054465  A$lcc8968 |    00054468  A$lcc8968 |    00054469  A$lcc8968
     0005446A  A$lcc8968 |    0005446B  A$lcc8968 |    0005446D  A$lcc8968
     0005446E  A$lcc8968 |    0005446F  A$lcc8968 |    00054470  A$lcc8968
     00054472  A$lcc8968 |    00054473  A$lcc8968 |    00054473  C$level1.
     00054474  A$lcc8968 |    00054475  A$lcc8968 |    00054478  A$lcc8968
     00054479  A$lcc8968 |    0005447A  A$lcc8968 |    0005447B  A$lcc8968
     0005447D  A$lcc8968 |    0005447E  A$lcc8968 |    0005447F  A$lcc8968
     00054480  A$lcc8968 |    00054482  A$lcc8968 |    00054483  A$lcc8968
     00054484  A$lcc8968 |    00054485  A$lcc8968 |    00054488  A$lcc8968
     00054489  A$lcc8968 |    0005448A  A$lcc8968 |    0005448B  A$lcc8968
     0005448D  A$lcc8968 |    0005448E  A$lcc8968 |    0005448F  A$lcc8968
     00054490  A$lcc8968 |    00054492  A$lcc8968 |    00054493  A$lcc8968
     00054493  C$scene.h |    00054494  A$lcc8968 |    00054495  A$lcc8968
     00054498  A$lcc8968 |    00054499  A$lcc8968 |    0005449A  A$lcc8968
     0005449B  A$lcc8968 |    0005449D  A$lcc8968 |    0005449E  A$lcc8968
     0005449F  A$lcc8968 |    000544A0  A$lcc8968 |    000544A2  A$lcc8968
     000544A3  A$lcc8968 |    000544A3  C$scene.h |    000544A4  A$lcc8968
     000544A5  A$lcc8968 |    000544A8  A$lcc8968 |    000544A9  A$lcc8968
     000544AA  A$lcc8968 |    000544AB  A$lcc8968 |    000544AD  A$lcc8968
     000544AE  A$lcc8968 |    000544AF  A$lcc8968 |    000544B0  A$lcc8968
     000544B2  A$lcc8968 |    000544B3  A$lcc8968 |    000544B3  C$level1.
ASxxxx Linker V03.00 + NoICE + sdld,  page 103.
Hexadecimal  [32-Bits]

Area                       Addr        Size        Decimal Bytes (Attributes)
--------------------       ----        ----        ------- ----- ------------
_CODE_5                00054000    000017D9 =        6105. bytes (REL,CON)

        Value  Global            Value  Global            Value  Global    
        -----  ------            -----  ------            -----  ------    
     000544B4  A$lcc8968 |    000544B5  A$lcc8968 |    000544B8  A$lcc8968
     000544B9  A$lcc8968 |    000544BA  A$lcc8968 |    000544BB  A$lcc8968
     000544BD  A$lcc8968 |    000544BE  A$lcc8968 |    000544BF  A$lcc8968
     000544C0  A$lcc8968 |    000544C2  A$lcc8968 |    000544C3  A$lcc8968
     000544C3  C$level1. |    000544C5  A$lcc8968 |    000544C6  A$lcc8968
     000544C7  A$lcc8968 |    000544CA  A$lcc8968 |    000544CA  C$level1.
     000544CC  A$lcc8968 |    000544CD  A$lcc8968 |    000544CE  A$lcc8968
     000544CF  A$lcc8968 |    000544D0  A$lcc8968 |    000544D1  A$lcc8968
     000544D2  A$lcc8968 |    000544D3  A$lcc8968 |    000544D4  A$lcc8968
     000544D5  A$lcc8968 |    000544D6  A$lcc8968 |    000544D6  C$level1.
     000544D7  A$lcc8968 |    000544D8  A$lcc8968 |    000544D9  A$lcc8968
     000544DA  A$lcc8968 |    000544DB  A$lcc8968 |    000544DC  A$lcc8968
     000544DD  A$lcc8968 |    000544DF  A$lcc8968 |    000544E0  A$lcc8968
     000544E1  A$lcc8968 |    000544E2  A$lcc8968 |    000544E3  A$lcc8968
     000544E4  A$lcc8968 |    000544E5  A$lcc8968 |    000544E6  A$lcc8968
     000544E7  A$lcc8968 |    000544E8  A$lcc8968 |    000544E9  A$lcc8968
     000544EA  A$lcc8968 |    000544EB  A$lcc8968 |    000544EC  A$lcc8968
     000544ED  A$lcc8968 |    000544EE  A$lcc8968 |    000544EF  A$lcc8968
     000544F1  A$lcc8968 |    000544F2  A$lcc8968 |    000544F3  A$lcc8968
     000544F4  A$lcc8968 |    000544F5  A$lcc8968 |    000544F7  A$lcc8968
     000544F8  A$lcc8968 |    000544FA  A$lcc8968 |    000544FC  A$lcc8968
     000544FE  A$lcc8968 |    000544FF  A$lcc8968 |    00054500  A$lcc8968
     00054502  A$lcc8968 |    00054503  A$lcc8968 |    00054505  A$lcc8968
     00054507  A$lcc8968 |    00054509  A$lcc8968 |    0005450A  A$lcc8968
     0005450C  A$lcc8968 |    0005450D  A$lcc8968 |    0005450D  C$level1.
     0005450E  A$lcc8968 |    0005450F  A$lcc8968 |    00054511  A$lcc8968
     00054512  A$lcc8968 |    00054513  A$lcc8968 |    00054514  A$lcc8968
     00054515  A$lcc8968 |    00054516  A$lcc8968 |    00054517  A$lcc8968
     00054519  A$lcc8968 |    0005451A  A$lcc8968 |    0005451B  A$lcc8968
     0005451D  A$lcc8968 |    0005451F  A$lcc8968 |    00054521  A$lcc8968
     00054522  A$lcc8968 |    00054523  A$lcc8968 |    00054524  A$lcc8968
     00054526  A$lcc8968 |    00054527  A$lcc8968 |    00054528  A$lcc8968
     0005452A  A$lcc8968 |    0005452B  A$lcc8968 |    0005452C  A$lcc8968
     0005452D  A$lcc8968 |    0005452F  A$lcc8968 |    00054531  A$lcc8968
     00054532  A$lcc8968 |    00054533  A$lcc8968 |    00054534  A$lcc8968
     00054536  A$lcc8968 |    00054536  C$level1. |    00054538  A$lcc8968
     00054539  A$lcc8968 |    0005453A  A$lcc8968 |    0005453B  A$lcc8968
     0005453C  A$lcc8968 |    0005453D  A$lcc8968 |    0005453E  A$lcc8968
     0005453F  A$lcc8968 |    00054540  A$lcc8968 |    00054541  A$lcc8968
     00054544  A$lcc8968 |    00054545  A$lcc8968 |    00054546  A$lcc8968
     00054547  A$lcc8968 |    00054549  A$lcc8968 |    0005454A  A$lcc8968
     0005454B  A$lcc8968 |    0005454C  A$lcc8968 |    0005454D  A$lcc8968
     0005454E  A$lcc8968 |    0005454F  A$lcc8968 |    0005454F  C$level1.
     00054551  A$lcc8968 |    00054552  A$lcc8968 |    00054553  A$lcc8968
     00054554  A$lcc8968 |    00054555  A$lcc8968 |    00054556  A$lcc8968
     00054558  A$lcc8968 |    00054559  A$lcc8968 |    0005455A  A$lcc8968
     0005455B  A$lcc8968 |    0005455C  A$lcc8968 |    0005455F  A$lcc8968
     0005455F  C$level1. |    00054561  A$lcc8968 |    00054562  A$lcc8968
     00054563  A$lcc8968 |    00054566  A$lcc8968 |    00054567  A$lcc8968
     00054568  A$lcc8968 |    00054569  A$lcc8968 |    0005456A  A$lcc8968
     0005456B  A$lcc8968 |    0005456C  A$lcc8968 |    0005456F  A$lcc8968
ASxxxx Linker V03.00 + NoICE + sdld,  page 104.
Hexadecimal  [32-Bits]

Area                       Addr        Size        Decimal Bytes (Attributes)
--------------------       ----        ----        ------- ----- ------------
_CODE_5                00054000    000017D9 =        6105. bytes (REL,CON)

        Value  Global            Value  Global            Value  Global    
        -----  ------            -----  ------            -----  ------    
     00054571  A$lcc8968 |    00054573  A$lcc8968 |    00054575  A$lcc8968
     00054576  A$lcc8968 |    00054577  A$lcc8968 |    00054578  A$lcc8968
     0005457A  A$lcc8968 |    0005457B  A$lcc8968 |    0005457C  A$lcc8968
     0005457E  A$lcc8968 |    0005457F  A$lcc8968 |    00054580  A$lcc8968
     00054581  A$lcc8968 |    00054583  A$lcc8968 |    00054585  A$lcc8968
     00054586  A$lcc8968 |    00054587  A$lcc8968 |    00054588  A$lcc8968
     0005458A  A$lcc8968 |    0005458A  C$level1. |    0005458C  A$lcc8968
     0005458D  A$lcc8968 |    0005458E  A$lcc8968 |    0005458F  A$lcc8968
     00054590  A$lcc8968 |    00054591  A$lcc8968 |    00054592  A$lcc8968
     00054593  A$lcc8968 |    00054594  A$lcc8968 |    00054595  A$lcc8968
     00054598  A$lcc8968 |    00054599  A$lcc8968 |    0005459A  A$lcc8968
     0005459B  A$lcc8968 |    0005459C  A$lcc8968 |    0005459D  A$lcc8968
     0005459E  A$lcc8968 |    0005459F  A$lcc8968 |    000545A1  A$lcc8968
     000545A2  A$lcc8968 |    000545A3  A$lcc8968 |    000545A4  A$lcc8968
     000545A5  A$lcc8968 |    000545A6  A$lcc8968 |    000545A7  A$lcc8968
     000545A7  C$level1. |    000545A9  A$lcc8968 |    000545AA  A$lcc8968
     000545AB  A$lcc8968 |    000545AC  A$lcc8968 |    000545AD  A$lcc8968
     000545AE  A$lcc8968 |    000545B0  A$lcc8968 |    000545B1  A$lcc8968
     000545B2  A$lcc8968 |    000545B3  A$lcc8968 |    000545B4  A$lcc8968
     000545B7  A$lcc8968 |    000545B7  C$level1. |    000545B9  A$lcc8968
     000545BA  A$lcc8968 |    000545BC  A$lcc8968 |    000545BF  A$lcc8968
     000545BF  C$level1. |    000545C1  A$lcc8968 |    000545C2  A$lcc8968
     000545C3  A$lcc8968 |    000545C4  A$lcc8968 |    000545C5  A$lcc8968
     000545C6  A$lcc8968 |    000545C7  A$lcc8968 |    000545C8  A$lcc8968
     000545C9  A$lcc8968 |    000545CA  A$lcc8968 |    000545CB  A$lcc8968
     000545CB  C$level1. |    000545CC  A$lcc8968 |    000545CD  A$lcc8968
     000545CE  A$lcc8968 |    000545CF  A$lcc8968 |    000545D0  A$lcc8968
     000545D1  A$lcc8968 |    000545D2  A$lcc8968 |    000545D4  A$lcc8968
     000545D5  A$lcc8968 |    000545D6  A$lcc8968 |    000545D7  A$lcc8968
     000545D8  A$lcc8968 |    000545D9  A$lcc8968 |    000545DA  A$lcc8968
     000545DD  A$lcc8968 |    000545DE  A$lcc8968 |    000545DF  A$lcc8968
     000545E0  A$lcc8968 |    000545E2  A$lcc8968 |    000545E3  A$lcc8968
     000545E4  A$lcc8968 |    000545E5  A$lcc8968 |    000545E7  A$lcc8968
     000545E8  A$lcc8968 |    000545E9  A$lcc8968 |    000545EA  A$lcc8968
     000545EB  A$lcc8968 |    000545EC  A$lcc8968 |    000545EE  A$lcc8968
     000545EF  A$lcc8968 |    000545F0  A$lcc8968 |    000545F1  A$lcc8968
     000545F2  A$lcc8968 |    000545F3  A$lcc8968 |    000545F4  A$lcc8968
     000545F6  A$lcc8968 |    000545F7  A$lcc8968 |    000545F8  A$lcc8968
     000545F9  A$lcc8968 |    000545FA  A$lcc8968 |    000545FB  A$lcc8968
     000545FC  A$lcc8968 |    000545FD  A$lcc8968 |    000545FE  A$lcc8968
     000545FF  A$lcc8968 |    00054600  A$lcc8968 |    00054601  A$lcc8968
     00054601  C$level1. |    00054603  A$lcc8968 |    00054604  A$lcc8968
     00054605  A$lcc8968 |    00054606  A$lcc8968 |    00054607  A$lcc8968
     00054608  A$lcc8968 |    0005460A  A$lcc8968 |    0005460C  A$lcc8968
     0005460E  A$lcc8968 |    0005460F  A$lcc8968 |    00054610  A$lcc8968
     00054610  C$scene.h |    00054611  A$lcc8968 |    00054613  A$lcc8968
     00054615  A$lcc8968 |    00054617  A$lcc8968 |    00054618  A$lcc8968
     0005461A  A$lcc8968 |    0005461A  C$level1. |    0005461B  A$lcc8968
     0005461C  A$lcc8968 |    0005461E  A$lcc8968 |    0005461F  A$lcc8968
     00054620  A$lcc8968 |    00054621  A$lcc8968 |    00054622  A$lcc8968
     00054623  A$lcc8968 |    00054624  A$lcc8968 |    00054626  A$lcc8968
ASxxxx Linker V03.00 + NoICE + sdld,  page 105.
Hexadecimal  [32-Bits]

Area                       Addr        Size        Decimal Bytes (Attributes)
--------------------       ----        ----        ------- ----- ------------
_CODE_5                00054000    000017D9 =        6105. bytes (REL,CON)

        Value  Global            Value  Global            Value  Global    
        -----  ------            -----  ------            -----  ------    
     00054628  A$lcc8968 |    0005462A  A$lcc8968 |    0005462C  A$lcc8968
     0005462D  A$lcc8968 |    0005462E  A$lcc8968 |    0005462F  A$lcc8968
     00054630  A$lcc8968 |    00054632  A$lcc8968 |    00054633  A$lcc8968
     00054634  A$lcc8968 |    00054635  A$lcc8968 |    00054637  A$lcc8968
     00054639  A$lcc8968 |    0005463A  A$lcc8968 |    0005463B  A$lcc8968
     0005463C  A$lcc8968 |    0005463E  A$lcc8968 |    0005463E  C$level1.
     00054640  A$lcc8968 |    00054641  A$lcc8968 |    00054642  A$lcc8968
     00054643  A$lcc8968 |    00054644  A$lcc8968 |    00054645  A$lcc8968
     00054646  A$lcc8968 |    00054647  A$lcc8968 |    00054648  A$lcc8968
     00054649  A$lcc8968 |    0005464C  A$lcc8968 |    0005464D  A$lcc8968
     0005464E  A$lcc8968 |    0005464F  A$lcc8968 |    00054651  A$lcc8968
     00054652  A$lcc8968 |    00054653  A$lcc8968 |    00054654  A$lcc8968
     00054655  A$lcc8968 |    00054656  A$lcc8968 |    00054657  A$lcc8968
     00054657  C$level1. |    00054659  A$lcc8968 |    0005465A  A$lcc8968
     0005465B  A$lcc8968 |    0005465C  A$lcc8968 |    0005465D  A$lcc8968
     0005465E  A$lcc8968 |    00054660  A$lcc8968 |    00054661  A$lcc8968
     00054662  A$lcc8968 |    00054663  A$lcc8968 |    00054664  A$lcc8968
     00054667  A$lcc8968 |    00054667  C$level1. |    00054668  A$lcc8968
     00054669  A$lcc8968 |    0005466C  A$lcc8968 |    0005466E  A$lcc8968
     0005466F  A$lcc8968 |    00054670  A$lcc8968 |    00054671  A$lcc8968
     00054672  A$lcc8968 |    00054673  A$lcc8968 |    00054676  A$lcc8968
     00054677  A$lcc8968 |    00054678  A$lcc8968 |    0005467A  A$lcc8968
     0005467C  A$lcc8968 |    0005467E  A$lcc8968 |    0005467F  A$lcc8968
     00054680  A$lcc8968 |    00054681  A$lcc8968 |    00054682  A$lcc8968
     00054684  A$lcc8968 |    00054685  A$lcc8968 |    00054686  A$lcc8968
     00054687  A$lcc8968 |    00054689  A$lcc8968 |    0005468B  A$lcc8968
     0005468C  A$lcc8968 |    0005468D  A$lcc8968 |    0005468E  A$lcc8968
     00054690  A$lcc8968 |    00054690  C$level1. |    00054692  A$lcc8968
     00054693  A$lcc8968 |    00054694  A$lcc8968 |    00054695  A$lcc8968
     00054696  A$lcc8968 |    00054697  A$lcc8968 |    00054698  A$lcc8968
     00054699  A$lcc8968 |    0005469A  A$lcc8968 |    0005469B  A$lcc8968
     0005469E  A$lcc8968 |    0005469F  A$lcc8968 |    000546A0  A$lcc8968
     000546A1  A$lcc8968 |    000546A2  A$lcc8968 |    000546A3  A$lcc8968
     000546A4  A$lcc8968 |    000546A5  A$lcc8968 |    000546A7  A$lcc8968
     000546A8  A$lcc8968 |    000546A9  A$lcc8968 |    000546AA  A$lcc8968
     000546AB  A$lcc8968 |    000546AC  A$lcc8968 |    000546AD  A$lcc8968
     000546AD  C$level1. |    000546AF  A$lcc8968 |    000546B0  A$lcc8968
     000546B1  A$lcc8968 |    000546B2  A$lcc8968 |    000546B3  A$lcc8968
     000546B4  A$lcc8968 |    000546B6  A$lcc8968 |    000546B7  A$lcc8968
     000546B8  A$lcc8968 |    000546B9  A$lcc8968 |    000546BA  A$lcc8968
     000546BD  A$lcc8968 |    000546BD  C$level1. |    000546BF  A$lcc8968
     000546C0  A$lcc8968 |    000546C2  A$lcc8968 |    000546C5  A$lcc8968
     000546C5  C$level1. |    000546C6  A$lcc8968 |    000546C7  A$lcc8968
     000546C8  A$lcc8968 |    000546CA  A$lcc8968 |    000546CB  A$lcc8968
     000546CC  A$lcc8968 |    000546CD  A$lcc8968 |    000546CD  C$level1.
     000546CE  A$lcc8968 |    000546CF  A$lcc8968 |    000546D0  A$lcc8968
     000546D1  A$lcc8968 |    000546D3  A$lcc8968 |    000546D5  A$lcc8968
     000546D7  A$lcc8968 |    000546D9  A$lcc8968 |    000546DB  A$lcc8968
     000546DD  A$lcc8968 |    000546DF  A$lcc8968 |    000546E1  A$lcc8968
     000546E1  C$level1. |    000546E2  A$lcc8968 |    000546E4  A$lcc8968
     000546E5  A$lcc8968 |    000546E6  A$lcc8968 |    000546E7  A$lcc8968
ASxxxx Linker V03.00 + NoICE + sdld,  page 106.
Hexadecimal  [32-Bits]

Area                       Addr        Size        Decimal Bytes (Attributes)
--------------------       ----        ----        ------- ----- ------------
_CODE_5                00054000    000017D9 =        6105. bytes (REL,CON)

        Value  Global            Value  Global            Value  Global    
        -----  ------            -----  ------            -----  ------    
     000546E8  A$lcc8968 |    000546EA  A$lcc8968 |    000546EC  A$lcc8968
     000546ED  A$lcc8968 |    000546EF  A$lcc8968 |    000546F1  A$lcc8968
     000546F2  A$lcc8968 |    000546F4  A$lcc8968 |    000546F5  A$lcc8968
     000546F7  A$lcc8968 |    000546F9  A$lcc8968 |    000546FB  A$lcc8968
     000546FD  A$lcc8968 |    000546FE  A$lcc8968 |    00054700  A$lcc8968
     00054702  A$lcc8968 |    00054704  A$lcc8968 |    00054705  A$lcc8968
     00054707  A$lcc8968 |    00054707  C$level1. |    00054709  A$lcc8968
     0005470A  A$lcc8968 |    0005470B  A$lcc8968 |    0005470C  A$lcc8968
     0005470D  A$lcc8968 |    0005470F  A$lcc8968 |    00054710  A$lcc8968
     00054711  A$lcc8968 |    00054712  A$lcc8968 |    00054713  A$lcc8968
     00054714  A$lcc8968 |    00054715  A$lcc8968 |    00054716  A$lcc8968
     00054718  A$lcc8968 |    00054719  A$lcc8968 |    0005471A  A$lcc8968
     0005471B  A$lcc8968 |    0005471C  A$lcc8968 |    0005471D  A$lcc8968
     0005471E  A$lcc8968 |    00054720  A$lcc8968 |    00054721  A$lcc8968
     00054722  A$lcc8968 |    00054723  A$lcc8968 |    00054725  A$lcc8968
     00054726  A$lcc8968 |    00054727  A$lcc8968 |    00054728  A$lcc8968
     00054729  A$lcc8968 |    0005472A  A$lcc8968 |    0005472B  A$lcc8968
     0005472C  A$lcc8968 |    0005472D  A$lcc8968 |    0005472D  C$level1.
     0005472E  A$lcc8968 |    00054730  A$lcc8968 |    00054732  A$lcc8968
     00054733  A$lcc8968 |    00054735  A$lcc8968 |    00054736  A$lcc8968
     00054738  A$lcc8968 |    0005473A  A$lcc8968 |    0005473C  A$lcc8968
     0005473E  A$lcc8968 |    0005473F  A$lcc8968 |    00054741  A$lcc8968
     00054743  A$lcc8968 |    00054745  A$lcc8968 |    00054746  A$lcc8968
     00054748  A$lcc8968 |    00054748  C$level1. |    0005474A  A$lcc8968
     0005474B  A$lcc8968 |    0005474C  A$lcc8968 |    0005474D  A$lcc8968
     0005474F  A$lcc8968 |    0005474F  C$level1. |    00054751  A$lcc8968
     00054752  A$lcc8968 |    00054754  A$lcc8968 |    00054755  A$lcc8968
     00054756  A$lcc8968 |    00054756  C$level1. |    00054758  A$lcc8968
     00054759  A$lcc8968 |    0005475A  A$lcc8968 |    0005475B  A$lcc8968
     0005475C  A$lcc8968 |    0005475D  A$lcc8968 |    0005475F  A$lcc8968
     00054760  A$lcc8968 |    00054761  A$lcc8968 |    00054762  A$lcc8968
     00054763  A$lcc8968 |    00054764  A$lcc8968 |    00054765  A$lcc8968
     00054766  A$lcc8968 |    00054767  A$lcc8968 |    00054768  A$lcc8968
     00054769  A$lcc8968 |    0005476A  A$lcc8968 |    0005476B  A$lcc8968
     0005476D  A$lcc8968 |    0005476E  A$lcc8968 |    0005476F  A$lcc8968
     00054771  A$lcc8968 |    00054773  A$lcc8968 |    00054774  A$lcc8968
     00054775  A$lcc8968 |    00054776  A$lcc8968 |    00054776  C$level1.
     00054778  A$lcc8968 |    00054779  A$lcc8968 |    0005477C  A$lcc8968
     0005477C  C$level1. |    0005477E  A$lcc8968 |    0005477F  A$lcc8968
     00054781  A$lcc8968 |    00054782  A$lcc8968 |    00054784  A$lcc8968
     00054785  A$lcc8968 |    00054787  A$lcc8968 |    00054788  A$lcc8968
     0005478A  A$lcc8968 |    0005478C  A$lcc8968 |    0005478D  A$lcc8968
     0005478E  A$lcc8968 |    00054791  A$lcc8968 |    00054791  C$level1.
     00054792  A$lcc8968 |    00054793  A$lcc8968 |    00054794  A$lcc8968
     00054795  A$lcc8968 |    00054796  A$lcc8968 |    00054799  A$lcc8968
     0005479A  A$lcc8968 |    0005479B  A$lcc8968 |    0005479C  A$lcc8968
     0005479E  A$lcc8968 |    0005479F  A$lcc8968 |    000547A0  A$lcc8968
     000547A1  A$lcc8968 |    000547A3  A$lcc8968 |    000547A4  A$lcc8968
     000547A5  A$lcc8968 |    000547A6  A$lcc8968 |    000547A7  A$lcc8968
     000547A8  A$lcc8968 |    000547A9  A$lcc8968 |    000547AC  A$lcc8968
     000547AC  C$level1. |    000547AE  A$lcc8968 |    000547AF  A$lcc8968
ASxxxx Linker V03.00 + NoICE + sdld,  page 107.
Hexadecimal  [32-Bits]

Area                       Addr        Size        Decimal Bytes (Attributes)
--------------------       ----        ----        ------- ----- ------------
_CODE_5                00054000    000017D9 =        6105. bytes (REL,CON)

        Value  Global            Value  Global            Value  Global    
        -----  ------            -----  ------            -----  ------    
     000547B0  A$lcc8968 |    000547B1  A$lcc8968 |    000547B2  A$lcc8968
     000547B3  A$lcc8968 |    000547B4  A$lcc8968 |    000547B5  A$lcc8968
     000547B6  A$lcc8968 |    000547B8  A$lcc8968 |    000547BA  A$lcc8968
     000547BC  A$lcc8968 |    000547BE  A$lcc8968 |    000547C0  A$lcc8968
     000547C2  A$lcc8968 |    000547C4  A$lcc8968 |    000547C6  A$lcc8968
     000547C6  C$level1. |    000547C8  A$lcc8968 |    000547CA  A$lcc8968
     000547CB  A$lcc8968 |    000547CD  A$lcc8968 |    000547CF  A$lcc8968
     000547D0  A$lcc8968 |    000547D2  A$lcc8968 |    000547D3  A$lcc8968
     000547D5  A$lcc8968 |    000547D7  A$lcc8968 |    000547D9  A$lcc8968
     000547DB  A$lcc8968 |    000547DC  A$lcc8968 |    000547DE  A$lcc8968
     000547E0  A$lcc8968 |    000547E2  A$lcc8968 |    000547E3  A$lcc8968
     000547E5  A$lcc8968 |    000547E5  C$level1. |    000547E7  A$lcc8968
     000547E8  A$lcc8968 |    000547E9  A$lcc8968 |    000547EA  A$lcc8968
     000547ED  A$lcc8968 |    000547EE  A$lcc8968 |    000547F0  A$lcc8968
     000547F0  C$level1. |    000547F2  A$lcc8968 |    000547F3  A$lcc8968
     000547F4  A$lcc8968 |    000547F5  A$lcc8968 |    000547F7  A$lcc8968
     000547F7  C$level1. |    000547F9  A$lcc8968 |    000547FA  A$lcc8968
     000547FB  A$lcc8968 |    000547FD  A$lcc8968 |    00054800  A$lcc8968
     00054801  A$lcc8968 |    00054802  A$lcc8968 |    00054803  A$lcc8968
     00054805  A$lcc8968 |    00054806  A$lcc8968 |    00054807  A$lcc8968
     00054808  A$lcc8968 |    00054809  A$lcc8968 |    0005480B  A$lcc8968
     0005480B  C$level1. |    0005480D  A$lcc8968 |    0005480E  A$lcc8968
     0005480F  A$lcc8968 |    00054810  A$lcc8968 |    00054811  A$lcc8968
     00054812  A$lcc8968 |    00054813  A$lcc8968 |    00054814  A$lcc8968
     00054815  A$lcc8968 |    00054818  A$lcc8968 |    00054819  A$lcc8968
     0005481A  A$lcc8968 |    0005481B  A$lcc8968 |    0005481C  A$lcc8968
     0005481D  A$lcc8968 |    0005481E  A$lcc8968 |    0005481F  A$lcc8968
     00054820  A$lcc8968 |    00054821  A$lcc8968 |    00054823  A$lcc8968
     00054824  A$lcc8968 |    00054825  A$lcc8968 |    00054826  A$lcc8968
     00054827  A$lcc8968 |    00054828  A$lcc8968 |    00054829  A$lcc8968
     0005482B  A$lcc8968 |    0005482C  A$lcc8968 |    0005482D  A$lcc8968
     0005482E  A$lcc8968 |    00054831  A$lcc8968 |    00054832  A$lcc8968
     00054833  A$lcc8968 |    00054834  A$lcc8968 |    00054835  A$lcc8968
     00054836  A$lcc8968 |    00054836  C$level1. |    00054838  A$lcc8968
     00054839  A$lcc8968 |    0005483A  A$lcc8968 |    0005483B  A$lcc8968
     0005483E  A$lcc8968 |    0005483F  A$lcc8968 |    00054840  A$lcc8968
     00054841  A$lcc8968 |    00054843  A$lcc8968 |    00054844  A$lcc8968
     00054845  A$lcc8968 |    00054846  A$lcc8968 |    00054848  A$lcc8968
     00054849  A$lcc8968 |    00054849  C$level1. |    0005484A  A$lcc8968
     0005484B  A$lcc8968 |    0005484D  A$lcc8968 |    0005484D  C$level1.
     0005484F  A$lcc8968 |    00054850  A$lcc8968 |    00054851  A$lcc8968
     00054852  A$lcc8968 |    00054853  A$lcc8968 |    00054854  A$lcc8968
     00054855  A$lcc8968 |    00054856  A$lcc8968 |    00054857  A$lcc8968
     00054859  A$lcc8968 |    0005485A  A$lcc8968 |    0005485B  A$lcc8968
     0005485C  A$lcc8968 |    0005485D  A$lcc8968 |    0005485E  A$lcc8968
     0005485F  A$lcc8968 |    00054860  A$lcc8968 |    00054861  A$lcc8968
     00054862  A$lcc8968 |    00054863  A$lcc8968 |    00054864  A$lcc8968
     00054865  A$lcc8968 |    00054866  A$lcc8968 |    00054867  A$lcc8968
     00054869  A$lcc8968 |    0005486A  A$lcc8968 |    0005486B  A$lcc8968
     0005486C  A$lcc8968 |    0005486D  A$lcc8968 |    0005486E  A$lcc8968
     0005486F  A$lcc8968 |    00054871  A$lcc8968 |    00054871  C$level1.
ASxxxx Linker V03.00 + NoICE + sdld,  page 108.
Hexadecimal  [32-Bits]

Area                       Addr        Size        Decimal Bytes (Attributes)
--------------------       ----        ----        ------- ----- ------------
_CODE_5                00054000    000017D9 =        6105. bytes (REL,CON)

        Value  Global            Value  Global            Value  Global    
        -----  ------            -----  ------            -----  ------    
     00054872  A$lcc8968 |    00054874  A$lcc8968 |    00054874  C$level1.
     00054876  A$lcc8968 |    00054877  A$lcc8968 |    00054878  A$lcc8968
     00054879  A$lcc8968 |    0005487A  A$lcc8968 |    0005487B  A$lcc8968
     0005487C  A$lcc8968 |    0005487D  A$lcc8968 |    0005487E  A$lcc8968
     00054880  A$lcc8968 |    00054881  A$lcc8968 |    00054882  A$lcc8968
     00054883  A$lcc8968 |    00054884  A$lcc8968 |    00054885  A$lcc8968
     00054886  A$lcc8968 |    00054887  A$lcc8968 |    00054888  A$lcc8968
     00054889  A$lcc8968 |    0005488A  A$lcc8968 |    0005488B  A$lcc8968
     0005488D  A$lcc8968 |    0005488E  A$lcc8968 |    0005488F  A$lcc8968
     00054890  A$lcc8968 |    00054891  A$lcc8968 |    00054892  A$lcc8968
     00054893  A$lcc8968 |    00054893  C$level1. |    00054895  A$lcc8968
     00054896  A$lcc8968 |    00054897  A$lcc8968 |    00054898  A$lcc8968
     0005489B  A$lcc8968 |    0005489C  A$lcc8968 |    0005489D  A$lcc8968
     0005489E  A$lcc8968 |    000548A0  A$lcc8968 |    000548A1  A$lcc8968
     000548A2  A$lcc8968 |    000548A3  A$lcc8968 |    000548A5  A$lcc8968
     000548A5  C$level1. |    000548A6  A$lcc8968 |    000548A7  A$lcc8968
     000548AA  A$lcc8968 |    000548AA  C$level1. |    000548AD  A$lcc8968
     000548AE  A$lcc8968 |    000548AF  A$lcc8968 |    000548B1  A$lcc8968
     000548B1  C$level1. |    000548B2  A$lcc8968 |    000548B4  A$lcc8968
     000548B4  C$level1. |    000548B4  XG$anim_l |    000548B5  G$level1$
     000548B5  _level1   |    000548C2  G$level1_ |    000548C2  _level1_a
     00054ADE  G$level1_ |    00054ADE  _level1_b |    00054B4A  A$lcc8968
     00054B4A  C$level1. |    00054B4A  G$spawn_b |    00054B4A  _spawn_bu
     00054B4C  A$lcc8968 |    00054B4C  C$level1. |    00054B4F  A$lcc8968
     00054B52  A$lcc8968 |    00054B54  A$lcc8968 |    00054B55  A$lcc8968
     00054B57  A$lcc8968 |    00054B58  A$lcc8968 |    00054B59  A$lcc8968
     00054B5A  A$lcc8968 |    00054B5C  A$lcc8968 |    00054B5D  A$lcc8968
     00054B5E  A$lcc8968 |    00054B61  A$lcc8968 |    00054B61  C$level1.
     00054B62  A$lcc8968 |    00054B63  A$lcc8968 |    00054B64  A$lcc8968
     00054B65  A$lcc8968 |    00054B68  A$lcc8968 |    00054B69  A$lcc8968
     00054B6A  A$lcc8968 |    00054B6B  A$lcc8968 |    00054B6C  A$lcc8968
     00054B6D  A$lcc8968 |    00054B6F  A$lcc8968 |    00054B6F  C$level1.
     00054B71  A$lcc8968 |    00054B72  A$lcc8968 |    00054B73  A$lcc8968
     00054B74  A$lcc8968 |    00054B77  A$lcc8968 |    00054B78  A$lcc8968
     00054B79  A$lcc8968 |    00054B7A  A$lcc8968 |    00054B7C  A$lcc8968
     00054B7D  A$lcc8968 |    00054B7E  A$lcc8968 |    00054B7F  A$lcc8968
     00054B81  A$lcc8968 |    00054B82  A$lcc8968 |    00054B83  A$lcc8968
     00054B84  A$lcc8968 |    00054B85  A$lcc8968 |    00054B88  A$lcc8968
     00054B88  C$level1. |    00054B8B  A$lcc8968 |    00054B8C  A$lcc8968
     00054B8F  A$lcc8968 |    00054B8F  C$level1. |    00054B91  A$lcc8968
     00054B92  A$lcc8968 |    00054B92  C$level1. |    00054B95  A$lcc8968
     00054B96  A$lcc8968 |    00054B98  A$lcc8968 |    00054B9B  A$lcc8968
     00054B9C  A$lcc8968 |    00054B9C  C$level1. |    00054B9C  C$level1.
     00054B9F  A$lcc8968 |    00054BA0  A$lcc8968 |    00054BA1  A$lcc8968
     00054BA2  A$lcc8968 |    00054BA4  A$lcc8968 |    00054BA5  A$lcc8968
     00054BA6  A$lcc8968 |    00054BA7  A$lcc8968 |    00054BA9  A$lcc8968
     00054BAA  A$lcc8968 |    00054BAA  C$level1. |    00054BAB  A$lcc8968
     00054BAC  A$lcc8968 |    00054BAE  A$lcc8968 |    00054BAE  C$level1.
     00054BB1  A$lcc8968 |    00054BB2  A$lcc8968 |    00054BB4  A$lcc8968
     00054BB7  A$lcc8968 |    00054BB9  A$lcc8968 |    00054BBB  A$lcc8968
     00054BBB  C$level1. |    00054BBE  A$lcc8968 |    00054BC0  A$lcc8968
ASxxxx Linker V03.00 + NoICE + sdld,  page 109.
Hexadecimal  [32-Bits]

Area                       Addr        Size        Decimal Bytes (Attributes)
--------------------       ----        ----        ------- ----- ------------
_CODE_5                00054000    000017D9 =        6105. bytes (REL,CON)

        Value  Global            Value  Global            Value  Global    
        -----  ------            -----  ------            -----  ------    
     00054BC0  C$level1. |    00054BC2  A$lcc8968 |    00054BC3  A$lcc8968
     00054BC4  A$lcc8968 |    00054BC5  A$lcc8968 |    00054BC7  A$lcc8968
     00054BC7  C$level1. |    00054BCA  A$lcc8968 |    00054BCB  A$lcc8968
     00054BCC  A$lcc8968 |    00054BCE  A$lcc8968 |    00054BCF  A$lcc8968
     00054BD0  A$lcc8968 |    00054BD2  A$lcc8968 |    00054BD3  A$lcc8968
     00054BD4  A$lcc8968 |    00054BD5  A$lcc8968 |    00054BD6  A$lcc8968
     00054BD7  A$lcc8968 |    00054BD8  A$lcc8968 |    00054BDA  A$lcc8968
     00054BDA  C$level1. |    00054BDD  A$lcc8968 |    00054BDE  A$lcc8968
     00054BE0  A$lcc8968 |    00054BE3  A$lcc8968 |    00054BE5  A$lcc8968
     00054BE7  A$lcc8968 |    00054BE7  C$level1. |    00054BEA  A$lcc8968
     00054BEC  A$lcc8968 |    00054BEC  C$level1. |    00054BEE  A$lcc8968
     00054BEF  A$lcc8968 |    00054BF0  A$lcc8968 |    00054BF1  A$lcc8968
     00054BF3  A$lcc8968 |    00054BF3  C$level1. |    00054BF6  A$lcc8968
     00054BF7  A$lcc8968 |    00054BF8  A$lcc8968 |    00054BFA  A$lcc8968
     00054BFB  A$lcc8968 |    00054BFC  A$lcc8968 |    00054BFE  A$lcc8968
     00054BFF  A$lcc8968 |    00054C00  A$lcc8968 |    00054C01  A$lcc8968
     00054C02  A$lcc8968 |    00054C03  A$lcc8968 |    00054C04  A$lcc8968
     00054C04  C$level1. |    00054C05  A$lcc8968 |    00054C06  A$lcc8968
     00054C07  A$lcc8968 |    00054C08  A$lcc8968 |    00054C09  A$lcc8968
     00054C0C  A$lcc8968 |    00054C0D  A$lcc8968 |    00054C0E  A$lcc8968
     00054C0F  A$lcc8968 |    00054C0F  C$level1. |    00054C12  A$lcc8968
     00054C13  A$lcc8968 |    00054C15  A$lcc8968 |    00054C15  C$level1.
     00054C18  A$lcc8968 |    00054C19  A$lcc8968 |    00054C1A  A$lcc8968
     00054C1B  A$lcc8968 |    00054C1C  A$lcc8968 |    00054C1D  A$lcc8968
     00054C1E  A$lcc8968 |    00054C1F  A$lcc8968 |    00054C20  A$lcc8968
     00054C22  A$lcc8968 |    00054C22  C$level1. |    00054C25  A$lcc8968
     00054C26  A$lcc8968 |    00054C27  A$lcc8968 |    00054C28  A$lcc8968
     00054C29  A$lcc8968 |    00054C2A  A$lcc8968 |    00054C2C  A$lcc8968
     00054C2D  A$lcc8968 |    00054C2E  A$lcc8968 |    00054C2E  C$level1.
     00054C31  A$lcc8968 |    00054C32  A$lcc8968 |    00054C34  A$lcc8968
     00054C34  C$level1. |    00054C35  A$lcc8968 |    00054C36  A$lcc8968
     00054C38  A$lcc8968 |    00054C39  A$lcc8968 |    00054C3A  A$lcc8968
     00054C3B  A$lcc8968 |    00054C3C  A$lcc8968 |    00054C3D  A$lcc8968
     00054C3F  A$lcc8968 |    00054C3F  C$level1. |    00054C42  A$lcc8968
     00054C43  A$lcc8968 |    00054C45  A$lcc8968 |    00054C45  C$level1.
     00054C48  A$lcc8968 |    00054C49  A$lcc8968 |    00054C4B  A$lcc8968
     00054C4D  A$lcc8968 |    00054C4D  C$level1. |    00054C4E  A$lcc8968
     00054C50  A$lcc8968 |    00054C51  A$lcc8968 |    00054C52  A$lcc8968
     00054C54  A$lcc8968 |    00054C55  A$lcc8968 |    00054C56  A$lcc8968
     00054C57  A$lcc8968 |    00054C58  A$lcc8968 |    00054C59  A$lcc8968
     00054C5A  A$lcc8968 |    00054C5C  A$lcc8968 |    00054C5C  C$level1.
     00054C5D  A$lcc8968 |    00054C5E  A$lcc8968 |    00054C60  A$lcc8968
     00054C61  A$lcc8968 |    00054C62  A$lcc8968 |    00054C63  A$lcc8968
     00054C64  A$lcc8968 |    00054C65  A$lcc8968 |    00054C67  A$lcc8968
     00054C67  C$level1. |    00054C68  A$lcc8968 |    00054C69  A$lcc8968
     00054C6A  A$lcc8968 |    00054C6B  A$lcc8968 |    00054C6C  A$lcc8968
     00054C6C  C$level1. |    00054C6F  A$lcc8968 |    00054C71  A$lcc8968
     00054C71  C$level1. |    00054C73  A$lcc8968 |    00054C73  C$level1.
     00054C75  A$lcc8968 |    00054C76  A$lcc8968 |    00054C79  A$lcc8968
     00054C7B  A$lcc8968 |    00054C7B  C$level1. |    00054C7B  XG$spawn_
     00054C7C  A$lcc8968 |    00054C7C  C$level1. |    00054C7C  G$npc_col
ASxxxx Linker V03.00 + NoICE + sdld,  page 110.
Hexadecimal  [32-Bits]

Area                       Addr        Size        Decimal Bytes (Attributes)
--------------------       ----        ----        ------- ----- ------------
_CODE_5                00054000    000017D9 =        6105. bytes (REL,CON)

        Value  Global            Value  Global            Value  Global    
        -----  ------            -----  ------            -----  ------    
     00054C7C  _npc_coll |    00054C7E  A$lcc8968 |    00054C7E  C$level1.
     00054C81  A$lcc8968 |    00054C82  A$lcc8968 |    00054C84  A$lcc8968
     00054C84  C$level1. |    00054C87  A$lcc8968 |    00054C89  A$lcc8968
     00054C89  C$level1. |    00054C8C  A$lcc8968 |    00054C8E  A$lcc8968
     00054C8E  C$level1. |    00054C91  A$lcc8968 |    00054C93  A$lcc8968
     00054C95  A$lcc8968 |    00054C98  A$lcc8968 |    00054C99  A$lcc8968
     00054C9A  A$lcc8968 |    00054C9B  A$lcc8968 |    00054C9B  C$level1.
     00054C9E  A$lcc8968 |    00054C9E  C$level1. |    00054C9E  C$level1.
     00054C9E  C$level1. |    00054C9F  A$lcc8968 |    00054CA0  A$lcc8968
     00054CA2  A$lcc8968 |    00054CA2  C$level1. |    00054CA4  A$lcc8968
     00054CA5  A$lcc8968 |    00054CA5  C$level1. |    00054CA8  A$lcc8968
     00054CAA  A$lcc8968 |    00054CAA  C$level1. |    00054CAD  A$lcc8968
     00054CAF  A$lcc8968 |    00054CB1  A$lcc8968 |    00054CB1  C$level1.
     00054CB4  A$lcc8968 |    00054CB5  A$lcc8968 |    00054CB7  A$lcc8968
     00054CBA  A$lcc8968 |    00054CBB  A$lcc8968 |    00054CBD  A$lcc8968
     00054CBD  C$level1. |    00054CBF  A$lcc8968 |    00054CC0  A$lcc8968
     00054CC0  C$level1. |    00054CC3  A$lcc8968 |    00054CC5  A$lcc8968
     00054CC5  C$level1. |    00054CC8  A$lcc8968 |    00054CCA  A$lcc8968
     00054CCA  C$level1. |    00054CCC  A$lcc8968 |    00054CCE  A$lcc8968
     00054CD1  A$lcc8968 |    00054CD3  A$lcc8968 |    00054CD4  A$lcc8968
     00054CD7  A$lcc8968 |    00054CD7  C$level1. |    00054CD9  A$lcc8968
     00054CDA  A$lcc8968 |    00054CDC  A$lcc8968 |    00054CDD  A$lcc8968
     00054CDE  A$lcc8968 |    00054CDF  A$lcc8968 |    00054CE0  A$lcc8968
     00054CE1  A$lcc8968 |    00054CE2  A$lcc8968 |    00054CE3  A$lcc8968
     00054CE4  A$lcc8968 |    00054CE5  A$lcc8968 |    00054CE6  A$lcc8968
     00054CE7  A$lcc8968 |    00054CEA  A$lcc8968 |    00054CEB  A$lcc8968
     00054CEC  A$lcc8968 |    00054CED  A$lcc8968 |    00054CEE  A$lcc8968
     00054CEF  A$lcc8968 |    00054CF0  A$lcc8968 |    00054CF1  A$lcc8968
     00054CF2  A$lcc8968 |    00054CF3  A$lcc8968 |    00054CF4  A$lcc8968
     00054CF5  A$lcc8968 |    00054CF7  A$lcc8968 |    00054CF9  A$lcc8968
     00054CFB  A$lcc8968 |    00054CFD  A$lcc8968 |    00054CFF  A$lcc8968
     00054D01  A$lcc8968 |    00054D03  A$lcc8968 |    00054D05  A$lcc8968
     00054D07  A$lcc8968 |    00054D08  A$lcc8968 |    00054D08  C$level1.
     00054D09  A$lcc8968 |    00054D0A  A$lcc8968 |    00054D0B  A$lcc8968
     00054D0C  A$lcc8968 |    00054D0D  A$lcc8968 |    00054D0E  A$lcc8968
     00054D0F  A$lcc8968 |    00054D11  A$lcc8968 |    00054D13  A$lcc8968
     00054D15  A$lcc8968 |    00054D17  A$lcc8968 |    00054D19  A$lcc8968
     00054D1B  A$lcc8968 |    00054D1D  A$lcc8968 |    00054D1F  A$lcc8968
     00054D21  A$lcc8968 |    00054D22  A$lcc8968 |    00054D22  C$level1.
     00054D25  A$lcc8968 |    00054D26  A$lcc8968 |    00054D28  A$lcc8968
     00054D2B  A$lcc8968 |    00054D2C  A$lcc8968 |    00054D2D  A$lcc8968
     00054D2E  A$lcc8968 |    00054D2F  A$lcc8968 |    00054D30  A$lcc8968
     00054D31  A$lcc8968 |    00054D32  A$lcc8968 |    00054D33  A$lcc8968
     00054D34  A$lcc8968 |    00054D36  A$lcc8968 |    00054D37  A$lcc8968
     00054D38  A$lcc8968 |    00054D39  A$lcc8968 |    00054D39  C$level1.
     00054D3C  A$lcc8968 |    00054D3E  A$lcc8968 |    00054D3F  A$lcc8968
     00054D40  A$lcc8968 |    00054D41  A$lcc8968 |    00054D44  A$lcc8968
     00054D45  A$lcc8968 |    00054D46  A$lcc8968 |    00054D47  A$lcc8968
     00054D48  A$lcc8968 |    00054D49  A$lcc8968 |    00054D4A  A$lcc8968
     00054D4B  A$lcc8968 |    00054D4D  A$lcc8968 |    00054D4E  A$lcc8968
     00054D4F  A$lcc8968 |    00054D50  A$lcc8968 |    00054D51  A$lcc8968
ASxxxx Linker V03.00 + NoICE + sdld,  page 111.
Hexadecimal  [32-Bits]

Area                       Addr        Size        Decimal Bytes (Attributes)
--------------------       ----        ----        ------- ----- ------------
_CODE_5                00054000    000017D9 =        6105. bytes (REL,CON)

        Value  Global            Value  Global            Value  Global    
        -----  ------            -----  ------            -----  ------    
     00054D52  A$lcc8968 |    00054D53  A$lcc8968 |    00054D55  A$lcc8968
     00054D56  A$lcc8968 |    00054D57  A$lcc8968 |    00054D58  A$lcc8968
     00054D58  C$level1. |    00054D5B  A$lcc8968 |    00054D5C  A$lcc8968
     00054D5D  A$lcc8968 |    00054D5E  A$lcc8968 |    00054D5F  A$lcc8968
     00054D60  A$lcc8968 |    00054D61  A$lcc8968 |    00054D62  A$lcc8968
     00054D64  A$lcc8968 |    00054D65  A$lcc8968 |    00054D66  A$lcc8968
     00054D67  A$lcc8968 |    00054D67  C$level1. |    00054D69  A$lcc8968
     00054D6A  A$lcc8968 |    00054D6B  A$lcc8968 |    00054D6C  A$lcc8968
     00054D6D  A$lcc8968 |    00054D6E  A$lcc8968 |    00054D6F  A$lcc8968
     00054D70  A$lcc8968 |    00054D71  A$lcc8968 |    00054D72  A$lcc8968
     00054D73  A$lcc8968 |    00054D74  A$lcc8968 |    00054D75  A$lcc8968
     00054D76  A$lcc8968 |    00054D78  A$lcc8968 |    00054D79  A$lcc8968
     00054D7A  A$lcc8968 |    00054D7B  A$lcc8968 |    00054D7B  C$level1.
     00054D7D  A$lcc8968 |    00054D7E  A$lcc8968 |    00054D80  A$lcc8968
     00054D81  A$lcc8968 |    00054D83  A$lcc8968 |    00054D84  A$lcc8968
     00054D85  A$lcc8968 |    00054D88  A$lcc8968 |    00054D89  A$lcc8968
     00054D8A  A$lcc8968 |    00054D8B  A$lcc8968 |    00054D8C  A$lcc8968
     00054D8E  A$lcc8968 |    00054D8F  A$lcc8968 |    00054D90  A$lcc8968
     00054D91  A$lcc8968 |    00054D92  A$lcc8968 |    00054D93  A$lcc8968
     00054D94  A$lcc8968 |    00054D95  A$lcc8968 |    00054D96  A$lcc8968
     00054D97  A$lcc8968 |    00054D98  A$lcc8968 |    00054D99  A$lcc8968
     00054D9A  A$lcc8968 |    00054D9B  A$lcc8968 |    00054D9C  A$lcc8968
     00054D9D  A$lcc8968 |    00054D9E  A$lcc8968 |    00054D9F  A$lcc8968
     00054DA0  A$lcc8968 |    00054DA1  A$lcc8968 |    00054DA3  A$lcc8968
     00054DA4  A$lcc8968 |    00054DA5  A$lcc8968 |    00054DA6  A$lcc8968
     00054DA6  C$level1. |    00054DA8  A$lcc8968 |    00054DA9  A$lcc8968
     00054DAB  A$lcc8968 |    00054DAC  A$lcc8968 |    00054DAD  A$lcc8968
     00054DB0  A$lcc8968 |    00054DB1  A$lcc8968 |    00054DB2  A$lcc8968
     00054DB3  A$lcc8968 |    00054DB4  A$lcc8968 |    00054DB6  A$lcc8968
     00054DB7  A$lcc8968 |    00054DB8  A$lcc8968 |    00054DB9  A$lcc8968
     00054DBA  A$lcc8968 |    00054DBB  A$lcc8968 |    00054DBC  A$lcc8968
     00054DBD  A$lcc8968 |    00054DBE  A$lcc8968 |    00054DBF  A$lcc8968
     00054DC0  A$lcc8968 |    00054DC2  A$lcc8968 |    00054DC3  A$lcc8968
     00054DC4  A$lcc8968 |    00054DC5  A$lcc8968 |    00054DC5  C$level1.
     00054DC7  A$lcc8968 |    00054DC8  A$lcc8968 |    00054DC9  A$lcc8968
     00054DCA  A$lcc8968 |    00054DCC  A$lcc8968 |    00054DCD  A$lcc8968
     00054DCE  A$lcc8968 |    00054DCF  A$lcc8968 |    00054DD0  A$lcc8968
     00054DD1  A$lcc8968 |    00054DD2  A$lcc8968 |    00054DD4  A$lcc8968
     00054DD5  A$lcc8968 |    00054DD6  A$lcc8968 |    00054DD7  A$lcc8968
     00054DD7  C$level1. |    00054DD9  A$lcc8968 |    00054DDA  A$lcc8968
     00054DDB  A$lcc8968 |    00054DDC  A$lcc8968 |    00054DDD  A$lcc8968
     00054DDE  A$lcc8968 |    00054DDF  A$lcc8968 |    00054DE0  A$lcc8968
     00054DE1  A$lcc8968 |    00054DE2  A$lcc8968 |    00054DE3  A$lcc8968
     00054DE4  A$lcc8968 |    00054DE5  A$lcc8968 |    00054DE5  C$level1.
     00054DE6  A$lcc8968 |    00054DE7  A$lcc8968 |    00054DEA  A$lcc8968
     00054DEB  A$lcc8968 |    00054DEC  A$lcc8968 |    00054DED  A$lcc8968
     00054DEE  A$lcc8968 |    00054DEF  A$lcc8968 |    00054DF2  A$lcc8968
     00054DF3  A$lcc8968 |    00054DF4  A$lcc8968 |    00054DF7  A$lcc8968
     00054DF8  A$lcc8968 |    00054DF9  A$lcc8968 |    00054DFA  A$lcc8968
     00054DFB  A$lcc8968 |    00054DFC  A$lcc8968 |    00054DFF  A$lcc8968
     00054DFF  C$level1. |    00054E01  A$lcc8968 |    00054E02  A$lcc8968
ASxxxx Linker V03.00 + NoICE + sdld,  page 112.
Hexadecimal  [32-Bits]

Area                       Addr        Size        Decimal Bytes (Attributes)
--------------------       ----        ----        ------- ----- ------------
_CODE_5                00054000    000017D9 =        6105. bytes (REL,CON)

        Value  Global            Value  Global            Value  Global    
        -----  ------            -----  ------            -----  ------    
     00054E03  A$lcc8968 |    00054E04  A$lcc8968 |    00054E05  A$lcc8968
     00054E07  A$lcc8968 |    00054E08  A$lcc8968 |    00054E09  A$lcc8968
     00054E0A  A$lcc8968 |    00054E0B  A$lcc8968 |    00054E0D  A$lcc8968
     00054E0E  A$lcc8968 |    00054E0F  A$lcc8968 |    00054E10  A$lcc8968
     00054E11  A$lcc8968 |    00054E13  A$lcc8968 |    00054E14  A$lcc8968
     00054E15  A$lcc8968 |    00054E16  A$lcc8968 |    00054E17  A$lcc8968
     00054E19  A$lcc8968 |    00054E1A  A$lcc8968 |    00054E1B  A$lcc8968
     00054E1C  A$lcc8968 |    00054E1D  A$lcc8968 |    00054E1F  A$lcc8968
     00054E20  A$lcc8968 |    00054E21  A$lcc8968 |    00054E22  A$lcc8968
     00054E23  A$lcc8968 |    00054E25  A$lcc8968 |    00054E26  A$lcc8968
     00054E27  A$lcc8968 |    00054E28  A$lcc8968 |    00054E29  A$lcc8968
     00054E2B  A$lcc8968 |    00054E2C  A$lcc8968 |    00054E2D  A$lcc8968
     00054E2E  A$lcc8968 |    00054E2F  A$lcc8968 |    00054E32  A$lcc8968
     00054E34  A$lcc8968 |    00054E35  A$lcc8968 |    00054E38  A$lcc8968
     00054E38  C$level1. |    00054E39  A$lcc8968 |    00054E3A  A$lcc8968
     00054E3D  A$lcc8968 |    00054E3E  A$lcc8968 |    00054E3F  A$lcc8968
     00054E40  A$lcc8968 |    00054E41  A$lcc8968 |    00054E43  A$lcc8968
     00054E45  A$lcc8968 |    00054E47  A$lcc8968 |    00054E48  A$lcc8968
     00054E49  A$lcc8968 |    00054E4B  A$lcc8968 |    00054E4B  C$level1.
     00054E4E  A$lcc8968 |    00054E50  A$lcc8968 |    00054E53  A$lcc8968
     00054E53  C$level1. |    00054E54  A$lcc8968 |    00054E57  A$lcc8968
     00054E57  C$level1. |    00054E5A  A$lcc8968 |    00054E5B  A$lcc8968
     00054E5E  A$lcc8968 |    00054E5E  C$level1. |    00054E60  A$lcc8968
     00054E61  A$lcc8968 |    00054E62  A$lcc8968 |    00054E63  A$lcc8968
     00054E64  A$lcc8968 |    00054E65  A$lcc8968 |    00054E67  A$lcc8968
     00054E68  A$lcc8968 |    00054E69  A$lcc8968 |    00054E6A  A$lcc8968
     00054E6B  A$lcc8968 |    00054E6C  A$lcc8968 |    00054E6E  A$lcc8968
     00054E70  A$lcc8968 |    00054E71  A$lcc8968 |    00054E72  A$lcc8968
     00054E73  A$lcc8968 |    00054E74  A$lcc8968 |    00054E75  A$lcc8968
     00054E77  A$lcc8968 |    00054E78  A$lcc8968 |    00054E79  A$lcc8968
     00054E7A  A$lcc8968 |    00054E7B  A$lcc8968 |    00054E7D  A$lcc8968
     00054E7D  C$level1. |    00054E80  A$lcc8968 |    00054E82  A$lcc8968
     00054E85  A$lcc8968 |    00054E85  C$level1. |    00054E87  A$lcc8968
     00054E88  A$lcc8968 |    00054E89  A$lcc8968 |    00054E8B  A$lcc8968
     00054E8C  A$lcc8968 |    00054E8D  A$lcc8968 |    00054E8E  A$lcc8968
     00054E8F  A$lcc8968 |    00054E90  A$lcc8968 |    00054E91  A$lcc8968
     00054E93  A$lcc8968 |    00054E95  A$lcc8968 |    00054E96  A$lcc8968
     00054E97  A$lcc8968 |    00054E99  A$lcc8968 |    00054E9A  A$lcc8968
     00054E9B  A$lcc8968 |    00054E9C  A$lcc8968 |    00054E9D  A$lcc8968
     00054E9E  A$lcc8968 |    00054E9F  A$lcc8968 |    00054EA1  A$lcc8968
     00054EA1  C$level1. |    00054EA4  A$lcc8968 |    00054EA6  A$lcc8968
     00054EA6  C$level1. |    00054EA9  A$lcc8968 |    00054EAB  A$lcc8968
     00054EAB  C$level1. |    00054EAD  A$lcc8968 |    00054EAE  A$lcc8968
     00054EB1  A$lcc8968 |    00054EB3  A$lcc8968 |    00054EB3  C$level1.
     00054EB5  A$lcc8968 |    00054EB6  A$lcc8968 |    00054EB7  A$lcc8968
     00054EB9  A$lcc8968 |    00054EBA  A$lcc8968 |    00054EBB  A$lcc8968
     00054EBC  A$lcc8968 |    00054EBD  A$lcc8968 |    00054EBE  A$lcc8968
     00054EBF  A$lcc8968 |    00054EC1  A$lcc8968 |    00054EC3  A$lcc8968
     00054EC4  A$lcc8968 |    00054EC5  A$lcc8968 |    00054EC7  A$lcc8968
     00054EC8  A$lcc8968 |    00054EC9  A$lcc8968 |    00054ECA  A$lcc8968
     00054ECB  A$lcc8968 |    00054ECC  A$lcc8968 |    00054ECD  A$lcc8968
ASxxxx Linker V03.00 + NoICE + sdld,  page 113.
Hexadecimal  [32-Bits]

Area                       Addr        Size        Decimal Bytes (Attributes)
--------------------       ----        ----        ------- ----- ------------
_CODE_5                00054000    000017D9 =        6105. bytes (REL,CON)

        Value  Global            Value  Global            Value  Global    
        -----  ------            -----  ------            -----  ------    
     00054ECF  A$lcc8968 |    00054ECF  C$level1. |    00054ED2  A$lcc8968
     00054ED4  A$lcc8968 |    00054ED6  A$lcc8968 |    00054ED6  C$level1.
     00054ED8  A$lcc8968 |    00054ED9  A$lcc8968 |    00054EDA  A$lcc8968
     00054EDB  A$lcc8968 |    00054EDC  A$lcc8968 |    00054EDE  A$lcc8968
     00054EDF  A$lcc8968 |    00054EE0  A$lcc8968 |    00054EE1  A$lcc8968
     00054EE2  A$lcc8968 |    00054EE4  A$lcc8968 |    00054EE5  A$lcc8968
     00054EE6  A$lcc8968 |    00054EE7  A$lcc8968 |    00054EE8  A$lcc8968
     00054EEA  A$lcc8968 |    00054EEB  A$lcc8968 |    00054EEC  A$lcc8968
     00054EED  A$lcc8968 |    00054EEE  A$lcc8968 |    00054EF0  A$lcc8968
     00054EF1  A$lcc8968 |    00054EF2  A$lcc8968 |    00054EF3  A$lcc8968
     00054EF4  A$lcc8968 |    00054EF6  A$lcc8968 |    00054EF7  A$lcc8968
     00054EF8  A$lcc8968 |    00054EF9  A$lcc8968 |    00054EFA  A$lcc8968
     00054EFC  A$lcc8968 |    00054EFD  A$lcc8968 |    00054EFE  A$lcc8968
     00054EFF  A$lcc8968 |    00054F00  A$lcc8968 |    00054F02  A$lcc8968
     00054F03  A$lcc8968 |    00054F04  A$lcc8968 |    00054F05  A$lcc8968
     00054F06  A$lcc8968 |    00054F09  A$lcc8968 |    00054F0B  A$lcc8968
     00054F0C  A$lcc8968 |    00054F0D  A$lcc8968 |    00054F0F  A$lcc8968
     00054F0F  C$level1. |    00054F12  A$lcc8968 |    00054F13  A$lcc8968
     00054F14  A$lcc8968 |    00054F16  A$lcc8968 |    00054F16  C$level1.
     00054F18  A$lcc8968 |    00054F18  C$level1. |    00054F1B  A$lcc8968
     00054F1C  A$lcc8968 |    00054F1F  A$lcc8968 |    00054F1F  C$level1.
     00054F22  A$lcc8968 |    00054F24  A$lcc8968 |    00054F25  A$lcc8968
     00054F28  A$lcc8968 |    00054F28  C$level1. |    00054F2A  A$lcc8968
     00054F2B  A$lcc8968 |    00054F2C  A$lcc8968 |    00054F2E  A$lcc8968
     00054F2F  A$lcc8968 |    00054F30  A$lcc8968 |    00054F31  A$lcc8968
     00054F32  A$lcc8968 |    00054F33  A$lcc8968 |    00054F34  A$lcc8968
     00054F36  A$lcc8968 |    00054F38  A$lcc8968 |    00054F39  A$lcc8968
     00054F3A  A$lcc8968 |    00054F3C  A$lcc8968 |    00054F3D  A$lcc8968
     00054F3E  A$lcc8968 |    00054F3F  A$lcc8968 |    00054F40  A$lcc8968
     00054F41  A$lcc8968 |    00054F42  A$lcc8968 |    00054F44  A$lcc8968
     00054F44  C$level1. |    00054F47  A$lcc8968 |    00054F49  A$lcc8968
     00054F49  C$level1. |    00054F4C  A$lcc8968 |    00054F4E  A$lcc8968
     00054F50  A$lcc8968 |    00054F50  C$level1. |    00054F53  A$lcc8968
     00054F54  A$lcc8968 |    00054F55  A$lcc8968 |    00054F56  A$lcc8968
     00054F56  C$level1. |    00054F59  A$lcc8968 |    00054F5A  A$lcc8968
     00054F5B  A$lcc8968 |    00054F5C  A$lcc8968 |    00054F5D  A$lcc8968
     00054F5E  A$lcc8968 |    00054F5F  A$lcc8968 |    00054F61  A$lcc8968
     00054F63  A$lcc8968 |    00054F64  A$lcc8968 |    00054F65  A$lcc8968
     00054F66  A$lcc8968 |    00054F67  A$lcc8968 |    00054F68  A$lcc8968
     00054F6A  A$lcc8968 |    00054F6C  A$lcc8968 |    00054F6E  A$lcc8968
     00054F6F  A$lcc8968 |    00054F70  A$lcc8968 |    00054F71  A$lcc8968
     00054F72  A$lcc8968 |    00054F73  A$lcc8968 |    00054F74  A$lcc8968
     00054F75  A$lcc8968 |    00054F76  A$lcc8968 |    00054F77  A$lcc8968
     00054F78  A$lcc8968 |    00054F7A  A$lcc8968 |    00054F7C  A$lcc8968
     00054F7E  A$lcc8968 |    00054F80  A$lcc8968 |    00054F82  A$lcc8968
     00054F84  A$lcc8968 |    00054F86  A$lcc8968 |    00054F88  A$lcc8968
     00054F8B  A$lcc8968 |    00054F8C  A$lcc8968 |    00054F8D  A$lcc8968
     00054F8E  A$lcc8968 |    00054F8E  C$level1. |    00054F91  A$lcc8968
     00054F92  A$lcc8968 |    00054F94  A$lcc8968 |    00054F94  C$level1.
     00054F97  A$lcc8968 |    00054F99  A$lcc8968 |    00054F99  C$level1.
     00054F9C  A$lcc8968 |    00054F9E  A$lcc8968 |    00054FA0  A$lcc8968
ASxxxx Linker V03.00 + NoICE + sdld,  page 114.
Hexadecimal  [32-Bits]

Area                       Addr        Size        Decimal Bytes (Attributes)
--------------------       ----        ----        ------- ----- ------------
_CODE_5                00054000    000017D9 =        6105. bytes (REL,CON)

        Value  Global            Value  Global            Value  Global    
        -----  ------            -----  ------            -----  ------    
     00054FA1  A$lcc8968 |    00054FA3  A$lcc8968 |    00054FA6  A$lcc8968
     00054FA7  A$lcc8968 |    00054FA9  A$lcc8968 |    00054FA9  C$level1.
     00054FAC  A$lcc8968 |    00054FAC  C$level1. |    00054FAF  A$lcc8968
     00054FB1  A$lcc8968 |    00054FB4  A$lcc8968 |    00054FB6  A$lcc8968
     00054FB9  A$lcc8968 |    00054FBB  A$lcc8968 |    00054FBB  C$level1.
     00054FBE  A$lcc8968 |    00054FC1  A$lcc8968 |    00054FC2  A$lcc8968
     00054FC4  A$lcc8968 |    00054FC6  A$lcc8968 |    00054FC9  A$lcc8968
     00054FCB  A$lcc8968 |    00054FCD  A$lcc8968 |    00054FCD  C$level1.
     00054FD0  A$lcc8968 |    00054FD0  C$level1. |    00054FD2  A$lcc8968
     00054FD3  A$lcc8968 |    00054FD6  A$lcc8968 |    00054FD8  A$lcc8968
     00054FD8  C$level1. |    00054FD8  XG$npc_co |    00054FD9  A$lcc8968
     00054FD9  C$level1. |    00054FD9  C$level1. |    00054FD9  G$init_su
     00054FD9  _init_sub |    00054FDB  A$lcc8968 |    00054FDD  A$lcc8968
     00054FDF  A$lcc8968 |    00054FDF  C$level1. |    00054FE2  A$lcc8968
     00054FE4  A$lcc8968 |    00054FE4  C$level1. |    00054FE7  A$lcc8968
     00054FE9  A$lcc8968 |    00054FE9  C$level1. |    00054FEC  A$lcc8968
     00054FED  A$lcc8968 |    00054FEE  A$lcc8968 |    00054FEF  A$lcc8968
     00054FEF  C$level1. |    00054FF2  A$lcc8968 |    00054FF4  A$lcc8968
     00054FF5  A$lcc8968 |    00054FF7  A$lcc8968 |    00054FF7  C$level1.
     00054FFA  A$lcc8968 |    00054FFC  A$lcc8968 |    00054FFD  A$lcc8968
     00054FFF  A$lcc8968 |    00054FFF  C$level1. |    00055002  A$lcc8968
     00055004  A$lcc8968 |    00055005  A$lcc8968 |    00055007  A$lcc8968
     00055007  C$level1. |    0005500A  A$lcc8968 |    0005500B  A$lcc8968
     0005500C  A$lcc8968 |    0005500D  A$lcc8968 |    0005500E  A$lcc8968
     0005500F  A$lcc8968 |    00055010  A$lcc8968 |    00055011  A$lcc8968
     00055012  A$lcc8968 |    00055013  A$lcc8968 |    00055016  A$lcc8968
     00055017  A$lcc8968 |    00055018  A$lcc8968 |    00055019  A$lcc8968
     00055019  C$level1. |    0005501C  A$lcc8968 |    0005501D  A$lcc8968
     0005501E  A$lcc8968 |    0005501F  A$lcc8968 |    0005501F  C$level1.
     00055022  A$lcc8968 |    00055023  A$lcc8968 |    00055024  A$lcc8968
     00055025  A$lcc8968 |    00055028  A$lcc8968 |    00055029  A$lcc8968
     0005502A  A$lcc8968 |    0005502B  A$lcc8968 |    0005502B  C$level1.
     0005502E  A$lcc8968 |    0005502F  A$lcc8968 |    00055030  A$lcc8968
     00055031  A$lcc8968 |    00055034  A$lcc8968 |    00055035  A$lcc8968
     00055036  A$lcc8968 |    00055037  A$lcc8968 |    00055037  C$level1.
     0005503A  A$lcc8968 |    0005503B  A$lcc8968 |    0005503C  A$lcc8968
     0005503D  A$lcc8968 |    0005503F  A$lcc8968 |    00055041  A$lcc8968
     00055043  A$lcc8968 |    00055045  A$lcc8968 |    00055047  A$lcc8968
     00055049  A$lcc8968 |    0005504B  A$lcc8968 |    0005504D  A$lcc8968
     0005504F  A$lcc8968 |    00055051  A$lcc8968 |    00055053  A$lcc8968
     00055055  A$lcc8968 |    00055057  A$lcc8968 |    00055059  A$lcc8968
     0005505C  A$lcc8968 |    0005505D  A$lcc8968 |    0005505D  C$level1.
     00055060  A$lcc8968 |    00055061  A$lcc8968 |    00055062  A$lcc8968
     00055063  A$lcc8968 |    00055065  A$lcc8968 |    00055067  A$lcc8968
     00055069  A$lcc8968 |    0005506B  A$lcc8968 |    0005506D  A$lcc8968
     0005506F  A$lcc8968 |    00055072  A$lcc8968 |    00055073  A$lcc8968
     00055073  C$level1. |    00055075  A$lcc8968 |    00055076  A$lcc8968
     00055077  A$lcc8968 |    0005507A  A$lcc8968 |    0005507B  A$lcc8968
     0005507E  A$lcc8968 |    0005507F  A$lcc8968 |    00055082  A$lcc8968
     00055084  A$lcc8968 |    00055084  C$level1. |    00055087  A$lcc8968
     00055089  A$lcc8968 |    0005508C  A$lcc8968 |    0005508E  A$lcc8968
ASxxxx Linker V03.00 + NoICE + sdld,  page 115.
Hexadecimal  [32-Bits]

Area                       Addr        Size        Decimal Bytes (Attributes)
--------------------       ----        ----        ------- ----- ------------
_CODE_5                00054000    000017D9 =        6105. bytes (REL,CON)

        Value  Global            Value  Global            Value  Global    
        -----  ------            -----  ------            -----  ------    
     0005508E  C$level1. |    00055091  A$lcc8968 |    00055092  A$lcc8968
     00055095  A$lcc8968 |    00055097  A$lcc8968 |    00055098  A$lcc8968
     00055099  A$lcc8968 |    0005509B  A$lcc8968 |    0005509C  A$lcc8968
     0005509D  A$lcc8968 |    000550A0  A$lcc8968 |    000550A1  A$lcc8968
     000550A3  A$lcc8968 |    000550A4  A$lcc8968 |    000550A5  A$lcc8968
     000550A7  A$lcc8968 |    000550A8  A$lcc8968 |    000550A9  A$lcc8968
     000550AA  A$lcc8968 |    000550AB  A$lcc8968 |    000550AE  A$lcc8968
     000550B0  A$lcc8968 |    000550B0  C$level1. |    000550B2  A$lcc8968
     000550B3  A$lcc8968 |    000550B4  A$lcc8968 |    000550B7  A$lcc8968
     000550B8  A$lcc8968 |    000550BB  A$lcc8968 |    000550BC  A$lcc8968
     000550BF  A$lcc8968 |    000550C1  A$lcc8968 |    000550C1  C$level1.
     000550C4  A$lcc8968 |    000550C5  A$lcc8968 |    000550C6  A$lcc8968
     000550C7  A$lcc8968 |    000550CA  A$lcc8968 |    000550CB  A$lcc8968
     000550CC  A$lcc8968 |    000550CD  A$lcc8968 |    000550CD  C$level1.
     000550D0  A$lcc8968 |    000550D1  A$lcc8968 |    000550D2  A$lcc8968
     000550D3  A$lcc8968 |    000550D6  A$lcc8968 |    000550D7  A$lcc8968
     000550D8  A$lcc8968 |    000550D9  A$lcc8968 |    000550D9  C$level1.
     000550DC  A$lcc8968 |    000550DE  A$lcc8968 |    000550DE  C$level1.
     000550E1  A$lcc8968 |    000550E3  A$lcc8968 |    000550E3  C$level1.
     000550E6  A$lcc8968 |    000550E8  A$lcc8968 |    000550E9  A$lcc8968
     000550EB  A$lcc8968 |    000550EB  C$level1. |    000550EE  A$lcc8968
     000550F0  A$lcc8968 |    000550F0  C$level1. |    000550F3  A$lcc8968
     000550F6  A$lcc8968 |    000550F6  C$level1. |    000550F9  A$lcc8968
     000550FC  A$lcc8968 |    000550FC  C$level1. |    000550FE  A$lcc8968
     00055100  A$lcc8968 |    00055102  A$lcc8968 |    00055102  C$level1.
     00055102  XG$init_s |    00055103  A$lcc8968 |    00055103  C$level1.
     00055103  C$level1. |    00055103  G$setup_l |    00055103  _setup_lv
     00055106  A$lcc8968 |    00055106  C$level1. |    00055109  A$lcc8968
     0005510B  A$lcc8968 |    0005510B  C$level1. |    0005510E  A$lcc8968
     00055110  A$lcc8968 |    00055113  A$lcc8968 |    00055115  A$lcc8968
     00055118  A$lcc8968 |    0005511A  A$lcc8968 |    0005511D  A$lcc8968
     0005511F  A$lcc8968 |    00055122  A$lcc8968 |    00055124  A$lcc8968
     00055127  A$lcc8968 |    00055129  A$lcc8968 |    0005512C  A$lcc8968
     0005512E  A$lcc8968 |    0005512E  C$level1. |    00055131  A$lcc8968
     00055133  A$lcc8968 |    00055136  A$lcc8968 |    00055138  A$lcc8968
     00055138  C$level1. |    0005513B  A$lcc8968 |    0005513C  A$lcc8968
     0005513F  A$lcc8968 |    00055140  A$lcc8968 |    00055140  C$level1.
     00055143  A$lcc8968 |    00055143  C$level1. |    00055145  A$lcc8968
     00055147  A$lcc8968 |    00055149  A$lcc8968 |    00055149  C$level1.
     00055149  XG$setup_ |    0005514A  A$lcc8968 |    0005514A  C$level1.
     0005514A  G$enter_l |    0005514A  _enter_lv |    0005514B  A$lcc8968
     0005514C  A$lcc8968 |    0005514C  C$level1. |    0005514F  A$lcc8968
     0005514F  C$level1. |    00055152  A$lcc8968 |    00055153  A$lcc8968
     00055156  A$lcc8968 |    00055156  C$level1. |    00055159  A$lcc8968
     0005515C  A$lcc8968 |    0005515C  C$level1. |    0005515F  A$lcc8968
     00055162  A$lcc8968 |    00055163  A$lcc8968 |    00055163  C$level1.
     00055166  A$lcc8968 |    00055167  A$lcc8968 |    0005516A  A$lcc8968
     0005516D  A$lcc8968 |    0005516D  C$level1. |    0005516E  A$lcc8968
     00055170  A$lcc8968 |    00055171  A$lcc8968 |    00055173  A$lcc8968
     00055174  A$lcc8968 |    00055174  C$level1. |    00055176  A$lcc8968
     00055179  A$lcc8968 |    00055179  C$level1. |    0005517C  A$lcc8968
ASxxxx Linker V03.00 + NoICE + sdld,  page 116.
Hexadecimal  [32-Bits]

Area                       Addr        Size        Decimal Bytes (Attributes)
--------------------       ----        ----        ------- ----- ------------
_CODE_5                00054000    000017D9 =        6105. bytes (REL,CON)

        Value  Global            Value  Global            Value  Global    
        -----  ------            -----  ------            -----  ------    
     0005517D  A$lcc8968 |    0005517E  A$lcc8968 |    0005517F  A$lcc8968
     00055181  A$lcc8968 |    00055181  C$level1. |    00055182  A$lcc8968
     00055183  A$lcc8968 |    00055185  A$lcc8968 |    00055185  C$level1.
     00055188  A$lcc8968 |    0005518A  A$lcc8968 |    0005518A  C$level1.
     0005518D  A$lcc8968 |    0005518E  A$lcc8968 |    00055190  A$lcc8968
     00055191  A$lcc8968 |    00055192  A$lcc8968 |    00055194  A$lcc8968
     00055197  A$lcc8968 |    00055198  A$lcc8968 |    0005519A  A$lcc8968
     0005519D  A$lcc8968 |    0005519E  A$lcc8968 |    000551A0  A$lcc8968
     000551A0  C$level1. |    000551A3  A$lcc8968 |    000551A4  A$lcc8968
     000551A6  A$lcc8968 |    000551A9  A$lcc8968 |    000551AA  A$lcc8968
     000551AD  A$lcc8968 |    000551AE  A$lcc8968 |    000551AF  A$lcc8968
     000551B1  A$lcc8968 |    000551B3  A$lcc8968 |    000551B6  A$lcc8968
     000551B7  A$lcc8968 |    000551B9  A$lcc8968 |    000551BA  A$lcc8968
     000551BD  A$lcc8968 |    000551BE  A$lcc8968 |    000551BE  C$level1.
     000551C0  A$lcc8968 |    000551C3  A$lcc8968 |    000551C4  A$lcc8968
     000551C7  A$lcc8968 |    000551C8  A$lcc8968 |    000551C9  A$lcc8968
     000551CA  A$lcc8968 |    000551CC  A$lcc8968 |    000551CF  A$lcc8968
     000551D0  A$lcc8968 |    000551D1  A$lcc8968 |    000551D2  A$lcc8968
     000551D5  A$lcc8968 |    000551D6  A$lcc8968 |    000551D6  C$level1.
     000551D8  A$lcc8968 |    000551D8  C$level1. |    000551DB  A$lcc8968
     000551DC  A$lcc8968 |    000551DE  A$lcc8968 |    000551DE  C$level1.
     000551E1  A$lcc8968 |    000551E2  A$lcc8968 |    000551E4  A$lcc8968
     000551E7  A$lcc8968 |    000551E8  A$lcc8968 |    000551E9  A$lcc8968
     000551EB  A$lcc8968 |    000551ED  A$lcc8968 |    000551F0  A$lcc8968
     000551F1  A$lcc8968 |    000551F3  A$lcc8968 |    000551F4  A$lcc8968
     000551F7  A$lcc8968 |    000551F9  A$lcc8968 |    000551F9  C$level1.
     000551F9  C$level1. |    000551FC  A$lcc8968 |    000551FD  A$lcc8968
     000551FF  A$lcc8968 |    000551FF  C$level1. |    00055202  A$lcc8968
     00055203  A$lcc8968 |    00055204  A$lcc8968 |    00055205  A$lcc8968
     00055206  A$lcc8968 |    00055208  A$lcc8968 |    0005520A  A$lcc8968
     0005520B  A$lcc8968 |    0005520D  A$lcc8968 |    0005520E  A$lcc8968
     00055210  A$lcc8968 |    00055212  A$lcc8968 |    00055214  A$lcc8968
     00055216  A$lcc8968 |    00055217  A$lcc8968 |    00055219  A$lcc8968
     0005521B  A$lcc8968 |    0005521D  A$lcc8968 |    0005521E  A$lcc8968
     00055220  A$lcc8968 |    00055220  C$level1. |    00055221  A$lcc8968
     00055223  A$lcc8968 |    00055224  A$lcc8968 |    00055225  A$lcc8968
     00055227  A$lcc8968 |    00055228  A$lcc8968 |    0005522B  A$lcc8968
     0005522C  A$lcc8968 |    0005522D  A$lcc8968 |    0005522E  A$lcc8968
     00055231  A$lcc8968 |    00055231  C$level1. |    00055234  A$lcc8968
     00055236  A$lcc8968 |    00055237  A$lcc8968 |    00055239  A$lcc8968
     0005523C  A$lcc8968 |    0005523C  C$level1. |    0005523F  A$lcc8968
     00055240  A$lcc8968 |    00055243  A$lcc8968 |    00055246  A$lcc8968
     00055247  A$lcc8968 |    0005524A  A$lcc8968 |    0005524A  C$level1.
     0005524D  A$lcc8968 |    0005524E  A$lcc8968 |    0005524F  A$lcc8968
     00055250  A$lcc8968 |    00055251  A$lcc8968 |    00055253  A$lcc8968
     00055255  A$lcc8968 |    00055256  A$lcc8968 |    00055258  A$lcc8968
     00055259  A$lcc8968 |    0005525B  A$lcc8968 |    0005525D  A$lcc8968
     0005525F  A$lcc8968 |    00055261  A$lcc8968 |    00055262  A$lcc8968
     00055264  A$lcc8968 |    00055266  A$lcc8968 |    00055268  A$lcc8968
     00055269  A$lcc8968 |    0005526B  A$lcc8968 |    0005526B  C$level1.
     0005526C  A$lcc8968 |    0005526E  A$lcc8968 |    0005526F  A$lcc8968
ASxxxx Linker V03.00 + NoICE + sdld,  page 117.
Hexadecimal  [32-Bits]

Area                       Addr        Size        Decimal Bytes (Attributes)
--------------------       ----        ----        ------- ----- ------------
_CODE_5                00054000    000017D9 =        6105. bytes (REL,CON)

        Value  Global            Value  Global            Value  Global    
        -----  ------            -----  ------            -----  ------    
     00055270  A$lcc8968 |    00055272  A$lcc8968 |    00055273  A$lcc8968
     00055276  A$lcc8968 |    00055277  A$lcc8968 |    00055278  A$lcc8968
     00055279  A$lcc8968 |    0005527C  A$lcc8968 |    0005527C  C$level1.
     0005527F  A$lcc8968 |    00055281  A$lcc8968 |    00055282  A$lcc8968
     00055284  A$lcc8968 |    00055287  A$lcc8968 |    00055287  C$level1.
     00055288  A$lcc8968 |    0005528B  A$lcc8968 |    0005528B  C$level1.
     0005528E  A$lcc8968 |    0005528F  A$lcc8968 |    00055290  A$lcc8968
     00055291  A$lcc8968 |    00055293  A$lcc8968 |    00055293  C$level1.
     00055294  A$lcc8968 |    00055295  A$lcc8968 |    00055297  A$lcc8968
     00055297  C$level1. |    0005529A  A$lcc8968 |    0005529C  A$lcc8968
     0005529C  C$level1. |    0005529F  A$lcc8968 |    000552A0  A$lcc8968
     000552A2  A$lcc8968 |    000552A3  A$lcc8968 |    000552A4  A$lcc8968
     000552A6  A$lcc8968 |    000552A9  A$lcc8968 |    000552AA  A$lcc8968
     000552AC  A$lcc8968 |    000552AF  A$lcc8968 |    000552B0  A$lcc8968
     000552B2  A$lcc8968 |    000552B2  C$level1. |    000552B5  A$lcc8968
     000552B6  A$lcc8968 |    000552B8  A$lcc8968 |    000552BB  A$lcc8968
     000552BC  A$lcc8968 |    000552BF  A$lcc8968 |    000552C0  A$lcc8968
     000552C1  A$lcc8968 |    000552C3  A$lcc8968 |    000552C5  A$lcc8968
     000552C8  A$lcc8968 |    000552C9  A$lcc8968 |    000552CB  A$lcc8968
     000552CC  A$lcc8968 |    000552CF  A$lcc8968 |    000552D0  A$lcc8968
     000552D0  C$level1. |    000552D2  A$lcc8968 |    000552D5  A$lcc8968
     000552D6  A$lcc8968 |    000552D9  A$lcc8968 |    000552DA  A$lcc8968
     000552DB  A$lcc8968 |    000552DC  A$lcc8968 |    000552DE  A$lcc8968
     000552E1  A$lcc8968 |    000552E2  A$lcc8968 |    000552E4  A$lcc8968
     000552E5  A$lcc8968 |    000552E8  A$lcc8968 |    000552E9  A$lcc8968
     000552E9  C$level1. |    000552EB  A$lcc8968 |    000552EB  C$level1.
     000552EE  A$lcc8968 |    000552EF  A$lcc8968 |    000552F1  A$lcc8968
     000552F1  C$level1. |    000552F4  A$lcc8968 |    000552F5  A$lcc8968
     000552F7  A$lcc8968 |    000552FA  A$lcc8968 |    000552FB  A$lcc8968
     000552FC  A$lcc8968 |    000552FE  A$lcc8968 |    00055300  A$lcc8968
     00055303  A$lcc8968 |    00055304  A$lcc8968 |    00055306  A$lcc8968
     00055307  A$lcc8968 |    0005530A  A$lcc8968 |    0005530C  A$lcc8968
     0005530C  C$level1. |    0005530C  C$level1. |    0005530F  A$lcc8968
     00055310  A$lcc8968 |    00055312  A$lcc8968 |    00055312  C$level1.
     00055315  A$lcc8968 |    00055316  A$lcc8968 |    00055317  A$lcc8968
     00055318  A$lcc8968 |    00055319  A$lcc8968 |    0005531B  A$lcc8968
     0005531C  A$lcc8968 |    0005531D  A$lcc8968 |    0005531E  A$lcc8968
     0005531F  A$lcc8968 |    00055321  A$lcc8968 |    00055323  A$lcc8968
     00055323  C$level1. |    00055324  A$lcc8968 |    00055325  A$lcc8968
     00055326  A$lcc8968 |    00055327  A$lcc8968 |    0005532A  A$lcc8968
     0005532B  A$lcc8968 |    0005532C  A$lcc8968 |    0005532D  A$lcc8968
     0005532F  A$lcc8968 |    0005532F  C$level1. |    00055332  A$lcc8968
     00055334  A$lcc8968 |    00055335  A$lcc8968 |    00055337  A$lcc8968
     00055339  A$lcc8968 |    00055339  C$level1. |    0005533C  A$lcc8968
     0005533D  A$lcc8968 |    0005533F  A$lcc8968 |    00055342  A$lcc8968
     00055343  A$lcc8968 |    00055345  A$lcc8968 |    00055345  C$level1.
     00055348  A$lcc8968 |    00055349  A$lcc8968 |    0005534A  A$lcc8968
     0005534B  A$lcc8968 |    0005534C  A$lcc8968 |    0005534E  A$lcc8968
     0005534F  A$lcc8968 |    00055350  A$lcc8968 |    00055351  A$lcc8968
     00055352  A$lcc8968 |    00055354  A$lcc8968 |    00055356  A$lcc8968
     00055356  C$level1. |    00055357  A$lcc8968 |    00055358  A$lcc8968
ASxxxx Linker V03.00 + NoICE + sdld,  page 118.
Hexadecimal  [32-Bits]

Area                       Addr        Size        Decimal Bytes (Attributes)
--------------------       ----        ----        ------- ----- ------------
_CODE_5                00054000    000017D9 =        6105. bytes (REL,CON)

        Value  Global            Value  Global            Value  Global    
        -----  ------            -----  ------            -----  ------    
     00055359  A$lcc8968 |    0005535A  A$lcc8968 |    0005535D  A$lcc8968
     0005535E  A$lcc8968 |    0005535F  A$lcc8968 |    00055360  A$lcc8968
     00055362  A$lcc8968 |    00055362  C$level1. |    00055365  A$lcc8968
     00055367  A$lcc8968 |    00055368  A$lcc8968 |    0005536A  A$lcc8968
     0005536D  A$lcc8968 |    0005536E  A$lcc8968 |    0005536E  C$level1.
     00055370  A$lcc8968 |    00055372  A$lcc8968 |    00055375  A$lcc8968
     00055376  A$lcc8968 |    00055378  A$lcc8968 |    0005537B  A$lcc8968
     0005537C  A$lcc8968 |    0005537E  A$lcc8968 |    00055381  A$lcc8968
     00055382  A$lcc8968 |    00055384  A$lcc8968 |    00055384  C$level1.
     00055387  A$lcc8968 |    00055389  A$lcc8968 |    00055389  C$level1.
     0005538C  A$lcc8968 |    0005538F  A$lcc8968 |    00055390  A$lcc8968
     00055392  A$lcc8968 |    00055394  A$lcc8968 |    00055396  A$lcc8968
     00055398  A$lcc8968 |    0005539B  A$lcc8968 |    0005539C  A$lcc8968
     0005539E  A$lcc8968 |    000553A1  A$lcc8968 |    000553A2  A$lcc8968
     000553A4  A$lcc8968 |    000553A4  C$level1. |    000553A7  A$lcc8968
     000553A7  C$level1. |    000553AA  A$lcc8968 |    000553AD  A$lcc8968
     000553AE  A$lcc8968 |    000553B0  A$lcc8968 |    000553B2  A$lcc8968
     000553B5  A$lcc8968 |    000553B7  A$lcc8968 |    000553B9  A$lcc8968
     000553B9  C$level1. |    000553BC  A$lcc8968 |    000553BC  C$level1.
     000553BF  A$lcc8968 |    000553C0  A$lcc8968 |    000553C1  A$lcc8968
     000553C3  A$lcc8968 |    000553C3  C$level1. |    000553C6  A$lcc8968
     000553C8  A$lcc8968 |    000553CB  A$lcc8968 |    000553CD  A$lcc8968
     000553CD  C$level1. |    000553D0  A$lcc8968 |    000553D2  A$lcc8968
     000553D2  C$level1. |    000553D5  A$lcc8968 |    000553D6  A$lcc8968
     000553D8  A$lcc8968 |    000553D8  C$level1. |    000553DB  A$lcc8968
     000553DB  C$level1. |    000553DE  A$lcc8968 |    000553DF  A$lcc8968
     000553E1  A$lcc8968 |    000553E1  C$level1. |    000553E4  A$lcc8968
     000553E4  C$level1. |    000553E5  A$lcc8968 |    000553E6  A$lcc8968
     000553E8  A$lcc8968 |    000553E8  C$level1. |    000553EB  A$lcc8968
     000553ED  A$lcc8968 |    000553ED  C$level1. |    000553F0  A$lcc8968
     000553F2  A$lcc8968 |    000553F2  C$level1. |    000553F2  C$level1.
     000553F5  A$lcc8968 |    000553F6  A$lcc8968 |    000553F8  A$lcc8968
     000553FB  A$lcc8968 |    000553FC  A$lcc8968 |    000553FE  A$lcc8968
     000553FE  C$level1. |    00055401  A$lcc8968 |    00055403  A$lcc8968
     00055405  A$lcc8968 |    00055407  A$lcc8968 |    00055409  A$lcc8968
     00055409  C$level1. |    0005540C  A$lcc8968 |    0005540E  A$lcc8968
     0005540F  A$lcc8968 |    00055411  A$lcc8968 |    00055413  A$lcc8968
     00055413  C$level1. |    00055415  A$lcc8968 |    00055417  A$lcc8968
     00055419  A$lcc8968 |    0005541B  A$lcc8968 |    0005541B  C$level1.
     0005541E  A$lcc8968 |    00055420  A$lcc8968 |    00055421  A$lcc8968
     00055423  A$lcc8968 |    00055423  C$level1. |    00055426  A$lcc8968
     00055427  A$lcc8968 |    00055427  C$level1. |    00055428  A$lcc8968
     00055429  A$lcc8968 |    0005542B  A$lcc8968 |    0005542B  C$level1.
     0005542E  A$lcc8968 |    00055430  A$lcc8968 |    00055430  C$level1.
     00055433  A$lcc8968 |    00055435  A$lcc8968 |    00055438  A$lcc8968
     00055438  C$level1. |    0005543A  A$lcc8968 |    0005543C  A$lcc8968
     0005543D  A$lcc8968 |    0005543F  A$lcc8968 |    0005543F  C$level1.
     00055442  A$lcc8968 |    00055444  A$lcc8968 |    00055444  C$level1.
     00055447  A$lcc8968 |    00055448  A$lcc8968 |    0005544A  A$lcc8968
     0005544A  C$level1. |    0005544D  A$lcc8968 |    0005544E  A$lcc8968
     0005544F  A$lcc8968 |    00055450  A$lcc8968 |    00055450  C$level1.
ASxxxx Linker V03.00 + NoICE + sdld,  page 119.
Hexadecimal  [32-Bits]

Area                       Addr        Size        Decimal Bytes (Attributes)
--------------------       ----        ----        ------- ----- ------------
_CODE_5                00054000    000017D9 =        6105. bytes (REL,CON)

        Value  Global            Value  Global            Value  Global    
        -----  ------            -----  ------            -----  ------    
     00055453  A$lcc8968 |    00055454  A$lcc8968 |    00055455  A$lcc8968
     00055456  A$lcc8968 |    00055457  A$lcc8968 |    00055457  C$level1.
     0005545A  A$lcc8968 |    0005545B  A$lcc8968 |    0005545D  A$lcc8968
     0005545D  C$level1. |    0005545F  A$lcc8968 |    00055461  A$lcc8968
     00055461  C$level1. |    00055464  A$lcc8968 |    00055466  A$lcc8968
     00055467  A$lcc8968 |    00055468  A$lcc8968 |    00055469  A$lcc8968
     0005546A  A$lcc8968 |    0005546B  A$lcc8968 |    0005546D  A$lcc8968
     0005546D  C$level1. |    0005546E  A$lcc8968 |    0005546F  A$lcc8968
     00055470  A$lcc8968 |    00055471  A$lcc8968 |    00055472  A$lcc8968
     00055474  A$lcc8968 |    00055476  A$lcc8968 |    00055478  A$lcc8968
     0005547A  A$lcc8968 |    0005547B  A$lcc8968 |    0005547D  A$lcc8968
     0005547F  A$lcc8968 |    00055481  A$lcc8968 |    00055482  A$lcc8968
     00055484  A$lcc8968 |    00055484  C$level1. |    00055485  A$lcc8968
     00055487  A$lcc8968 |    00055488  A$lcc8968 |    00055489  A$lcc8968
     0005548B  A$lcc8968 |    0005548C  A$lcc8968 |    0005548F  A$lcc8968
     00055490  A$lcc8968 |    00055491  A$lcc8968 |    00055492  A$lcc8968
     00055494  A$lcc8968 |    00055494  C$level1. |    00055497  A$lcc8968
     00055499  A$lcc8968 |    0005549A  A$lcc8968 |    0005549B  A$lcc8968
     0005549C  A$lcc8968 |    0005549C  C$level1. |    0005549D  A$lcc8968
     0005549E  A$lcc8968 |    000554A0  A$lcc8968 |    000554A1  A$lcc8968
     000554A2  A$lcc8968 |    000554A4  A$lcc8968 |    000554A5  A$lcc8968
     000554A7  A$lcc8968 |    000554A8  A$lcc8968 |    000554AA  A$lcc8968
     000554AC  A$lcc8968 |    000554AE  A$lcc8968 |    000554B0  A$lcc8968
     000554B1  A$lcc8968 |    000554B3  A$lcc8968 |    000554B5  A$lcc8968
     000554B7  A$lcc8968 |    000554B8  A$lcc8968 |    000554BA  A$lcc8968
     000554BA  C$level1. |    000554BD  A$lcc8968 |    000554BF  A$lcc8968
     000554C0  A$lcc8968 |    000554C2  A$lcc8968 |    000554C2  C$level1.
     000554C5  A$lcc8968 |    000554C6  A$lcc8968 |    000554C7  A$lcc8968
     000554C8  A$lcc8968 |    000554CA  A$lcc8968 |    000554CC  A$lcc8968
     000554CE  A$lcc8968 |    000554D0  A$lcc8968 |    000554D2  A$lcc8968
     000554D4  A$lcc8968 |    000554D6  A$lcc8968 |    000554D8  A$lcc8968
     000554DB  A$lcc8968 |    000554DC  A$lcc8968 |    000554DC  C$level1.
     000554DF  A$lcc8968 |    000554E0  A$lcc8968 |    000554E1  A$lcc8968
     000554E2  A$lcc8968 |    000554E4  A$lcc8968 |    000554E6  A$lcc8968
     000554E8  A$lcc8968 |    000554EA  A$lcc8968 |    000554EC  A$lcc8968
     000554EE  A$lcc8968 |    000554F0  A$lcc8968 |    000554F2  A$lcc8968
     000554F5  A$lcc8968 |    000554F6  A$lcc8968 |    000554F6  C$level1.
     000554F9  A$lcc8968 |    000554FA  A$lcc8968 |    000554FB  A$lcc8968
     000554FC  A$lcc8968 |    000554FE  A$lcc8968 |    00055500  A$lcc8968
     00055502  A$lcc8968 |    00055504  A$lcc8968 |    00055506  A$lcc8968
     00055508  A$lcc8968 |    0005550A  A$lcc8968 |    0005550C  A$lcc8968
     0005550D  A$lcc8968 |    00055510  A$lcc8968 |    00055511  A$lcc8968
     00055514  A$lcc8968 |    00055515  A$lcc8968 |    00055516  A$lcc8968
     00055519  A$lcc8968 |    0005551B  A$lcc8968 |    0005551B  C$level1.
     0005551E  A$lcc8968 |    0005551F  A$lcc8968 |    00055521  A$lcc8968
     00055524  A$lcc8968 |    00055525  A$lcc8968 |    00055527  A$lcc8968
     00055527  C$level1. |    0005552A  A$lcc8968 |    0005552C  A$lcc8968
     0005552E  A$lcc8968 |    0005552E  C$level1. |    00055531  A$lcc8968
     00055532  A$lcc8968 |    00055533  A$lcc8968 |    00055534  A$lcc8968
     00055536  A$lcc8968 |    00055538  A$lcc8968 |    0005553A  A$lcc8968
     0005553C  A$lcc8968 |    0005553E  A$lcc8968 |    00055540  A$lcc8968
ASxxxx Linker V03.00 + NoICE + sdld,  page 120.
Hexadecimal  [32-Bits]

Area                       Addr        Size        Decimal Bytes (Attributes)
--------------------       ----        ----        ------- ----- ------------
_CODE_5                00054000    000017D9 =        6105. bytes (REL,CON)

        Value  Global            Value  Global            Value  Global    
        -----  ------            -----  ------            -----  ------    
     00055542  A$lcc8968 |    00055544  A$lcc8968 |    00055545  A$lcc8968
     00055548  A$lcc8968 |    00055549  A$lcc8968 |    0005554C  A$lcc8968
     0005554D  A$lcc8968 |    0005554E  A$lcc8968 |    00055551  A$lcc8968
     00055553  A$lcc8968 |    00055553  C$level1. |    00055556  A$lcc8968
     00055557  A$lcc8968 |    00055558  A$lcc8968 |    00055559  A$lcc8968
     0005555B  A$lcc8968 |    0005555D  A$lcc8968 |    0005555D  C$level1.
     00055560  A$lcc8968 |    00055561  A$lcc8968 |    00055562  A$lcc8968
     00055563  A$lcc8968 |    00055564  A$lcc8968 |    00055564  C$level1.
     00055565  A$lcc8968 |    00055567  A$lcc8968 |    00055569  A$lcc8968
     0005556A  A$lcc8968 |    0005556B  A$lcc8968 |    0005556D  A$lcc8968
     0005556D  C$level1. |    00055570  A$lcc8968 |    00055572  A$lcc8968
     00055573  A$lcc8968 |    00055574  A$lcc8968 |    00055575  A$lcc8968
     00055576  A$lcc8968 |    00055577  A$lcc8968 |    00055579  A$lcc8968
     00055579  C$level1. |    0005557A  A$lcc8968 |    0005557C  A$lcc8968
     0005557E  A$lcc8968 |    0005557F  A$lcc8968 |    00055581  A$lcc8968
     00055582  A$lcc8968 |    00055584  A$lcc8968 |    00055586  A$lcc8968
     00055588  A$lcc8968 |    0005558A  A$lcc8968 |    0005558B  A$lcc8968
     0005558D  A$lcc8968 |    0005558F  A$lcc8968 |    00055591  A$lcc8968
     00055592  A$lcc8968 |    00055594  A$lcc8968 |    00055597  A$lcc8968
     00055599  A$lcc8968 |    0005559B  A$lcc8968 |    0005559B  C$level1.
     0005559E  A$lcc8968 |    000555A0  A$lcc8968 |    000555A1  A$lcc8968
     000555A2  A$lcc8968 |    000555A3  A$lcc8968 |    000555A4  A$lcc8968
     000555A5  A$lcc8968 |    000555A8  A$lcc8968 |    000555A9  A$lcc8968
     000555AA  A$lcc8968 |    000555AB  A$lcc8968 |    000555AB  C$level1.
     000555AC  A$lcc8968 |    000555AD  A$lcc8968 |    000555AE  A$lcc8968
     000555AF  A$lcc8968 |    000555B0  A$lcc8968 |    000555B2  A$lcc8968
     000555B4  A$lcc8968 |    000555B6  A$lcc8968 |    000555B8  A$lcc8968
     000555B9  A$lcc8968 |    000555BB  A$lcc8968 |    000555BD  A$lcc8968
     000555BF  A$lcc8968 |    000555C0  A$lcc8968 |    000555C2  A$lcc8968
     000555C2  C$level1. |    000555C5  A$lcc8968 |    000555C6  A$lcc8968
     000555C7  A$lcc8968 |    000555C8  A$lcc8968 |    000555C9  A$lcc8968
     000555CA  A$lcc8968 |    000555CC  A$lcc8968 |    000555CD  A$lcc8968
     000555CE  A$lcc8968 |    000555CE  C$level1. |    000555CF  A$lcc8968
     000555D1  A$lcc8968 |    000555D2  A$lcc8968 |    000555D4  A$lcc8968
     000555D4  C$level1. |    000555D7  A$lcc8968 |    000555D8  A$lcc8968
     000555D9  A$lcc8968 |    000555DA  A$lcc8968 |    000555DB  A$lcc8968
     000555DC  A$lcc8968 |    000555DE  A$lcc8968 |    000555DE  C$level1.
     000555DF  A$lcc8968 |    000555E1  A$lcc8968 |    000555E2  A$lcc8968
     000555E3  A$lcc8968 |    000555E4  A$lcc8968 |    000555E5  A$lcc8968
     000555E7  A$lcc8968 |    000555E9  A$lcc8968 |    000555EC  A$lcc8968
     000555ED  A$lcc8968 |    000555EF  A$lcc8968 |    000555EF  C$level1.
     000555F2  A$lcc8968 |    000555F4  A$lcc8968 |    000555F5  A$lcc8968
     000555F6  A$lcc8968 |    000555F7  A$lcc8968 |    000555F8  A$lcc8968
     000555F9  A$lcc8968 |    000555F9  C$level1. |    000555FC  A$lcc8968
     000555FD  A$lcc8968 |    000555FE  A$lcc8968 |    000555FF  A$lcc8968
     000555FF  C$level1. |    00055600  A$lcc8968 |    00055601  A$lcc8968
     00055604  A$lcc8968 |    00055604  C$level1. |    00055607  A$lcc8968
     00055608  A$lcc8968 |    00055609  A$lcc8968 |    0005560A  A$lcc8968
     0005560B  A$lcc8968 |    0005560D  A$lcc8968 |    0005560F  A$lcc8968
     00055611  A$lcc8968 |    00055613  A$lcc8968 |    00055615  A$lcc8968
     00055617  A$lcc8968 |    00055619  A$lcc8968 |    0005561B  A$lcc8968
ASxxxx Linker V03.00 + NoICE + sdld,  page 121.
Hexadecimal  [32-Bits]

Area                       Addr        Size        Decimal Bytes (Attributes)
--------------------       ----        ----        ------- ----- ------------
_CODE_5                00054000    000017D9 =        6105. bytes (REL,CON)

        Value  Global            Value  Global            Value  Global    
        -----  ------            -----  ------            -----  ------    
     0005561D  A$lcc8968 |    0005561E  A$lcc8968 |    0005561E  C$level1.
     00055621  A$lcc8968 |    00055622  A$lcc8968 |    00055623  A$lcc8968
     00055624  A$lcc8968 |    00055625  A$lcc8968 |    00055627  A$lcc8968
     00055629  A$lcc8968 |    0005562B  A$lcc8968 |    0005562D  A$lcc8968
     0005562F  A$lcc8968 |    00055631  A$lcc8968 |    00055633  A$lcc8968
     00055635  A$lcc8968 |    00055637  A$lcc8968 |    00055638  A$lcc8968
     00055638  C$level1. |    00055638  C$level1. |    00055639  A$lcc8968
     0005563A  A$lcc8968 |    0005563B  A$lcc8968 |    0005563C  A$lcc8968
     0005563D  A$lcc8968 |    0005563F  A$lcc8968 |    00055641  A$lcc8968
     00055643  A$lcc8968 |    00055645  A$lcc8968 |    00055646  A$lcc8968
     00055648  A$lcc8968 |    0005564A  A$lcc8968 |    0005564C  A$lcc8968
     0005564D  A$lcc8968 |    0005564F  A$lcc8968 |    0005564F  C$level1.
     00055652  A$lcc8968 |    00055653  A$lcc8968 |    00055654  A$lcc8968
     00055655  A$lcc8968 |    00055657  A$lcc8968 |    00055659  A$lcc8968
     0005565B  A$lcc8968 |    0005565D  A$lcc8968 |    0005565F  A$lcc8968
     00055661  A$lcc8968 |    00055663  A$lcc8968 |    00055665  A$lcc8968
     00055667  A$lcc8968 |    00055668  A$lcc8968 |    00055669  A$lcc8968
     0005566A  A$lcc8968 |    0005566B  A$lcc8968 |    0005566C  A$lcc8968
     0005566D  A$lcc8968 |    0005566E  A$lcc8968 |    0005566F  A$lcc8968
     00055672  A$lcc8968 |    00055674  A$lcc8968 |    00055676  A$lcc8968
     00055676  C$level1. |    00055678  A$lcc8968 |    0005567A  A$lcc8968
     0005567A  C$level1. |    0005567D  A$lcc8968 |    0005567E  A$lcc8968
     0005567F  A$lcc8968 |    00055680  A$lcc8968 |    00055682  A$lcc8968
     00055684  A$lcc8968 |    00055686  A$lcc8968 |    00055688  A$lcc8968
     0005568A  A$lcc8968 |    0005568C  A$lcc8968 |    0005568E  A$lcc8968
     00055690  A$lcc8968 |    00055692  A$lcc8968 |    00055693  A$lcc8968
     00055694  A$lcc8968 |    00055695  A$lcc8968 |    00055696  A$lcc8968
     00055697  A$lcc8968 |    00055698  A$lcc8968 |    00055699  A$lcc8968
     0005569A  A$lcc8968 |    0005569D  A$lcc8968 |    0005569F  A$lcc8968
     0005569F  C$level1. |    000556A2  A$lcc8968 |    000556A3  A$lcc8968
     000556A5  A$lcc8968 |    000556A5  C$level1. |    000556A8  A$lcc8968
     000556A9  A$lcc8968 |    000556AA  A$lcc8968 |    000556AB  A$lcc8968
     000556AE  A$lcc8968 |    000556AF  A$lcc8968 |    000556B0  A$lcc8968
     000556B1  A$lcc8968 |    000556B2  A$lcc8968 |    000556B3  A$lcc8968
     000556B4  A$lcc8968 |    000556B7  A$lcc8968 |    000556B8  A$lcc8968
     000556B9  A$lcc8968 |    000556BA  A$lcc8968 |    000556BA  C$level1.
     000556BD  A$lcc8968 |    000556BE  A$lcc8968 |    000556BF  A$lcc8968
     000556C0  A$lcc8968 |    000556C2  A$lcc8968 |    000556C4  A$lcc8968
     000556C6  A$lcc8968 |    000556C8  A$lcc8968 |    000556CA  A$lcc8968
     000556CC  A$lcc8968 |    000556CE  A$lcc8968 |    000556D0  A$lcc8968
     000556D3  A$lcc8968 |    000556D4  A$lcc8968 |    000556D4  C$level1.
     000556D7  A$lcc8968 |    000556D8  A$lcc8968 |    000556D9  A$lcc8968
     000556DA  A$lcc8968 |    000556DC  A$lcc8968 |    000556DE  A$lcc8968
     000556E0  A$lcc8968 |    000556E2  A$lcc8968 |    000556E4  A$lcc8968
     000556E6  A$lcc8968 |    000556E8  A$lcc8968 |    000556EA  A$lcc8968
     000556ED  A$lcc8968 |    000556EE  A$lcc8968 |    000556EE  C$level1.
     000556F1  A$lcc8968 |    000556F2  A$lcc8968 |    000556F4  A$lcc8968
     000556F7  A$lcc8968 |    000556F8  A$lcc8968 |    000556FA  A$lcc8968
     000556FD  A$lcc8968 |    000556FF  A$lcc8968 |    00055701  A$lcc8968
     00055703  A$lcc8968 |    00055705  A$lcc8968 |    00055708  A$lcc8968
     00055709  A$lcc8968 |    0005570B  A$lcc8968 |    0005570B  C$level1.
ASxxxx Linker V03.00 + NoICE + sdld,  page 122.
Hexadecimal  [32-Bits]

Area                       Addr        Size        Decimal Bytes (Attributes)
--------------------       ----        ----        ------- ----- ------------
_CODE_5                00054000    000017D9 =        6105. bytes (REL,CON)

        Value  Global            Value  Global            Value  Global    
        -----  ------            -----  ------            -----  ------    
     0005570E  A$lcc8968 |    0005570F  A$lcc8968 |    00055710  A$lcc8968
     00055712  A$lcc8968 |    00055715  A$lcc8968 |    00055716  A$lcc8968
     00055717  A$lcc8968 |    00055719  A$lcc8968 |    0005571C  A$lcc8968
     0005571C  C$level1. |    0005571E  A$lcc8968 |    00055720  A$lcc8968
     00055721  A$lcc8968 |    00055723  A$lcc8968 |    00055723  C$level1.
     00055726  A$lcc8968 |    00055726  C$level1. |    00055729  A$lcc8968
     0005572A  A$lcc8968 |    0005572B  A$lcc8968 |    0005572C  A$lcc8968
     0005572E  A$lcc8968 |    00055730  A$lcc8968 |    00055732  A$lcc8968
     00055734  A$lcc8968 |    00055736  A$lcc8968 |    00055738  A$lcc8968
     0005573A  A$lcc8968 |    0005573C  A$lcc8968 |    0005573D  A$lcc8968
     00055740  A$lcc8968 |    00055741  A$lcc8968 |    00055744  A$lcc8968
     00055745  A$lcc8968 |    00055746  A$lcc8968 |    00055749  A$lcc8968
     0005574B  A$lcc8968 |    0005574E  A$lcc8968 |    0005574F  A$lcc8968
     00055751  A$lcc8968 |    00055754  A$lcc8968 |    00055755  A$lcc8968
     00055757  A$lcc8968 |    00055757  C$level1. |    0005575A  A$lcc8968
     0005575A  C$level1. |    0005575C  A$lcc8968 |    0005575E  A$lcc8968
     0005575F  A$lcc8968 |    00055761  A$lcc8968 |    00055764  A$lcc8968
     00055765  A$lcc8968 |    00055766  A$lcc8968 |    00055768  A$lcc8968
     00055768  C$level1. |    0005576B  A$lcc8968 |    0005576B  C$level1.
     0005576E  A$lcc8968 |    0005576F  A$lcc8968 |    00055770  A$lcc8968
     00055772  A$lcc8968 |    00055772  C$level1. |    00055775  A$lcc8968
     00055776  A$lcc8968 |    00055779  A$lcc8968 |    0005577A  A$lcc8968
     0005577D  A$lcc8968 |    0005577D  C$level1. |    00055780  A$lcc8968
     00055781  A$lcc8968 |    00055782  A$lcc8968 |    00055784  A$lcc8968
     00055784  C$level1. |    00055787  A$lcc8968 |    00055788  A$lcc8968
     0005578B  A$lcc8968 |    0005578C  A$lcc8968 |    0005578F  A$lcc8968
     0005578F  C$level1. |    00055792  A$lcc8968 |    00055792  C$level1.
     00055795  A$lcc8968 |    00055796  A$lcc8968 |    00055798  A$lcc8968
     00055798  C$level1. |    0005579B  A$lcc8968 |    0005579B  C$level1.
     0005579E  A$lcc8968 |    0005579E  C$level1. |    000557A1  A$lcc8968
     000557A1  C$level1. |    000557A4  A$lcc8968 |    000557A6  A$lcc8968
     000557A6  C$level1. |    000557A9  A$lcc8968 |    000557AB  A$lcc8968
     000557AB  C$level1. |    000557AE  A$lcc8968 |    000557B0  A$lcc8968
     000557B2  A$lcc8968 |    000557B2  C$level1. |    000557B5  A$lcc8968
     000557B5  C$level1. |    000557B8  A$lcc8968 |    000557B8  C$level1.
     000557BB  A$lcc8968 |    000557BC  A$lcc8968 |    000557BE  A$lcc8968
     000557BE  C$level1. |    000557C1  A$lcc8968 |    000557C4  A$lcc8968
     000557C4  C$level1. |    000557C7  A$lcc8968 |    000557C8  A$lcc8968
     000557C9  A$lcc8968 |    000557CC  A$lcc8968 |    000557CC  C$level1.
     000557CE  A$lcc8968 |    000557CE  C$level1. |    000557D1  A$lcc8968
     000557D3  A$lcc8968 |    000557D6  A$lcc8968 |    000557D7  A$lcc8968
     000557D8  A$lcc8968 |    000557D8  C$level1. |    000557D8  XG$enter_
ASxxxx Linker V03.00 + NoICE + sdld,  page 123.
Hexadecimal  [32-Bits]

Area                       Addr        Size        Decimal Bytes (Attributes)
--------------------       ----        ----        ------- ----- ------------
_CODE_7                00074000    00002A50 =       10832. bytes (REL,CON)

        Value  Global            Value  Global            Value  Global    
        -----  ------            -----  ------            -----  ------    
     00074000  A$lcc8968 |    00074000  C$level2. |    00074000  G$anim_le
     00074000  _anim_lev |    00074002  A$lcc8968 |    00074002  C$level2.
     00074003  A$lcc8968 |    00074005  A$lcc8968 |    00074006  A$lcc8968
     00074007  A$lcc8968 |    00074007  C$level2. |    00074008  A$lcc8968
     0007400A  A$lcc8968 |    0007400B  A$lcc8968 |    0007400B  C$level2.
     0007400C  A$lcc8968 |    0007400D  A$lcc8968 |    0007400E  A$lcc8968
     0007400F  A$lcc8968 |    0007400F  C$level2. |    00074012  A$lcc8968
     00074013  A$lcc8968 |    00074014  A$lcc8968 |    00074015  A$lcc8968
     00074017  A$lcc8968 |    00074018  A$lcc8968 |    00074019  A$lcc8968
     0007401A  A$lcc8968 |    0007401C  A$lcc8968 |    0007401D  A$lcc8968
     0007401F  A$lcc8968 |    00074020  A$lcc8968 |    00074022  A$lcc8968
     00074023  A$lcc8968 |    00074025  A$lcc8968 |    00074026  A$lcc8968
     00074028  A$lcc8968 |    00074029  A$lcc8968 |    0007402B  A$lcc8968
     0007402C  A$lcc8968 |    0007402E  A$lcc8968 |    0007402F  A$lcc8968
     00074031  A$lcc8968 |    00074031  C$level2. |    00074034  A$lcc8968
     00074035  A$lcc8968 |    00074036  A$lcc8968 |    00074037  A$lcc8968
     00074039  A$lcc8968 |    0007403B  A$lcc8968 |    0007403D  A$lcc8968
     0007403F  A$lcc8968 |    00074041  A$lcc8968 |    00074043  A$lcc8968
     00074045  A$lcc8968 |    00074047  A$lcc8968 |    00074049  A$lcc8968
     0007404A  A$lcc8968 |    0007404A  C$level2. |    0007404C  A$lcc8968
     0007404E  A$lcc8968 |    0007404E  C$level2. |    00074050  A$lcc8968
     00074050  C$level2. |    00074051  A$lcc8968 |    00074052  A$lcc8968
     00074053  A$lcc8968 |    00074053  C$level2. |    00074055  A$lcc8968
     00074056  A$lcc8968 |    00074058  A$lcc8968 |    00074059  A$lcc8968
     0007405B  A$lcc8968 |    0007405C  A$lcc8968 |    0007405E  A$lcc8968
     0007405F  A$lcc8968 |    00074061  A$lcc8968 |    00074063  A$lcc8968
     00074065  A$lcc8968 |    00074067  A$lcc8968 |    00074068  A$lcc8968
     0007406A  A$lcc8968 |    0007406C  A$lcc8968 |    0007406E  A$lcc8968
     0007406F  A$lcc8968 |    00074071  A$lcc8968 |    00074072  A$lcc8968
     00074074  A$lcc8968 |    00074075  A$lcc8968 |    00074077  A$lcc8968
     00074078  A$lcc8968 |    0007407A  A$lcc8968 |    0007407B  A$lcc8968
     0007407D  A$lcc8968 |    0007407E  A$lcc8968 |    00074080  A$lcc8968
     00074081  A$lcc8968 |    00074083  A$lcc8968 |    00074085  A$lcc8968
     00074087  A$lcc8968 |    0007408A  A$lcc8968 |    0007408B  A$lcc8968
     0007408C  A$lcc8968 |    0007408D  A$lcc8968 |    0007408F  A$lcc8968
     00074090  A$lcc8968 |    00074091  A$lcc8968 |    00074092  A$lcc8968
     00074093  A$lcc8968 |    00074094  A$lcc8968 |    00074096  A$lcc8968
     00074096  C$level2. |    00074099  A$lcc8968 |    0007409B  A$lcc8968
     0007409C  A$lcc8968 |    0007409E  A$lcc8968 |    0007409E  C$level2.
     000740A0  A$lcc8968 |    000740A2  A$lcc8968 |    000740A2  C$level2.
     000740A4  A$lcc8968 |    000740A6  A$lcc8968 |    000740A6  C$level2.
     000740A8  A$lcc8968 |    000740AA  A$lcc8968 |    000740AB  A$lcc8968
     000740AD  A$lcc8968 |    000740AD  C$level2. |    000740AF  A$lcc8968
     000740B1  A$lcc8968 |    000740B2  A$lcc8968 |    000740B4  A$lcc8968
     000740B7  A$lcc8968 |    000740B7  C$level2. |    000740B9  A$lcc8968
     000740BA  A$lcc8968 |    000740BC  A$lcc8968 |    000740BD  A$lcc8968
     000740BF  A$lcc8968 |    000740C0  A$lcc8968 |    000740C2  A$lcc8968
     000740C3  A$lcc8968 |    000740C5  A$lcc8968 |    000740C7  A$lcc8968
     000740C9  A$lcc8968 |    000740CB  A$lcc8968 |    000740CC  A$lcc8968
     000740CE  A$lcc8968 |    000740D0  A$lcc8968 |    000740D2  A$lcc8968
ASxxxx Linker V03.00 + NoICE + sdld,  page 124.
Hexadecimal  [32-Bits]

Area                       Addr        Size        Decimal Bytes (Attributes)
--------------------       ----        ----        ------- ----- ------------
_CODE_7                00074000    00002A50 =       10832. bytes (REL,CON)

        Value  Global            Value  Global            Value  Global    
        -----  ------            -----  ------            -----  ------    
     000740D3  A$lcc8968 |    000740D5  A$lcc8968 |    000740D6  A$lcc8968
     000740D7  A$lcc8968 |    000740D9  A$lcc8968 |    000740DB  A$lcc8968
     000740DD  A$lcc8968 |    000740DE  A$lcc8968 |    000740DF  A$lcc8968
     000740E1  A$lcc8968 |    000740E1  C$level2. |    000740E4  A$lcc8968
     000740E6  A$lcc8968 |    000740E7  A$lcc8968 |    000740E9  A$lcc8968
     000740E9  C$level2. |    000740EB  A$lcc8968 |    000740ED  A$lcc8968
     000740ED  C$level2. |    000740EF  A$lcc8968 |    000740F1  A$lcc8968
     000740F1  C$level2. |    000740F3  A$lcc8968 |    000740F5  A$lcc8968
     000740F5  C$level2. |    000740F7  A$lcc8968 |    000740F9  A$lcc8968
     000740FA  A$lcc8968 |    000740FC  A$lcc8968 |    000740FC  C$level2.
     000740FE  A$lcc8968 |    00074100  A$lcc8968 |    00074101  A$lcc8968
     00074103  A$lcc8968 |    00074103  C$level2. |    00074105  A$lcc8968
     00074107  A$lcc8968 |    00074108  A$lcc8968 |    0007410A  A$lcc8968
     0007410C  A$lcc8968 |    0007410C  C$level2. |    0007410E  A$lcc8968
     0007410F  A$lcc8968 |    00074111  A$lcc8968 |    00074112  A$lcc8968
     00074114  A$lcc8968 |    00074115  A$lcc8968 |    00074117  A$lcc8968
     00074118  A$lcc8968 |    0007411A  A$lcc8968 |    0007411C  A$lcc8968
     0007411E  A$lcc8968 |    00074120  A$lcc8968 |    00074121  A$lcc8968
     00074123  A$lcc8968 |    00074125  A$lcc8968 |    00074127  A$lcc8968
     00074128  A$lcc8968 |    0007412A  A$lcc8968 |    0007412B  A$lcc8968
     0007412C  A$lcc8968 |    0007412E  A$lcc8968 |    00074130  A$lcc8968
     00074131  A$lcc8968 |    00074132  A$lcc8968 |    00074134  A$lcc8968
     00074134  C$level2. |    00074137  A$lcc8968 |    00074139  A$lcc8968
     0007413A  A$lcc8968 |    0007413C  A$lcc8968 |    0007413C  C$level2.
     0007413E  A$lcc8968 |    00074140  A$lcc8968 |    00074140  C$level2.
     00074142  A$lcc8968 |    00074144  A$lcc8968 |    00074144  C$level2.
     00074146  A$lcc8968 |    00074148  A$lcc8968 |    00074148  C$level2.
     0007414A  A$lcc8968 |    0007414C  A$lcc8968 |    0007414D  A$lcc8968
     0007414F  A$lcc8968 |    0007414F  C$level2. |    00074151  A$lcc8968
     00074153  A$lcc8968 |    00074154  A$lcc8968 |    00074156  A$lcc8968
     00074156  C$level2. |    00074158  A$lcc8968 |    0007415A  A$lcc8968
     0007415B  A$lcc8968 |    0007415D  A$lcc8968 |    0007415F  A$lcc8968
     0007415F  C$level2. |    00074160  A$lcc8968 |    00074161  A$lcc8968
     00074163  A$lcc8968 |    00074163  C$level2. |    00074166  A$lcc8968
     00074168  A$lcc8968 |    00074169  A$lcc8968 |    0007416B  A$lcc8968
     0007416B  C$level2. |    0007416D  A$lcc8968 |    0007416F  A$lcc8968
     0007416F  C$level2. |    00074171  A$lcc8968 |    00074173  A$lcc8968
     00074173  C$level2. |    00074175  A$lcc8968 |    00074177  A$lcc8968
     00074178  A$lcc8968 |    0007417A  A$lcc8968 |    0007417A  C$level2.
     0007417C  A$lcc8968 |    0007417E  A$lcc8968 |    0007417F  A$lcc8968
     00074181  A$lcc8968 |    00074181  C$level2. |    00074183  A$lcc8968
     00074184  A$lcc8968 |    00074185  A$lcc8968 |    00074188  A$lcc8968
     00074188  C$level2. |    0007418A  A$lcc8968 |    0007418B  A$lcc8968
     0007418C  A$lcc8968 |    0007418D  A$lcc8968 |    0007418E  A$lcc8968
     0007418F  A$lcc8968 |    00074191  A$lcc8968 |    00074192  A$lcc8968
     00074193  A$lcc8968 |    00074194  A$lcc8968 |    00074195  A$lcc8968
     00074196  A$lcc8968 |    00074197  A$lcc8968 |    00074198  A$lcc8968
     00074199  A$lcc8968 |    0007419A  A$lcc8968 |    0007419B  A$lcc8968
     0007419C  A$lcc8968 |    0007419D  A$lcc8968 |    0007419F  A$lcc8968
     000741A0  A$lcc8968 |    000741A1  A$lcc8968 |    000741A3  A$lcc8968
     000741A5  A$lcc8968 |    000741A6  A$lcc8968 |    000741A7  A$lcc8968
ASxxxx Linker V03.00 + NoICE + sdld,  page 125.
Hexadecimal  [32-Bits]

Area                       Addr        Size        Decimal Bytes (Attributes)
--------------------       ----        ----        ------- ----- ------------
_CODE_7                00074000    00002A50 =       10832. bytes (REL,CON)

        Value  Global            Value  Global            Value  Global    
        -----  ------            -----  ------            -----  ------    
     000741A8  A$lcc8968 |    000741A8  C$level2. |    000741AA  A$lcc8968
     000741AB  A$lcc8968 |    000741AC  A$lcc8968 |    000741AD  A$lcc8968
     000741AE  A$lcc8968 |    000741AF  A$lcc8968 |    000741B1  A$lcc8968
     000741B2  A$lcc8968 |    000741B3  A$lcc8968 |    000741B4  A$lcc8968
     000741B5  A$lcc8968 |    000741B6  A$lcc8968 |    000741B7  A$lcc8968
     000741B8  A$lcc8968 |    000741B9  A$lcc8968 |    000741BA  A$lcc8968
     000741BB  A$lcc8968 |    000741BC  A$lcc8968 |    000741BD  A$lcc8968
     000741BF  A$lcc8968 |    000741C0  A$lcc8968 |    000741C1  A$lcc8968
     000741C3  A$lcc8968 |    000741C5  A$lcc8968 |    000741C6  A$lcc8968
     000741C7  A$lcc8968 |    000741C8  A$lcc8968 |    000741C8  C$level2.
     000741CA  A$lcc8968 |    000741CB  A$lcc8968 |    000741CC  A$lcc8968
     000741CD  A$lcc8968 |    000741CE  A$lcc8968 |    000741CF  A$lcc8968
     000741D1  A$lcc8968 |    000741D2  A$lcc8968 |    000741D3  A$lcc8968
     000741D4  A$lcc8968 |    000741D5  A$lcc8968 |    000741D6  A$lcc8968
     000741D7  A$lcc8968 |    000741D8  A$lcc8968 |    000741D9  A$lcc8968
     000741DA  A$lcc8968 |    000741DB  A$lcc8968 |    000741DC  A$lcc8968
     000741DD  A$lcc8968 |    000741DF  A$lcc8968 |    000741E0  A$lcc8968
     000741E1  A$lcc8968 |    000741E3  A$lcc8968 |    000741E5  A$lcc8968
     000741E6  A$lcc8968 |    000741E7  A$lcc8968 |    000741E7  C$level2.
     000741E7  C$level2. |    000741E7  C$level2. |    000741E8  A$lcc8968
     000741EB  A$lcc8968 |    000741EC  A$lcc8968 |    000741ED  A$lcc8968
     000741EE  A$lcc8968 |    000741EF  A$lcc8968 |    000741F0  A$lcc8968
     000741F0  C$level2. |    000741F2  A$lcc8968 |    000741F3  A$lcc8968
     000741F4  A$lcc8968 |    000741F5  A$lcc8968 |    000741F7  A$lcc8968
     000741F8  A$lcc8968 |    000741FA  A$lcc8968 |    000741FB  A$lcc8968
     000741FD  A$lcc8968 |    000741FF  A$lcc8968 |    00074201  A$lcc8968
     00074203  A$lcc8968 |    00074204  A$lcc8968 |    00074206  A$lcc8968
     00074208  A$lcc8968 |    0007420A  A$lcc8968 |    0007420B  A$lcc8968
     0007420D  A$lcc8968 |    00074210  A$lcc8968 |    00074211  A$lcc8968
     00074212  A$lcc8968 |    00074213  A$lcc8968 |    00074215  A$lcc8968
     00074216  A$lcc8968 |    00074217  A$lcc8968 |    00074218  A$lcc8968
     00074219  A$lcc8968 |    0007421B  A$lcc8968 |    0007421B  C$level2.
     0007421E  A$lcc8968 |    0007421F  A$lcc8968 |    00074220  A$lcc8968
     00074221  A$lcc8968 |    00074223  A$lcc8968 |    00074224  A$lcc8968
     00074225  A$lcc8968 |    00074226  A$lcc8968 |    00074227  A$lcc8968
     00074228  A$lcc8968 |    00074229  A$lcc8968 |    0007422C  A$lcc8968
     0007422D  A$lcc8968 |    0007422E  A$lcc8968 |    0007422F  A$lcc8968
     0007422F  C$level2. |    00074232  A$lcc8968 |    00074234  A$lcc8968
     00074236  A$lcc8968 |    00074236  C$level2. |    00074239  A$lcc8968
     0007423A  A$lcc8968 |    0007423B  A$lcc8968 |    0007423C  A$lcc8968
     0007423E  A$lcc8968 |    0007423F  A$lcc8968 |    00074240  A$lcc8968
     00074241  A$lcc8968 |    00074242  A$lcc8968 |    00074243  A$lcc8968
     00074244  A$lcc8968 |    00074247  A$lcc8968 |    00074248  A$lcc8968
     00074249  A$lcc8968 |    0007424A  A$lcc8968 |    0007424C  A$lcc8968
     0007424D  A$lcc8968 |    0007424E  A$lcc8968 |    0007424F  A$lcc8968
     00074250  A$lcc8968 |    00074250  C$level2. |    00074253  A$lcc8968
     00074255  A$lcc8968 |    00074256  A$lcc8968 |    00074256  C$level2.
     00074257  A$lcc8968 |    00074258  A$lcc8968 |    00074259  A$lcc8968
     0007425A  A$lcc8968 |    0007425B  A$lcc8968 |    0007425D  A$lcc8968
     0007425F  A$lcc8968 |    00074261  A$lcc8968 |    00074263  A$lcc8968
     00074264  A$lcc8968 |    00074266  A$lcc8968 |    00074268  A$lcc8968
ASxxxx Linker V03.00 + NoICE + sdld,  page 126.
Hexadecimal  [32-Bits]

Area                       Addr        Size        Decimal Bytes (Attributes)
--------------------       ----        ----        ------- ----- ------------
_CODE_7                00074000    00002A50 =       10832. bytes (REL,CON)

        Value  Global            Value  Global            Value  Global    
        -----  ------            -----  ------            -----  ------    
     0007426A  A$lcc8968 |    0007426B  A$lcc8968 |    0007426D  A$lcc8968
     0007426D  C$level2. |    0007426E  A$lcc8968 |    00074270  A$lcc8968
     00074272  A$lcc8968 |    00074273  A$lcc8968 |    00074275  A$lcc8968
     00074277  A$lcc8968 |    00074278  A$lcc8968 |    0007427A  A$lcc8968
     0007427C  A$lcc8968 |    0007427C  C$level2. |    0007427F  A$lcc8968
     00074280  A$lcc8968 |    00074281  A$lcc8968 |    00074282  A$lcc8968
     00074285  A$lcc8968 |    00074286  A$lcc8968 |    00074287  A$lcc8968
     00074288  A$lcc8968 |    00074289  A$lcc8968 |    0007428A  A$lcc8968
     0007428B  A$lcc8968 |    0007428E  A$lcc8968 |    0007428F  A$lcc8968
     00074290  A$lcc8968 |    00074291  A$lcc8968 |    00074291  C$level2.
     00074294  A$lcc8968 |    00074296  A$lcc8968 |    00074298  A$lcc8968
     00074298  C$level2. |    0007429A  A$lcc8968 |    0007429B  A$lcc8968
     0007429C  A$lcc8968 |    0007429D  A$lcc8968 |    0007429E  A$lcc8968
     000742A1  A$lcc8968 |    000742A2  A$lcc8968 |    000742A3  A$lcc8968
     000742A4  A$lcc8968 |    000742A5  A$lcc8968 |    000742A6  A$lcc8968
     000742A7  A$lcc8968 |    000742A8  A$lcc8968 |    000742AA  A$lcc8968
     000742AA  C$level2. |    000742AB  A$lcc8968 |    000742AD  A$lcc8968
     000742AF  A$lcc8968 |    000742B0  A$lcc8968 |    000742B2  A$lcc8968
     000742B4  A$lcc8968 |    000742B6  A$lcc8968 |    000742B7  A$lcc8968
     000742B9  A$lcc8968 |    000742B9  C$level2. |    000742BA  A$lcc8968
     000742BD  A$lcc8968 |    000742BE  A$lcc8968 |    000742BF  A$lcc8968
     000742C0  A$lcc8968 |    000742C1  A$lcc8968 |    000742C2  A$lcc8968
     000742C5  A$lcc8968 |    000742C6  A$lcc8968 |    000742C8  A$lcc8968
     000742C9  A$lcc8968 |    000742CA  A$lcc8968 |    000742CB  A$lcc8968
     000742CC  A$lcc8968 |    000742CD  A$lcc8968 |    000742CE  A$lcc8968
     000742CF  A$lcc8968 |    000742D1  A$lcc8968 |    000742D2  A$lcc8968
     000742D3  A$lcc8968 |    000742D4  A$lcc8968 |    000742D5  A$lcc8968
     000742D6  A$lcc8968 |    000742D7  A$lcc8968 |    000742D9  A$lcc8968
     000742DA  A$lcc8968 |    000742DB  A$lcc8968 |    000742DC  A$lcc8968
     000742DE  A$lcc8968 |    000742DF  A$lcc8968 |    000742E2  A$lcc8968
     000742E3  A$lcc8968 |    000742E4  A$lcc8968 |    000742E5  A$lcc8968
     000742E6  A$lcc8968 |    000742E7  A$lcc8968 |    000742E7  C$level2.
     000742EA  A$lcc8968 |    000742EC  A$lcc8968 |    000742EC  C$level2.
     000742EE  A$lcc8968 |    000742EF  A$lcc8968 |    000742F1  A$lcc8968
     000742F2  A$lcc8968 |    000742F4  A$lcc8968 |    000742F5  A$lcc8968
     000742F7  A$lcc8968 |    000742F8  A$lcc8968 |    000742FA  A$lcc8968
     000742FB  A$lcc8968 |    000742FD  A$lcc8968 |    000742FE  A$lcc8968
     00074300  A$lcc8968 |    00074301  A$lcc8968 |    00074302  A$lcc8968
     00074304  A$lcc8968 |    00074304  C$level2. |    00074305  A$lcc8968
     00074306  A$lcc8968 |    00074307  A$lcc8968 |    00074308  A$lcc8968
     0007430B  A$lcc8968 |    0007430C  A$lcc8968 |    0007430D  A$lcc8968
     0007430E  A$lcc8968 |    00074310  A$lcc8968 |    00074311  A$lcc8968
     00074312  A$lcc8968 |    00074313  A$lcc8968 |    00074315  A$lcc8968
     00074316  A$lcc8968 |    00074317  A$lcc8968 |    00074318  A$lcc8968
     00074319  A$lcc8968 |    0007431B  A$lcc8968 |    0007431B  C$level2.
     0007431D  A$lcc8968 |    0007431E  A$lcc8968 |    00074320  A$lcc8968
     00074321  A$lcc8968 |    00074322  A$lcc8968 |    00074322  C$level2.
     00074324  A$lcc8968 |    00074325  A$lcc8968 |    00074326  A$lcc8968
     00074327  A$lcc8968 |    00074328  A$lcc8968 |    00074329  A$lcc8968
     0007432B  A$lcc8968 |    0007432C  A$lcc8968 |    0007432D  A$lcc8968
     0007432E  A$lcc8968 |    0007432F  A$lcc8968 |    00074330  A$lcc8968
ASxxxx Linker V03.00 + NoICE + sdld,  page 127.
Hexadecimal  [32-Bits]

Area                       Addr        Size        Decimal Bytes (Attributes)
--------------------       ----        ----        ------- ----- ------------
_CODE_7                00074000    00002A50 =       10832. bytes (REL,CON)

        Value  Global            Value  Global            Value  Global    
        -----  ------            -----  ------            -----  ------    
     00074331  A$lcc8968 |    00074332  A$lcc8968 |    00074333  A$lcc8968
     00074334  A$lcc8968 |    00074335  A$lcc8968 |    00074336  A$lcc8968
     00074337  A$lcc8968 |    00074339  A$lcc8968 |    0007433A  A$lcc8968
     0007433B  A$lcc8968 |    0007433D  A$lcc8968 |    0007433F  A$lcc8968
     00074340  A$lcc8968 |    00074341  A$lcc8968 |    00074341  C$level2.
     00074342  A$lcc8968 |    00074343  A$lcc8968 |    00074344  A$lcc8968
     00074346  A$lcc8968 |    00074346  C$level2. |    00074348  A$lcc8968
     00074349  A$lcc8968 |    0007434B  A$lcc8968 |    0007434C  A$lcc8968
     0007434E  A$lcc8968 |    0007434F  A$lcc8968 |    00074351  A$lcc8968
     00074352  A$lcc8968 |    00074354  A$lcc8968 |    00074355  A$lcc8968
     00074357  A$lcc8968 |    00074358  A$lcc8968 |    0007435A  A$lcc8968
     0007435B  A$lcc8968 |    0007435C  A$lcc8968 |    0007435E  A$lcc8968
     0007435E  C$level2. |    0007435F  A$lcc8968 |    00074360  A$lcc8968
     00074361  A$lcc8968 |    00074362  A$lcc8968 |    00074365  A$lcc8968
     00074366  A$lcc8968 |    00074367  A$lcc8968 |    00074368  A$lcc8968
     0007436A  A$lcc8968 |    0007436B  A$lcc8968 |    0007436C  A$lcc8968
     0007436D  A$lcc8968 |    0007436F  A$lcc8968 |    00074370  A$lcc8968
     00074371  A$lcc8968 |    00074372  A$lcc8968 |    00074373  A$lcc8968
     00074375  A$lcc8968 |    00074375  C$level2. |    00074377  A$lcc8968
     00074378  A$lcc8968 |    0007437A  A$lcc8968 |    0007437B  A$lcc8968
     0007437C  A$lcc8968 |    0007437C  C$level2. |    0007437E  A$lcc8968
     0007437F  A$lcc8968 |    00074380  A$lcc8968 |    00074381  A$lcc8968
     00074382  A$lcc8968 |    00074383  A$lcc8968 |    00074385  A$lcc8968
     00074386  A$lcc8968 |    00074387  A$lcc8968 |    00074388  A$lcc8968
     00074389  A$lcc8968 |    0007438A  A$lcc8968 |    0007438B  A$lcc8968
     0007438C  A$lcc8968 |    0007438D  A$lcc8968 |    0007438E  A$lcc8968
     0007438F  A$lcc8968 |    00074390  A$lcc8968 |    00074391  A$lcc8968
     00074393  A$lcc8968 |    00074394  A$lcc8968 |    00074395  A$lcc8968
     00074397  A$lcc8968 |    00074399  A$lcc8968 |    0007439A  A$lcc8968
     0007439B  A$lcc8968 |    0007439B  C$level2. |    0007439C  A$lcc8968
     0007439D  A$lcc8968 |    0007439E  A$lcc8968 |    000743A0  A$lcc8968
     000743A0  C$level2. |    000743A3  A$lcc8968 |    000743A4  A$lcc8968
     000743A5  A$lcc8968 |    000743A6  A$lcc8968 |    000743A8  A$lcc8968
     000743A9  A$lcc8968 |    000743AA  A$lcc8968 |    000743AB  A$lcc8968
     000743AD  A$lcc8968 |    000743AE  A$lcc8968 |    000743B0  A$lcc8968
     000743B1  A$lcc8968 |    000743B3  A$lcc8968 |    000743B4  A$lcc8968
     000743B6  A$lcc8968 |    000743B7  A$lcc8968 |    000743B9  A$lcc8968
     000743BA  A$lcc8968 |    000743BC  A$lcc8968 |    000743BD  A$lcc8968
     000743BF  A$lcc8968 |    000743C0  A$lcc8968 |    000743C2  A$lcc8968
     000743C2  C$level2. |    000743C3  A$lcc8968 |    000743C4  A$lcc8968
     000743C5  A$lcc8968 |    000743C7  A$lcc8968 |    000743C8  A$lcc8968
     000743CA  A$lcc8968 |    000743CB  A$lcc8968 |    000743CD  A$lcc8968
     000743CF  A$lcc8968 |    000743D1  A$lcc8968 |    000743D3  A$lcc8968
     000743D4  A$lcc8968 |    000743D6  A$lcc8968 |    000743D8  A$lcc8968
     000743DA  A$lcc8968 |    000743DB  A$lcc8968 |    000743DD  A$lcc8968
     000743DE  A$lcc8968 |    000743E0  A$lcc8968 |    000743E1  A$lcc8968
     000743E1  C$level2. |    000743E3  A$lcc8968 |    000743E4  A$lcc8968
     000743E6  A$lcc8968 |    000743E7  A$lcc8968 |    000743E9  A$lcc8968
     000743EA  A$lcc8968 |    000743EC  A$lcc8968 |    000743ED  A$lcc8968
     000743EF  A$lcc8968 |    000743F0  A$lcc8968 |    000743F1  A$lcc8968
     000743F4  A$lcc8968 |    000743F4  C$level2. |    000743F5  A$lcc8968
ASxxxx Linker V03.00 + NoICE + sdld,  page 128.
Hexadecimal  [32-Bits]

Area                       Addr        Size        Decimal Bytes (Attributes)
--------------------       ----        ----        ------- ----- ------------
_CODE_7                00074000    00002A50 =       10832. bytes (REL,CON)

        Value  Global            Value  Global            Value  Global    
        -----  ------            -----  ------            -----  ------    
     000743F6  A$lcc8968 |    000743F9  A$lcc8968 |    000743FA  A$lcc8968
     000743FB  A$lcc8968 |    000743FC  A$lcc8968 |    000743FE  A$lcc8968
     000743FF  A$lcc8968 |    00074400  A$lcc8968 |    00074401  A$lcc8968
     00074403  A$lcc8968 |    00074404  A$lcc8968 |    00074405  A$lcc8968
     00074406  A$lcc8968 |    00074407  A$lcc8968 |    00074409  A$lcc8968
     00074409  C$level2. |    0007440B  A$lcc8968 |    0007440C  A$lcc8968
     0007440D  A$lcc8968 |    0007440F  A$lcc8968 |    00074412  A$lcc8968
     00074413  A$lcc8968 |    00074414  A$lcc8968 |    00074415  A$lcc8968
     00074417  A$lcc8968 |    00074418  A$lcc8968 |    00074419  A$lcc8968
     0007441A  A$lcc8968 |    0007441B  A$lcc8968 |    0007441D  A$lcc8968
     0007441D  C$level2. |    0007441E  A$lcc8968 |    0007441F  A$lcc8968
     00074420  A$lcc8968 |    00074421  A$lcc8968 |    00074422  A$lcc8968
     00074423  A$lcc8968 |    00074424  A$lcc8968 |    00074427  A$lcc8968
     00074428  A$lcc8968 |    00074429  A$lcc8968 |    0007442A  A$lcc8968
     0007442B  A$lcc8968 |    0007442C  A$lcc8968 |    0007442D  A$lcc8968
     0007442E  A$lcc8968 |    0007442F  A$lcc8968 |    00074430  A$lcc8968
     00074431  A$lcc8968 |    00074432  A$lcc8968 |    00074433  A$lcc8968
     00074434  A$lcc8968 |    00074435  A$lcc8968 |    00074435  C$level2.
     00074437  A$lcc8968 |    00074438  A$lcc8968 |    00074439  A$lcc8968
     0007443A  A$lcc8968 |    0007443B  A$lcc8968 |    0007443C  A$lcc8968
     0007443F  A$lcc8968 |    00074440  A$lcc8968 |    00074441  A$lcc8968
     00074444  A$lcc8968 |    00074445  A$lcc8968 |    00074446  A$lcc8968
     00074447  A$lcc8968 |    00074449  A$lcc8968 |    0007444A  A$lcc8968
     0007444B  A$lcc8968 |    0007444C  A$lcc8968 |    0007444E  A$lcc8968
     0007444F  A$lcc8968 |    00074450  A$lcc8968 |    00074451  A$lcc8968
     00074452  A$lcc8968 |    00074453  A$lcc8968 |    00074454  A$lcc8968
     00074457  A$lcc8968 |    00074458  A$lcc8968 |    00074459  A$lcc8968
     0007445C  A$lcc8968 |    0007445D  A$lcc8968 |    0007445E  A$lcc8968
     0007445F  A$lcc8968 |    00074460  A$lcc8968 |    00074462  A$lcc8968
     00074463  A$lcc8968 |    00074463  C$level2. |    00074464  A$lcc8968
     00074465  A$lcc8968 |    00074468  A$lcc8968 |    00074469  A$lcc8968
     0007446A  A$lcc8968 |    0007446B  A$lcc8968 |    0007446D  A$lcc8968
     0007446E  A$lcc8968 |    0007446F  A$lcc8968 |    00074470  A$lcc8968
     00074472  A$lcc8968 |    00074473  A$lcc8968 |    00074473  C$level2.
     00074474  A$lcc8968 |    00074475  A$lcc8968 |    00074478  A$lcc8968
     00074479  A$lcc8968 |    0007447A  A$lcc8968 |    0007447B  A$lcc8968
     0007447D  A$lcc8968 |    0007447E  A$lcc8968 |    0007447F  A$lcc8968
     00074480  A$lcc8968 |    00074482  A$lcc8968 |    00074483  A$lcc8968
     00074484  A$lcc8968 |    00074485  A$lcc8968 |    00074488  A$lcc8968
     00074489  A$lcc8968 |    0007448A  A$lcc8968 |    0007448B  A$lcc8968
     0007448D  A$lcc8968 |    0007448E  A$lcc8968 |    0007448F  A$lcc8968
     00074490  A$lcc8968 |    00074492  A$lcc8968 |    00074493  A$lcc8968
     00074493  C$scene.h |    00074494  A$lcc8968 |    00074495  A$lcc8968
     00074498  A$lcc8968 |    00074499  A$lcc8968 |    0007449A  A$lcc8968
     0007449B  A$lcc8968 |    0007449D  A$lcc8968 |    0007449E  A$lcc8968
     0007449F  A$lcc8968 |    000744A0  A$lcc8968 |    000744A2  A$lcc8968
     000744A3  A$lcc8968 |    000744A3  C$scene.h |    000744A4  A$lcc8968
     000744A5  A$lcc8968 |    000744A8  A$lcc8968 |    000744A9  A$lcc8968
     000744AA  A$lcc8968 |    000744AB  A$lcc8968 |    000744AD  A$lcc8968
     000744AE  A$lcc8968 |    000744AF  A$lcc8968 |    000744B0  A$lcc8968
     000744B2  A$lcc8968 |    000744B3  A$lcc8968 |    000744B3  C$level2.
ASxxxx Linker V03.00 + NoICE + sdld,  page 129.
Hexadecimal  [32-Bits]

Area                       Addr        Size        Decimal Bytes (Attributes)
--------------------       ----        ----        ------- ----- ------------
_CODE_7                00074000    00002A50 =       10832. bytes (REL,CON)

        Value  Global            Value  Global            Value  Global    
        -----  ------            -----  ------            -----  ------    
     000744B4  A$lcc8968 |    000744B5  A$lcc8968 |    000744B8  A$lcc8968
     000744B9  A$lcc8968 |    000744BA  A$lcc8968 |    000744BB  A$lcc8968
     000744BD  A$lcc8968 |    000744BE  A$lcc8968 |    000744BF  A$lcc8968
     000744C0  A$lcc8968 |    000744C2  A$lcc8968 |    000744C3  A$lcc8968
     000744C3  C$level2. |    000744C5  A$lcc8968 |    000744C6  A$lcc8968
     000744C7  A$lcc8968 |    000744CA  A$lcc8968 |    000744CA  C$level2.
     000744CC  A$lcc8968 |    000744CD  A$lcc8968 |    000744CE  A$lcc8968
     000744CF  A$lcc8968 |    000744D0  A$lcc8968 |    000744D1  A$lcc8968
     000744D2  A$lcc8968 |    000744D3  A$lcc8968 |    000744D4  A$lcc8968
     000744D5  A$lcc8968 |    000744D6  A$lcc8968 |    000744D6  C$level2.
     000744D7  A$lcc8968 |    000744D8  A$lcc8968 |    000744D9  A$lcc8968
     000744DA  A$lcc8968 |    000744DB  A$lcc8968 |    000744DC  A$lcc8968
     000744DD  A$lcc8968 |    000744DF  A$lcc8968 |    000744E0  A$lcc8968
     000744E1  A$lcc8968 |    000744E2  A$lcc8968 |    000744E3  A$lcc8968
     000744E4  A$lcc8968 |    000744E5  A$lcc8968 |    000744E6  A$lcc8968
     000744E7  A$lcc8968 |    000744E8  A$lcc8968 |    000744E9  A$lcc8968
     000744EA  A$lcc8968 |    000744EB  A$lcc8968 |    000744EC  A$lcc8968
     000744ED  A$lcc8968 |    000744EE  A$lcc8968 |    000744EF  A$lcc8968
     000744F1  A$lcc8968 |    000744F2  A$lcc8968 |    000744F3  A$lcc8968
     000744F4  A$lcc8968 |    000744F5  A$lcc8968 |    000744F7  A$lcc8968
     000744F8  A$lcc8968 |    000744FA  A$lcc8968 |    000744FC  A$lcc8968
     000744FE  A$lcc8968 |    000744FF  A$lcc8968 |    00074500  A$lcc8968
     00074502  A$lcc8968 |    00074503  A$lcc8968 |    00074505  A$lcc8968
     00074507  A$lcc8968 |    00074509  A$lcc8968 |    0007450A  A$lcc8968
     0007450C  A$lcc8968 |    0007450D  A$lcc8968 |    0007450D  C$level2.
     0007450E  A$lcc8968 |    0007450F  A$lcc8968 |    00074511  A$lcc8968
     00074512  A$lcc8968 |    00074513  A$lcc8968 |    00074514  A$lcc8968
     00074515  A$lcc8968 |    00074516  A$lcc8968 |    00074517  A$lcc8968
     00074519  A$lcc8968 |    0007451A  A$lcc8968 |    0007451B  A$lcc8968
     0007451D  A$lcc8968 |    0007451F  A$lcc8968 |    00074521  A$lcc8968
     00074522  A$lcc8968 |    00074523  A$lcc8968 |    00074524  A$lcc8968
     00074526  A$lcc8968 |    00074527  A$lcc8968 |    00074528  A$lcc8968
     0007452A  A$lcc8968 |    0007452B  A$lcc8968 |    0007452C  A$lcc8968
     0007452D  A$lcc8968 |    0007452F  A$lcc8968 |    00074531  A$lcc8968
     00074532  A$lcc8968 |    00074533  A$lcc8968 |    00074534  A$lcc8968
     00074536  A$lcc8968 |    00074536  C$level2. |    00074538  A$lcc8968
     00074539  A$lcc8968 |    0007453A  A$lcc8968 |    0007453B  A$lcc8968
     0007453C  A$lcc8968 |    0007453D  A$lcc8968 |    0007453E  A$lcc8968
     0007453F  A$lcc8968 |    00074540  A$lcc8968 |    00074541  A$lcc8968
     00074544  A$lcc8968 |    00074545  A$lcc8968 |    00074546  A$lcc8968
     00074547  A$lcc8968 |    00074549  A$lcc8968 |    0007454A  A$lcc8968
     0007454B  A$lcc8968 |    0007454C  A$lcc8968 |    0007454D  A$lcc8968
     0007454E  A$lcc8968 |    0007454F  A$lcc8968 |    0007454F  C$level2.
     00074551  A$lcc8968 |    00074552  A$lcc8968 |    00074553  A$lcc8968
     00074554  A$lcc8968 |    00074555  A$lcc8968 |    00074556  A$lcc8968
     00074558  A$lcc8968 |    00074559  A$lcc8968 |    0007455A  A$lcc8968
     0007455B  A$lcc8968 |    0007455C  A$lcc8968 |    0007455F  A$lcc8968
     0007455F  C$level2. |    00074561  A$lcc8968 |    00074562  A$lcc8968
     00074563  A$lcc8968 |    00074566  A$lcc8968 |    00074567  A$lcc8968
     00074568  A$lcc8968 |    00074569  A$lcc8968 |    0007456A  A$lcc8968
     0007456B  A$lcc8968 |    0007456C  A$lcc8968 |    0007456F  A$lcc8968
ASxxxx Linker V03.00 + NoICE + sdld,  page 130.
Hexadecimal  [32-Bits]

Area                       Addr        Size        Decimal Bytes (Attributes)
--------------------       ----        ----        ------- ----- ------------
_CODE_7                00074000    00002A50 =       10832. bytes (REL,CON)

        Value  Global            Value  Global            Value  Global    
        -----  ------            -----  ------            -----  ------    
     00074571  A$lcc8968 |    00074573  A$lcc8968 |    00074575  A$lcc8968
     00074576  A$lcc8968 |    00074577  A$lcc8968 |    00074578  A$lcc8968
     0007457A  A$lcc8968 |    0007457B  A$lcc8968 |    0007457C  A$lcc8968
     0007457E  A$lcc8968 |    0007457F  A$lcc8968 |    00074580  A$lcc8968
     00074581  A$lcc8968 |    00074583  A$lcc8968 |    00074585  A$lcc8968
     00074586  A$lcc8968 |    00074587  A$lcc8968 |    00074588  A$lcc8968
     0007458A  A$lcc8968 |    0007458A  C$level2. |    0007458C  A$lcc8968
     0007458D  A$lcc8968 |    0007458E  A$lcc8968 |    0007458F  A$lcc8968
     00074590  A$lcc8968 |    00074591  A$lcc8968 |    00074592  A$lcc8968
     00074593  A$lcc8968 |    00074594  A$lcc8968 |    00074595  A$lcc8968
     00074598  A$lcc8968 |    00074599  A$lcc8968 |    0007459A  A$lcc8968
     0007459B  A$lcc8968 |    0007459C  A$lcc8968 |    0007459D  A$lcc8968
     0007459E  A$lcc8968 |    0007459F  A$lcc8968 |    000745A1  A$lcc8968
     000745A2  A$lcc8968 |    000745A3  A$lcc8968 |    000745A4  A$lcc8968
     000745A5  A$lcc8968 |    000745A6  A$lcc8968 |    000745A7  A$lcc8968
     000745A7  C$level2. |    000745A9  A$lcc8968 |    000745AA  A$lcc8968
     000745AB  A$lcc8968 |    000745AC  A$lcc8968 |    000745AD  A$lcc8968
     000745AE  A$lcc8968 |    000745B0  A$lcc8968 |    000745B1  A$lcc8968
     000745B2  A$lcc8968 |    000745B3  A$lcc8968 |    000745B4  A$lcc8968
     000745B7  A$lcc8968 |    000745B7  C$level2. |    000745B9  A$lcc8968
     000745BA  A$lcc8968 |    000745BC  A$lcc8968 |    000745BF  A$lcc8968
     000745BF  C$level2. |    000745C1  A$lcc8968 |    000745C2  A$lcc8968
     000745C3  A$lcc8968 |    000745C4  A$lcc8968 |    000745C5  A$lcc8968
     000745C6  A$lcc8968 |    000745C7  A$lcc8968 |    000745C8  A$lcc8968
     000745C9  A$lcc8968 |    000745CA  A$lcc8968 |    000745CB  A$lcc8968
     000745CB  C$level2. |    000745CC  A$lcc8968 |    000745CD  A$lcc8968
     000745CE  A$lcc8968 |    000745CF  A$lcc8968 |    000745D0  A$lcc8968
     000745D1  A$lcc8968 |    000745D2  A$lcc8968 |    000745D4  A$lcc8968
     000745D5  A$lcc8968 |    000745D6  A$lcc8968 |    000745D7  A$lcc8968
     000745D8  A$lcc8968 |    000745D9  A$lcc8968 |    000745DA  A$lcc8968
     000745DD  A$lcc8968 |    000745DE  A$lcc8968 |    000745DF  A$lcc8968
     000745E0  A$lcc8968 |    000745E2  A$lcc8968 |    000745E3  A$lcc8968
     000745E4  A$lcc8968 |    000745E5  A$lcc8968 |    000745E7  A$lcc8968
     000745E8  A$lcc8968 |    000745E9  A$lcc8968 |    000745EA  A$lcc8968
     000745EB  A$lcc8968 |    000745EC  A$lcc8968 |    000745EE  A$lcc8968
     000745EF  A$lcc8968 |    000745F0  A$lcc8968 |    000745F1  A$lcc8968
     000745F2  A$lcc8968 |    000745F3  A$lcc8968 |    000745F4  A$lcc8968
     000745F6  A$lcc8968 |    000745F7  A$lcc8968 |    000745F8  A$lcc8968
     000745F9  A$lcc8968 |    000745FA  A$lcc8968 |    000745FB  A$lcc8968
     000745FC  A$lcc8968 |    000745FD  A$lcc8968 |    000745FE  A$lcc8968
     000745FF  A$lcc8968 |    00074600  A$lcc8968 |    00074601  A$lcc8968
     00074601  C$level2. |    00074603  A$lcc8968 |    00074604  A$lcc8968
     00074605  A$lcc8968 |    00074606  A$lcc8968 |    00074607  A$lcc8968
     00074608  A$lcc8968 |    0007460A  A$lcc8968 |    0007460C  A$lcc8968
     0007460E  A$lcc8968 |    0007460F  A$lcc8968 |    00074610  A$lcc8968
     00074610  C$scene.h |    00074611  A$lcc8968 |    00074613  A$lcc8968
     00074615  A$lcc8968 |    00074617  A$lcc8968 |    00074618  A$lcc8968
     0007461A  A$lcc8968 |    0007461A  C$level2. |    0007461B  A$lcc8968
     0007461C  A$lcc8968 |    0007461E  A$lcc8968 |    0007461F  A$lcc8968
     00074620  A$lcc8968 |    00074621  A$lcc8968 |    00074622  A$lcc8968
     00074623  A$lcc8968 |    00074624  A$lcc8968 |    00074626  A$lcc8968
ASxxxx Linker V03.00 + NoICE + sdld,  page 131.
Hexadecimal  [32-Bits]

Area                       Addr        Size        Decimal Bytes (Attributes)
--------------------       ----        ----        ------- ----- ------------
_CODE_7                00074000    00002A50 =       10832. bytes (REL,CON)

        Value  Global            Value  Global            Value  Global    
        -----  ------            -----  ------            -----  ------    
     00074628  A$lcc8968 |    0007462A  A$lcc8968 |    0007462C  A$lcc8968
     0007462D  A$lcc8968 |    0007462E  A$lcc8968 |    0007462F  A$lcc8968
     00074630  A$lcc8968 |    00074632  A$lcc8968 |    00074633  A$lcc8968
     00074634  A$lcc8968 |    00074635  A$lcc8968 |    00074637  A$lcc8968
     00074639  A$lcc8968 |    0007463A  A$lcc8968 |    0007463B  A$lcc8968
     0007463C  A$lcc8968 |    0007463E  A$lcc8968 |    0007463E  C$level2.
     00074640  A$lcc8968 |    00074641  A$lcc8968 |    00074642  A$lcc8968
     00074643  A$lcc8968 |    00074644  A$lcc8968 |    00074645  A$lcc8968
     00074646  A$lcc8968 |    00074647  A$lcc8968 |    00074648  A$lcc8968
     00074649  A$lcc8968 |    0007464C  A$lcc8968 |    0007464D  A$lcc8968
     0007464E  A$lcc8968 |    0007464F  A$lcc8968 |    00074651  A$lcc8968
     00074652  A$lcc8968 |    00074653  A$lcc8968 |    00074654  A$lcc8968
     00074655  A$lcc8968 |    00074656  A$lcc8968 |    00074657  A$lcc8968
     00074657  C$level2. |    00074659  A$lcc8968 |    0007465A  A$lcc8968
     0007465B  A$lcc8968 |    0007465C  A$lcc8968 |    0007465D  A$lcc8968
     0007465E  A$lcc8968 |    00074660  A$lcc8968 |    00074661  A$lcc8968
     00074662  A$lcc8968 |    00074663  A$lcc8968 |    00074664  A$lcc8968
     00074667  A$lcc8968 |    00074667  C$level2. |    00074668  A$lcc8968
     00074669  A$lcc8968 |    0007466C  A$lcc8968 |    0007466E  A$lcc8968
     0007466F  A$lcc8968 |    00074670  A$lcc8968 |    00074671  A$lcc8968
     00074672  A$lcc8968 |    00074673  A$lcc8968 |    00074676  A$lcc8968
     00074677  A$lcc8968 |    00074678  A$lcc8968 |    0007467A  A$lcc8968
     0007467C  A$lcc8968 |    0007467E  A$lcc8968 |    0007467F  A$lcc8968
     00074680  A$lcc8968 |    00074681  A$lcc8968 |    00074682  A$lcc8968
     00074684  A$lcc8968 |    00074685  A$lcc8968 |    00074686  A$lcc8968
     00074687  A$lcc8968 |    00074689  A$lcc8968 |    0007468B  A$lcc8968
     0007468C  A$lcc8968 |    0007468D  A$lcc8968 |    0007468E  A$lcc8968
     00074690  A$lcc8968 |    00074690  C$level2. |    00074692  A$lcc8968
     00074693  A$lcc8968 |    00074694  A$lcc8968 |    00074695  A$lcc8968
     00074696  A$lcc8968 |    00074697  A$lcc8968 |    00074698  A$lcc8968
     00074699  A$lcc8968 |    0007469A  A$lcc8968 |    0007469B  A$lcc8968
     0007469E  A$lcc8968 |    0007469F  A$lcc8968 |    000746A0  A$lcc8968
     000746A1  A$lcc8968 |    000746A2  A$lcc8968 |    000746A3  A$lcc8968
     000746A4  A$lcc8968 |    000746A5  A$lcc8968 |    000746A7  A$lcc8968
     000746A8  A$lcc8968 |    000746A9  A$lcc8968 |    000746AA  A$lcc8968
     000746AB  A$lcc8968 |    000746AC  A$lcc8968 |    000746AD  A$lcc8968
     000746AD  C$level2. |    000746AF  A$lcc8968 |    000746B0  A$lcc8968
     000746B1  A$lcc8968 |    000746B2  A$lcc8968 |    000746B3  A$lcc8968
     000746B4  A$lcc8968 |    000746B6  A$lcc8968 |    000746B7  A$lcc8968
     000746B8  A$lcc8968 |    000746B9  A$lcc8968 |    000746BA  A$lcc8968
     000746BD  A$lcc8968 |    000746BD  C$level2. |    000746BF  A$lcc8968
     000746C0  A$lcc8968 |    000746C2  A$lcc8968 |    000746C5  A$lcc8968
     000746C5  C$level2. |    000746C6  A$lcc8968 |    000746C7  A$lcc8968
     000746C8  A$lcc8968 |    000746CA  A$lcc8968 |    000746CB  A$lcc8968
     000746CC  A$lcc8968 |    000746CD  A$lcc8968 |    000746CD  C$level2.
     000746CE  A$lcc8968 |    000746CF  A$lcc8968 |    000746D0  A$lcc8968
     000746D1  A$lcc8968 |    000746D3  A$lcc8968 |    000746D5  A$lcc8968
     000746D7  A$lcc8968 |    000746D9  A$lcc8968 |    000746DB  A$lcc8968
     000746DD  A$lcc8968 |    000746DF  A$lcc8968 |    000746E1  A$lcc8968
     000746E1  C$level2. |    000746E2  A$lcc8968 |    000746E4  A$lcc8968
     000746E5  A$lcc8968 |    000746E6  A$lcc8968 |    000746E7  A$lcc8968
ASxxxx Linker V03.00 + NoICE + sdld,  page 132.
Hexadecimal  [32-Bits]

Area                       Addr        Size        Decimal Bytes (Attributes)
--------------------       ----        ----        ------- ----- ------------
_CODE_7                00074000    00002A50 =       10832. bytes (REL,CON)

        Value  Global            Value  Global            Value  Global    
        -----  ------            -----  ------            -----  ------    
     000746E8  A$lcc8968 |    000746EA  A$lcc8968 |    000746EC  A$lcc8968
     000746ED  A$lcc8968 |    000746EF  A$lcc8968 |    000746F1  A$lcc8968
     000746F2  A$lcc8968 |    000746F4  A$lcc8968 |    000746F5  A$lcc8968
     000746F7  A$lcc8968 |    000746F9  A$lcc8968 |    000746FB  A$lcc8968
     000746FD  A$lcc8968 |    000746FE  A$lcc8968 |    00074700  A$lcc8968
     00074702  A$lcc8968 |    00074704  A$lcc8968 |    00074705  A$lcc8968
     00074707  A$lcc8968 |    00074707  C$level2. |    00074709  A$lcc8968
     0007470A  A$lcc8968 |    0007470B  A$lcc8968 |    0007470C  A$lcc8968
     0007470D  A$lcc8968 |    0007470F  A$lcc8968 |    00074710  A$lcc8968
     00074711  A$lcc8968 |    00074712  A$lcc8968 |    00074713  A$lcc8968
     00074714  A$lcc8968 |    00074715  A$lcc8968 |    00074716  A$lcc8968
     00074718  A$lcc8968 |    00074719  A$lcc8968 |    0007471A  A$lcc8968
     0007471B  A$lcc8968 |    0007471C  A$lcc8968 |    0007471D  A$lcc8968
     0007471E  A$lcc8968 |    00074720  A$lcc8968 |    00074721  A$lcc8968
     00074722  A$lcc8968 |    00074723  A$lcc8968 |    00074725  A$lcc8968
     00074726  A$lcc8968 |    00074727  A$lcc8968 |    00074728  A$lcc8968
     00074729  A$lcc8968 |    0007472A  A$lcc8968 |    0007472B  A$lcc8968
     0007472C  A$lcc8968 |    0007472D  A$lcc8968 |    0007472D  C$level2.
     0007472E  A$lcc8968 |    00074730  A$lcc8968 |    00074732  A$lcc8968
     00074733  A$lcc8968 |    00074735  A$lcc8968 |    00074736  A$lcc8968
     00074738  A$lcc8968 |    0007473A  A$lcc8968 |    0007473C  A$lcc8968
     0007473E  A$lcc8968 |    0007473F  A$lcc8968 |    00074741  A$lcc8968
     00074743  A$lcc8968 |    00074745  A$lcc8968 |    00074746  A$lcc8968
     00074748  A$lcc8968 |    00074748  C$level2. |    0007474A  A$lcc8968
     0007474B  A$lcc8968 |    0007474C  A$lcc8968 |    0007474D  A$lcc8968
     0007474F  A$lcc8968 |    00074751  A$lcc8968 |    00074751  C$level2.
     00074753  A$lcc8968 |    00074754  A$lcc8968 |    00074756  A$lcc8968
     00074758  A$lcc8968 |    00074758  C$level2. |    00074759  A$lcc8968
     0007475A  A$lcc8968 |    0007475B  A$lcc8968 |    0007475C  A$lcc8968
     0007475D  A$lcc8968 |    0007475E  A$lcc8968 |    0007475F  A$lcc8968
     00074762  A$lcc8968 |    00074763  A$lcc8968 |    00074764  A$lcc8968
     00074765  A$lcc8968 |    00074766  A$lcc8968 |    00074767  A$lcc8968
     00074768  A$lcc8968 |    00074769  A$lcc8968 |    0007476A  A$lcc8968
     0007476B  A$lcc8968 |    0007476D  A$lcc8968 |    0007476F  A$lcc8968
     00074771  A$lcc8968 |    00074773  A$lcc8968 |    00074774  A$lcc8968
     00074776  A$lcc8968 |    00074778  A$lcc8968 |    0007477A  A$lcc8968
     0007477B  A$lcc8968 |    0007477D  A$lcc8968 |    0007477D  C$level2.
     0007477F  A$lcc8968 |    00074780  A$lcc8968 |    00074781  A$lcc8968
     00074782  A$lcc8968 |    00074784  A$lcc8968 |    00074786  A$lcc8968
     00074786  C$level2. |    00074788  A$lcc8968 |    00074789  A$lcc8968
     0007478A  A$lcc8968 |    0007478B  A$lcc8968 |    0007478D  A$lcc8968
     0007478D  C$level2. |    0007478E  A$lcc8968 |    0007478F  A$lcc8968
     00074792  A$lcc8968 |    00074793  A$lcc8968 |    00074794  A$lcc8968
     00074795  A$lcc8968 |    00074796  A$lcc8968 |    00074797  A$lcc8968
     00074799  A$lcc8968 |    00074799  C$level2. |    0007479A  A$lcc8968
     0007479B  A$lcc8968 |    0007479E  A$lcc8968 |    0007479F  A$lcc8968
     000747A0  A$lcc8968 |    000747A1  A$lcc8968 |    000747A2  A$lcc8968
     000747A3  A$lcc8968 |    000747A4  A$lcc8968 |    000747A5  A$lcc8968
     000747A8  A$lcc8968 |    000747A9  A$lcc8968 |    000747AA  A$lcc8968
     000747AA  C$level2. |    000747AC  A$lcc8968 |    000747AD  A$lcc8968
     000747AF  A$lcc8968 |    000747AF  C$level2. |    000747B0  A$lcc8968
ASxxxx Linker V03.00 + NoICE + sdld,  page 133.
Hexadecimal  [32-Bits]

Area                       Addr        Size        Decimal Bytes (Attributes)
--------------------       ----        ----        ------- ----- ------------
_CODE_7                00074000    00002A50 =       10832. bytes (REL,CON)

        Value  Global            Value  Global            Value  Global    
        -----  ------            -----  ------            -----  ------    
     000747B1  A$lcc8968 |    000747B1  C$level2. |    000747B3  A$lcc8968
     000747B4  A$lcc8968 |    000747B6  A$lcc8968 |    000747B7  A$lcc8968
     000747B8  A$lcc8968 |    000747B8  C$level2. |    000747BA  A$lcc8968
     000747BB  A$lcc8968 |    000747BC  A$lcc8968 |    000747BD  A$lcc8968
     000747BE  A$lcc8968 |    000747BF  A$lcc8968 |    000747C1  A$lcc8968
     000747C2  A$lcc8968 |    000747C3  A$lcc8968 |    000747C4  A$lcc8968
     000747C5  A$lcc8968 |    000747C6  A$lcc8968 |    000747C7  A$lcc8968
     000747C8  A$lcc8968 |    000747C9  A$lcc8968 |    000747CA  A$lcc8968
     000747CB  A$lcc8968 |    000747CC  A$lcc8968 |    000747CD  A$lcc8968
     000747CF  A$lcc8968 |    000747D0  A$lcc8968 |    000747D1  A$lcc8968
     000747D3  A$lcc8968 |    000747D5  A$lcc8968 |    000747D6  A$lcc8968
     000747D7  A$lcc8968 |    000747D8  A$lcc8968 |    000747D8  C$level2.
     000747DA  A$lcc8968 |    000747DB  A$lcc8968 |    000747DE  A$lcc8968
     000747E1  A$lcc8968 |    000747E3  A$lcc8968 |    000747E4  A$lcc8968
     000747E7  A$lcc8968 |    000747E9  A$lcc8968 |    000747EA  A$lcc8968
     000747EB  A$lcc8968 |    000747EE  A$lcc8968 |    000747EE  C$level2.
     000747F1  A$lcc8968 |    000747F2  A$lcc8968 |    000747F3  A$lcc8968
     000747F4  A$lcc8968 |    000747F6  A$lcc8968 |    000747F7  A$lcc8968
     000747F8  A$lcc8968 |    000747F9  A$lcc8968 |    000747FB  A$lcc8968
     000747FC  A$lcc8968 |    000747FD  A$lcc8968 |    000747FE  A$lcc8968
     000747FF  A$lcc8968 |    00074800  A$lcc8968 |    00074801  A$lcc8968
     00074804  A$lcc8968 |    00074804  C$level2. |    00074805  A$lcc8968
     00074806  A$lcc8968 |    00074807  A$lcc8968 |    00074808  A$lcc8968
     00074809  A$lcc8968 |    0007480B  A$lcc8968 |    0007480D  A$lcc8968
     0007480F  A$lcc8968 |    00074811  A$lcc8968 |    00074813  A$lcc8968
     00074815  A$lcc8968 |    00074817  A$lcc8968 |    00074819  A$lcc8968
     00074819  C$level2. |    0007481A  A$lcc8968 |    0007481C  A$lcc8968
     0007481D  A$lcc8968 |    0007481E  A$lcc8968 |    0007481F  A$lcc8968
     00074820  A$lcc8968 |    00074822  A$lcc8968 |    00074824  A$lcc8968
     00074825  A$lcc8968 |    00074827  A$lcc8968 |    00074829  A$lcc8968
     0007482A  A$lcc8968 |    0007482C  A$lcc8968 |    0007482D  A$lcc8968
     0007482F  A$lcc8968 |    00074831  A$lcc8968 |    00074833  A$lcc8968
     00074835  A$lcc8968 |    00074836  A$lcc8968 |    00074838  A$lcc8968
     0007483A  A$lcc8968 |    0007483C  A$lcc8968 |    0007483D  A$lcc8968
     0007483F  A$lcc8968 |    0007483F  C$level2. |    00074842  A$lcc8968
     00074843  A$lcc8968 |    00074845  A$lcc8968 |    00074845  C$level2.
     00074847  A$lcc8968 |    00074848  A$lcc8968 |    00074849  A$lcc8968
     0007484A  A$lcc8968 |    0007484C  A$lcc8968 |    0007484C  C$level2.
     0007484E  A$lcc8968 |    0007484F  A$lcc8968 |    00074850  A$lcc8968
     00074852  A$lcc8968 |    00074855  A$lcc8968 |    00074856  A$lcc8968
     00074858  A$lcc8968 |    00074859  A$lcc8968 |    0007485A  A$lcc8968
     0007485B  A$lcc8968 |    0007485C  A$lcc8968 |    0007485E  A$lcc8968
     0007485F  A$lcc8968 |    00074860  A$lcc8968 |    00074862  A$lcc8968
     00074863  A$lcc8968 |    00074864  A$lcc8968 |    00074865  A$lcc8968
     00074866  A$lcc8968 |    00074867  A$lcc8968 |    00074868  A$lcc8968
     0007486A  A$lcc8968 |    0007486A  C$level2. |    0007486B  A$lcc8968
     0007486C  A$lcc8968 |    0007486D  A$lcc8968 |    0007486F  A$lcc8968
     00074870  A$lcc8968 |    00074871  A$lcc8968 |    00074872  A$lcc8968
     00074873  A$lcc8968 |    00074876  A$lcc8968 |    00074877  A$lcc8968
     00074879  A$lcc8968 |    0007487A  A$lcc8968 |    0007487B  A$lcc8968
     0007487C  A$lcc8968 |    0007487D  A$lcc8968 |    0007487F  A$lcc8968
ASxxxx Linker V03.00 + NoICE + sdld,  page 134.
Hexadecimal  [32-Bits]

Area                       Addr        Size        Decimal Bytes (Attributes)
--------------------       ----        ----        ------- ----- ------------
_CODE_7                00074000    00002A50 =       10832. bytes (REL,CON)

        Value  Global            Value  Global            Value  Global    
        -----  ------            -----  ------            -----  ------    
     00074880  A$lcc8968 |    00074881  A$lcc8968 |    00074882  A$lcc8968
     00074884  A$lcc8968 |    00074885  A$lcc8968 |    00074886  A$lcc8968
     00074887  A$lcc8968 |    00074888  A$lcc8968 |    00074889  A$lcc8968
     0007488A  A$lcc8968 |    0007488B  A$lcc8968 |    0007488C  A$lcc8968
     0007488E  A$lcc8968 |    0007488F  A$lcc8968 |    00074890  A$lcc8968
     00074891  A$lcc8968 |    00074892  A$lcc8968 |    00074893  A$lcc8968
     00074894  A$lcc8968 |    00074895  A$lcc8968 |    00074896  A$lcc8968
     00074897  A$lcc8968 |    00074897  C$level2. |    00074898  A$lcc8968
     00074899  A$lcc8968 |    0007489A  A$lcc8968 |    0007489C  A$lcc8968
     0007489D  A$lcc8968 |    0007489E  A$lcc8968 |    0007489F  A$lcc8968
     000748A0  A$lcc8968 |    000748A3  A$lcc8968 |    000748A4  A$lcc8968
     000748A5  A$lcc8968 |    000748A6  A$lcc8968 |    000748A7  A$lcc8968
     000748A9  A$lcc8968 |    000748AA  A$lcc8968 |    000748AB  A$lcc8968
     000748AC  A$lcc8968 |    000748AD  A$lcc8968 |    000748AF  A$lcc8968
     000748B0  A$lcc8968 |    000748B1  A$lcc8968 |    000748B2  A$lcc8968
     000748B4  A$lcc8968 |    000748B5  A$lcc8968 |    000748B6  A$lcc8968
     000748B7  A$lcc8968 |    000748B8  A$lcc8968 |    000748B9  A$lcc8968
     000748BA  A$lcc8968 |    000748BB  A$lcc8968 |    000748BC  A$lcc8968
     000748BD  A$lcc8968 |    000748BE  A$lcc8968 |    000748BF  A$lcc8968
     000748BF  C$level2. |    000748C2  A$lcc8968 |    000748C3  A$lcc8968
     000748C4  A$lcc8968 |    000748C5  A$lcc8968 |    000748C5  C$level2.
     000748C7  A$lcc8968 |    000748C8  A$lcc8968 |    000748CB  A$lcc8968
     000748CD  A$lcc8968 |    000748CD  C$level2. |    000748CD  XG$anim_l
     000748CE  G$level2$ |    000748CE  _level2   |    000748DB  G$level2_
     000748DB  _level2_a |    00074AF7  G$level2_ |    00074AF7  _level2_b
     00074BCF  A$lcc8968 |    00074BCF  C$level2. |    00074BCF  G$spawn_b
     00074BCF  _spawn_bu |    00074BD1  A$lcc8968 |    00074BD1  C$level2.
     00074BD3  A$lcc8968 |    00074BD4  A$lcc8968 |    00074BD6  A$lcc8968
     00074BD7  A$lcc8968 |    00074BD8  A$lcc8968 |    00074BD9  A$lcc8968
     00074BDA  A$lcc8968 |    00074BDB  A$lcc8968 |    00074BDC  A$lcc8968
     00074BDD  A$lcc8968 |    00074BDE  A$lcc8968 |    00074BDF  A$lcc8968
     00074BE0  A$lcc8968 |    00074BE1  A$lcc8968 |    00074BE4  A$lcc8968
     00074BE5  A$lcc8968 |    00074BE6  A$lcc8968 |    00074BE7  A$lcc8968
     00074BEA  A$lcc8968 |    00074BEB  A$lcc8968 |    00074BED  A$lcc8968
     00074BED  C$level2. |    00074BF0  A$lcc8968 |    00074BF1  A$lcc8968
     00074BF3  A$lcc8968 |    00074BF6  A$lcc8968 |    00074BF7  A$lcc8968
     00074BF9  A$lcc8968 |    00074BFA  A$lcc8968 |    00074BFB  A$lcc8968
     00074BFC  A$lcc8968 |    00074BFD  A$lcc8968 |    00074C00  A$lcc8968
     00074C01  A$lcc8968 |    00074C02  A$lcc8968 |    00074C03  A$lcc8968
     00074C05  A$lcc8968 |    00074C06  A$lcc8968 |    00074C07  A$lcc8968
     00074C08  A$lcc8968 |    00074C0A  A$lcc8968 |    00074C0B  A$lcc8968
     00074C0C  A$lcc8968 |    00074C0D  A$lcc8968 |    00074C0E  A$lcc8968
     00074C0F  A$lcc8968 |    00074C10  A$lcc8968 |    00074C12  A$lcc8968
     00074C13  A$lcc8968 |    00074C14  A$lcc8968 |    00074C15  A$lcc8968
     00074C16  A$lcc8968 |    00074C17  A$lcc8968 |    00074C18  A$lcc8968
     00074C19  A$lcc8968 |    00074C1A  A$lcc8968 |    00074C1B  A$lcc8968
     00074C1C  A$lcc8968 |    00074C1D  A$lcc8968 |    00074C20  A$lcc8968
     00074C21  A$lcc8968 |    00074C22  A$lcc8968 |    00074C23  A$lcc8968
     00074C24  A$lcc8968 |    00074C26  A$lcc8968 |    00074C27  A$lcc8968
     00074C28  A$lcc8968 |    00074C29  A$lcc8968 |    00074C2A  A$lcc8968
     00074C2A  C$level2. |    00074C2D  A$lcc8968 |    00074C2E  A$lcc8968
ASxxxx Linker V03.00 + NoICE + sdld,  page 135.
Hexadecimal  [32-Bits]

Area                       Addr        Size        Decimal Bytes (Attributes)
--------------------       ----        ----        ------- ----- ------------
_CODE_7                00074000    00002A50 =       10832. bytes (REL,CON)

        Value  Global            Value  Global            Value  Global    
        -----  ------            -----  ------            -----  ------    
     00074C2F  A$lcc8968 |    00074C30  A$lcc8968 |    00074C32  A$lcc8968
     00074C33  A$lcc8968 |    00074C34  A$lcc8968 |    00074C35  A$lcc8968
     00074C37  A$lcc8968 |    00074C38  A$lcc8968 |    00074C38  C$level2.
     00074C3A  A$lcc8968 |    00074C3B  A$lcc8968 |    00074C3C  A$lcc8968
     00074C3E  A$lcc8968 |    00074C3F  A$lcc8968 |    00074C40  A$lcc8968
     00074C41  A$lcc8968 |    00074C42  A$lcc8968 |    00074C43  A$lcc8968
     00074C44  A$lcc8968 |    00074C45  A$lcc8968 |    00074C46  A$lcc8968
     00074C48  A$lcc8968 |    00074C4A  A$lcc8968 |    00074C4C  A$lcc8968
     00074C4E  A$lcc8968 |    00074C4F  A$lcc8968 |    00074C51  A$lcc8968
     00074C53  A$lcc8968 |    00074C55  A$lcc8968 |    00074C56  A$lcc8968
     00074C58  A$lcc8968 |    00074C58  C$level2. |    00074C5A  A$lcc8968
     00074C5B  A$lcc8968 |    00074C5C  A$lcc8968 |    00074C5D  A$lcc8968
     00074C5F  A$lcc8968 |    00074C60  A$lcc8968 |    00074C62  A$lcc8968
     00074C62  C$level2. |    00074C64  A$lcc8968 |    00074C65  A$lcc8968
     00074C66  A$lcc8968 |    00074C67  A$lcc8968 |    00074C68  A$lcc8968
     00074C69  A$lcc8968 |    00074C6B  A$lcc8968 |    00074C6C  A$lcc8968
     00074C6D  A$lcc8968 |    00074C6E  A$lcc8968 |    00074C6F  A$lcc8968
     00074C70  A$lcc8968 |    00074C71  A$lcc8968 |    00074C72  A$lcc8968
     00074C73  A$lcc8968 |    00074C74  A$lcc8968 |    00074C75  A$lcc8968
     00074C76  A$lcc8968 |    00074C79  A$lcc8968 |    00074C7A  A$lcc8968
     00074C7B  A$lcc8968 |    00074C7C  A$lcc8968 |    00074C7E  A$lcc8968
     00074C7F  A$lcc8968 |    00074C80  A$lcc8968 |    00074C82  A$lcc8968
     00074C83  A$lcc8968 |    00074C84  A$lcc8968 |    00074C85  A$lcc8968
     00074C86  A$lcc8968 |    00074C87  A$lcc8968 |    00074C88  A$lcc8968
     00074C8A  A$lcc8968 |    00074C8A  C$level2. |    00074C8C  A$lcc8968
     00074C8D  A$lcc8968 |    00074C8E  A$lcc8968 |    00074C8F  A$lcc8968
     00074C91  A$lcc8968 |    00074C92  A$lcc8968 |    00074C94  A$lcc8968
     00074C94  C$level2. |    00074C96  A$lcc8968 |    00074C97  A$lcc8968
     00074C98  A$lcc8968 |    00074C99  A$lcc8968 |    00074C9A  A$lcc8968
     00074C9B  A$lcc8968 |    00074C9D  A$lcc8968 |    00074C9E  A$lcc8968
     00074C9F  A$lcc8968 |    00074CA0  A$lcc8968 |    00074CA1  A$lcc8968
     00074CA2  A$lcc8968 |    00074CA3  A$lcc8968 |    00074CA4  A$lcc8968
     00074CA5  A$lcc8968 |    00074CA6  A$lcc8968 |    00074CA7  A$lcc8968
     00074CA8  A$lcc8968 |    00074CAB  A$lcc8968 |    00074CAC  A$lcc8968
     00074CAD  A$lcc8968 |    00074CAE  A$lcc8968 |    00074CB0  A$lcc8968
     00074CB1  A$lcc8968 |    00074CB2  A$lcc8968 |    00074CB4  A$lcc8968
     00074CB5  A$lcc8968 |    00074CB6  A$lcc8968 |    00074CB7  A$lcc8968
     00074CB8  A$lcc8968 |    00074CB9  A$lcc8968 |    00074CBA  A$lcc8968
     00074CBA  C$level2. |    00074CBB  A$lcc8968 |    00074CBC  A$lcc8968
     00074CBE  A$lcc8968 |    00074CBF  A$lcc8968 |    00074CC0  A$lcc8968
     00074CC1  A$lcc8968 |    00074CC3  A$lcc8968 |    00074CC4  A$lcc8968
     00074CC5  A$lcc8968 |    00074CC6  A$lcc8968 |    00074CC7  A$lcc8968
     00074CC8  A$lcc8968 |    00074CCA  A$lcc8968 |    00074CCB  A$lcc8968
     00074CCC  A$lcc8968 |    00074CCD  A$lcc8968 |    00074CCE  A$lcc8968
     00074CCF  A$lcc8968 |    00074CD0  A$lcc8968 |    00074CD1  A$lcc8968
     00074CD2  A$lcc8968 |    00074CD3  A$lcc8968 |    00074CD4  A$lcc8968
     00074CD5  A$lcc8968 |    00074CD8  A$lcc8968 |    00074CD9  A$lcc8968
     00074CDA  A$lcc8968 |    00074CDB  A$lcc8968 |    00074CDC  A$lcc8968
     00074CDD  A$lcc8968 |    00074CDE  A$lcc8968 |    00074CE0  A$lcc8968
     00074CE1  A$lcc8968 |    00074CE2  A$lcc8968 |    00074CE3  A$lcc8968
     00074CE4  A$lcc8968 |    00074CE5  A$lcc8968 |    00074CE6  A$lcc8968
ASxxxx Linker V03.00 + NoICE + sdld,  page 136.
Hexadecimal  [32-Bits]

Area                       Addr        Size        Decimal Bytes (Attributes)
--------------------       ----        ----        ------- ----- ------------
_CODE_7                00074000    00002A50 =       10832. bytes (REL,CON)

        Value  Global            Value  Global            Value  Global    
        -----  ------            -----  ------            -----  ------    
     00074CE8  A$lcc8968 |    00074CE8  C$level2. |    00074CE8  XG$spawn_
     00074CE9  A$lcc8968 |    00074CE9  C$level2. |    00074CE9  G$npc_col
     00074CE9  _npc_coll |    00074CEB  A$lcc8968 |    00074CEB  C$level2.
     00074CEE  A$lcc8968 |    00074CEF  A$lcc8968 |    00074CF1  A$lcc8968
     00074CF1  C$level2. |    00074CF4  A$lcc8968 |    00074CF6  A$lcc8968
     00074CF6  C$level2. |    00074CF9  A$lcc8968 |    00074CFB  A$lcc8968
     00074CFB  C$level2. |    00074CFE  A$lcc8968 |    00074D00  A$lcc8968
     00074D02  A$lcc8968 |    00074D05  A$lcc8968 |    00074D06  A$lcc8968
     00074D07  A$lcc8968 |    00074D08  A$lcc8968 |    00074D08  C$level2.
     00074D0B  A$lcc8968 |    00074D0B  C$level2. |    00074D0B  C$level2.
     00074D0B  C$level2. |    00074D0C  A$lcc8968 |    00074D0D  A$lcc8968
     00074D0F  A$lcc8968 |    00074D0F  C$level2. |    00074D11  A$lcc8968
     00074D12  A$lcc8968 |    00074D12  C$level2. |    00074D15  A$lcc8968
     00074D17  A$lcc8968 |    00074D17  C$level2. |    00074D1A  A$lcc8968
     00074D1C  A$lcc8968 |    00074D1E  A$lcc8968 |    00074D1E  C$level2.
     00074D21  A$lcc8968 |    00074D22  A$lcc8968 |    00074D24  A$lcc8968
     00074D27  A$lcc8968 |    00074D28  A$lcc8968 |    00074D2A  A$lcc8968
     00074D2A  C$level2. |    00074D2C  A$lcc8968 |    00074D2D  A$lcc8968
     00074D2D  C$level2. |    00074D30  A$lcc8968 |    00074D32  A$lcc8968
     00074D32  C$level2. |    00074D35  A$lcc8968 |    00074D37  A$lcc8968
     00074D37  C$level2. |    00074D3A  A$lcc8968 |    00074D3B  A$lcc8968
     00074D3D  A$lcc8968 |    00074D40  A$lcc8968 |    00074D41  A$lcc8968
     00074D42  A$lcc8968 |    00074D43  A$lcc8968 |    00074D44  A$lcc8968
     00074D45  A$lcc8968 |    00074D46  A$lcc8968 |    00074D47  A$lcc8968
     00074D48  A$lcc8968 |    00074D49  A$lcc8968 |    00074D4B  A$lcc8968
     00074D4C  A$lcc8968 |    00074D4D  A$lcc8968 |    00074D4E  A$lcc8968
     00074D4E  C$level2. |    00074D51  A$lcc8968 |    00074D53  A$lcc8968
     00074D54  A$lcc8968 |    00074D55  A$lcc8968 |    00074D56  A$lcc8968
     00074D59  A$lcc8968 |    00074D5A  A$lcc8968 |    00074D5B  A$lcc8968
     00074D5C  A$lcc8968 |    00074D5D  A$lcc8968 |    00074D5E  A$lcc8968
     00074D5F  A$lcc8968 |    00074D60  A$lcc8968 |    00074D62  A$lcc8968
     00074D63  A$lcc8968 |    00074D64  A$lcc8968 |    00074D65  A$lcc8968
     00074D66  A$lcc8968 |    00074D67  A$lcc8968 |    00074D68  A$lcc8968
     00074D6A  A$lcc8968 |    00074D6B  A$lcc8968 |    00074D6C  A$lcc8968
     00074D6D  A$lcc8968 |    00074D6D  C$level2. |    00074D70  A$lcc8968
     00074D71  A$lcc8968 |    00074D72  A$lcc8968 |    00074D73  A$lcc8968
     00074D74  A$lcc8968 |    00074D75  A$lcc8968 |    00074D76  A$lcc8968
     00074D77  A$lcc8968 |    00074D79  A$lcc8968 |    00074D7A  A$lcc8968
     00074D7B  A$lcc8968 |    00074D7C  A$lcc8968 |    00074D7C  C$level2.
     00074D7E  A$lcc8968 |    00074D7F  A$lcc8968 |    00074D80  A$lcc8968
     00074D81  A$lcc8968 |    00074D82  A$lcc8968 |    00074D83  A$lcc8968
     00074D84  A$lcc8968 |    00074D85  A$lcc8968 |    00074D86  A$lcc8968
     00074D87  A$lcc8968 |    00074D88  A$lcc8968 |    00074D89  A$lcc8968
     00074D8A  A$lcc8968 |    00074D8B  A$lcc8968 |    00074D8D  A$lcc8968
     00074D8E  A$lcc8968 |    00074D8F  A$lcc8968 |    00074D90  A$lcc8968
     00074D90  C$level2. |    00074D92  A$lcc8968 |    00074D94  A$lcc8968
     00074D97  A$lcc8968 |    00074D99  A$lcc8968 |    00074D9A  A$lcc8968
     00074D9D  A$lcc8968 |    00074D9D  C$level2. |    00074D9F  A$lcc8968
     00074DA0  A$lcc8968 |    00074DA2  A$lcc8968 |    00074DA3  A$lcc8968
     00074DA4  A$lcc8968 |    00074DA5  A$lcc8968 |    00074DA6  A$lcc8968
     00074DA7  A$lcc8968 |    00074DA8  A$lcc8968 |    00074DA9  A$lcc8968
ASxxxx Linker V03.00 + NoICE + sdld,  page 137.
Hexadecimal  [32-Bits]

Area                       Addr        Size        Decimal Bytes (Attributes)
--------------------       ----        ----        ------- ----- ------------
_CODE_7                00074000    00002A50 =       10832. bytes (REL,CON)

        Value  Global            Value  Global            Value  Global    
        -----  ------            -----  ------            -----  ------    
     00074DAA  A$lcc8968 |    00074DAB  A$lcc8968 |    00074DAC  A$lcc8968
     00074DAD  A$lcc8968 |    00074DB0  A$lcc8968 |    00074DB1  A$lcc8968
     00074DB2  A$lcc8968 |    00074DB3  A$lcc8968 |    00074DB5  A$lcc8968
     00074DB6  A$lcc8968 |    00074DB7  A$lcc8968 |    00074DB8  A$lcc8968
     00074DBA  A$lcc8968 |    00074DBB  A$lcc8968 |    00074DBC  A$lcc8968
     00074DBD  A$lcc8968 |    00074DBE  A$lcc8968 |    00074DBF  A$lcc8968
     00074DC0  A$lcc8968 |    00074DC1  A$lcc8968 |    00074DC2  A$lcc8968
     00074DC3  A$lcc8968 |    00074DC5  A$lcc8968 |    00074DC7  A$lcc8968
     00074DC9  A$lcc8968 |    00074DCB  A$lcc8968 |    00074DCD  A$lcc8968
     00074DCF  A$lcc8968 |    00074DD1  A$lcc8968 |    00074DD3  A$lcc8968
     00074DD4  A$lcc8968 |    00074DD4  C$level2. |    00074DD5  A$lcc8968
     00074DD6  A$lcc8968 |    00074DD7  A$lcc8968 |    00074DD8  A$lcc8968
     00074DD9  A$lcc8968 |    00074DDA  A$lcc8968 |    00074DDB  A$lcc8968
     00074DDC  A$lcc8968 |    00074DDE  A$lcc8968 |    00074DE0  A$lcc8968
     00074DE2  A$lcc8968 |    00074DE4  A$lcc8968 |    00074DE6  A$lcc8968
     00074DE8  A$lcc8968 |    00074DEA  A$lcc8968 |    00074DEC  A$lcc8968
     00074DED  A$lcc8968 |    00074DED  C$level2. |    00074DEF  A$lcc8968
     00074DF0  A$lcc8968 |    00074DF1  A$lcc8968 |    00074DF2  A$lcc8968
     00074DF3  A$lcc8968 |    00074DF4  A$lcc8968 |    00074DF5  A$lcc8968
     00074DF6  A$lcc8968 |    00074DF7  A$lcc8968 |    00074DFA  A$lcc8968
     00074DFB  A$lcc8968 |    00074DFC  A$lcc8968 |    00074DFD  A$lcc8968
     00074DFE  A$lcc8968 |    00074E00  A$lcc8968 |    00074E01  A$lcc8968
     00074E02  A$lcc8968 |    00074E03  A$lcc8968 |    00074E04  A$lcc8968
     00074E05  A$lcc8968 |    00074E06  A$lcc8968 |    00074E07  A$lcc8968
     00074E08  A$lcc8968 |    00074E09  A$lcc8968 |    00074E0A  A$lcc8968
     00074E0B  A$lcc8968 |    00074E0C  A$lcc8968 |    00074E0D  A$lcc8968
     00074E0E  A$lcc8968 |    00074E0F  A$lcc8968 |    00074E10  A$lcc8968
     00074E11  A$lcc8968 |    00074E12  A$lcc8968 |    00074E13  A$lcc8968
     00074E15  A$lcc8968 |    00074E16  A$lcc8968 |    00074E17  A$lcc8968
     00074E18  A$lcc8968 |    00074E18  C$level2. |    00074E19  A$lcc8968
     00074E1B  A$lcc8968 |    00074E1D  A$lcc8968 |    00074E1E  A$lcc8968
     00074E1F  A$lcc8968 |    00074E20  A$lcc8968 |    00074E23  A$lcc8968
     00074E24  A$lcc8968 |    00074E25  A$lcc8968 |    00074E26  A$lcc8968
     00074E27  A$lcc8968 |    00074E29  A$lcc8968 |    00074E2A  A$lcc8968
     00074E2B  A$lcc8968 |    00074E2C  A$lcc8968 |    00074E2D  A$lcc8968
     00074E2E  A$lcc8968 |    00074E2F  A$lcc8968 |    00074E30  A$lcc8968
     00074E31  A$lcc8968 |    00074E32  A$lcc8968 |    00074E33  A$lcc8968
     00074E35  A$lcc8968 |    00074E36  A$lcc8968 |    00074E37  A$lcc8968
     00074E38  A$lcc8968 |    00074E38  C$level2. |    00074E3A  A$lcc8968
     00074E3B  A$lcc8968 |    00074E3C  A$lcc8968 |    00074E3D  A$lcc8968
     00074E3F  A$lcc8968 |    00074E40  A$lcc8968 |    00074E41  A$lcc8968
     00074E42  A$lcc8968 |    00074E43  A$lcc8968 |    00074E44  A$lcc8968
     00074E45  A$lcc8968 |    00074E47  A$lcc8968 |    00074E48  A$lcc8968
     00074E49  A$lcc8968 |    00074E4A  A$lcc8968 |    00074E4A  C$level2.
     00074E4C  A$lcc8968 |    00074E4D  A$lcc8968 |    00074E4E  A$lcc8968
     00074E4F  A$lcc8968 |    00074E50  A$lcc8968 |    00074E51  A$lcc8968
     00074E52  A$lcc8968 |    00074E53  A$lcc8968 |    00074E54  A$lcc8968
     00074E55  A$lcc8968 |    00074E56  A$lcc8968 |    00074E57  A$lcc8968
     00074E58  A$lcc8968 |    00074E58  C$level2. |    00074E5A  A$lcc8968
     00074E5B  A$lcc8968 |    00074E5C  A$lcc8968 |    00074E5D  A$lcc8968
     00074E60  A$lcc8968 |    00074E61  A$lcc8968 |    00074E62  A$lcc8968
ASxxxx Linker V03.00 + NoICE + sdld,  page 138.
Hexadecimal  [32-Bits]

Area                       Addr        Size        Decimal Bytes (Attributes)
--------------------       ----        ----        ------- ----- ------------
_CODE_7                00074000    00002A50 =       10832. bytes (REL,CON)

        Value  Global            Value  Global            Value  Global    
        -----  ------            -----  ------            -----  ------    
     00074E63  A$lcc8968 |    00074E64  A$lcc8968 |    00074E65  A$lcc8968
     00074E68  A$lcc8968 |    00074E6A  A$lcc8968 |    00074E6B  A$lcc8968
     00074E6C  A$lcc8968 |    00074E6D  A$lcc8968 |    00074E70  A$lcc8968
     00074E71  A$lcc8968 |    00074E72  A$lcc8968 |    00074E73  A$lcc8968
     00074E74  A$lcc8968 |    00074E75  A$lcc8968 |    00074E78  A$lcc8968
     00074E78  C$level2. |    00074E7A  A$lcc8968 |    00074E7B  A$lcc8968
     00074E7C  A$lcc8968 |    00074E7D  A$lcc8968 |    00074E7E  A$lcc8968
     00074E80  A$lcc8968 |    00074E81  A$lcc8968 |    00074E82  A$lcc8968
     00074E83  A$lcc8968 |    00074E84  A$lcc8968 |    00074E86  A$lcc8968
     00074E87  A$lcc8968 |    00074E88  A$lcc8968 |    00074E89  A$lcc8968
     00074E8A  A$lcc8968 |    00074E8C  A$lcc8968 |    00074E8D  A$lcc8968
     00074E8E  A$lcc8968 |    00074E8F  A$lcc8968 |    00074E90  A$lcc8968
     00074E92  A$lcc8968 |    00074E93  A$lcc8968 |    00074E94  A$lcc8968
     00074E95  A$lcc8968 |    00074E96  A$lcc8968 |    00074E98  A$lcc8968
     00074E99  A$lcc8968 |    00074E9A  A$lcc8968 |    00074E9B  A$lcc8968
     00074E9C  A$lcc8968 |    00074E9E  A$lcc8968 |    00074E9F  A$lcc8968
     00074EA0  A$lcc8968 |    00074EA1  A$lcc8968 |    00074EA2  A$lcc8968
     00074EA4  A$lcc8968 |    00074EA5  A$lcc8968 |    00074EA6  A$lcc8968
     00074EA7  A$lcc8968 |    00074EA8  A$lcc8968 |    00074EAB  A$lcc8968
     00074EAD  A$lcc8968 |    00074EAE  A$lcc8968 |    00074EB1  A$lcc8968
     00074EB1  C$level2. |    00074EB3  A$lcc8968 |    00074EB4  A$lcc8968
     00074EB5  A$lcc8968 |    00074EB6  A$lcc8968 |    00074EB9  A$lcc8968
     00074EBA  A$lcc8968 |    00074EBB  A$lcc8968 |    00074EBC  A$lcc8968
     00074EBD  A$lcc8968 |    00074EBF  A$lcc8968 |    00074EC1  A$lcc8968
     00074EC3  A$lcc8968 |    00074EC4  A$lcc8968 |    00074EC5  A$lcc8968
     00074EC7  A$lcc8968 |    00074EC7  C$level2. |    00074ECA  A$lcc8968
     00074ECC  A$lcc8968 |    00074ECF  A$lcc8968 |    00074ECF  C$level2.
     00074ED0  A$lcc8968 |    00074ED3  A$lcc8968 |    00074ED3  C$level2.
     00074ED6  A$lcc8968 |    00074ED7  A$lcc8968 |    00074EDA  A$lcc8968
     00074EDA  C$level2. |    00074EDC  A$lcc8968 |    00074EDD  A$lcc8968
     00074EDE  A$lcc8968 |    00074EDF  A$lcc8968 |    00074EE0  A$lcc8968
     00074EE1  A$lcc8968 |    00074EE3  A$lcc8968 |    00074EE4  A$lcc8968
     00074EE5  A$lcc8968 |    00074EE6  A$lcc8968 |    00074EE7  A$lcc8968
     00074EE8  A$lcc8968 |    00074EEA  A$lcc8968 |    00074EEC  A$lcc8968
     00074EED  A$lcc8968 |    00074EEE  A$lcc8968 |    00074EEF  A$lcc8968
     00074EF0  A$lcc8968 |    00074EF1  A$lcc8968 |    00074EF3  A$lcc8968
     00074EF4  A$lcc8968 |    00074EF5  A$lcc8968 |    00074EF6  A$lcc8968
     00074EF7  A$lcc8968 |    00074EF9  A$lcc8968 |    00074EF9  C$level2.
     00074EFC  A$lcc8968 |    00074EFE  A$lcc8968 |    00074F01  A$lcc8968
     00074F01  C$level2. |    00074F03  A$lcc8968 |    00074F04  A$lcc8968
     00074F05  A$lcc8968 |    00074F07  A$lcc8968 |    00074F08  A$lcc8968
     00074F09  A$lcc8968 |    00074F0A  A$lcc8968 |    00074F0B  A$lcc8968
     00074F0C  A$lcc8968 |    00074F0D  A$lcc8968 |    00074F0F  A$lcc8968
     00074F11  A$lcc8968 |    00074F12  A$lcc8968 |    00074F13  A$lcc8968
     00074F15  A$lcc8968 |    00074F16  A$lcc8968 |    00074F17  A$lcc8968
     00074F18  A$lcc8968 |    00074F19  A$lcc8968 |    00074F1A  A$lcc8968
     00074F1B  A$lcc8968 |    00074F1D  A$lcc8968 |    00074F1D  C$level2.
     00074F20  A$lcc8968 |    00074F22  A$lcc8968 |    00074F22  C$level2.
     00074F25  A$lcc8968 |    00074F27  A$lcc8968 |    00074F27  C$level2.
     00074F29  A$lcc8968 |    00074F2A  A$lcc8968 |    00074F2D  A$lcc8968
     00074F2F  A$lcc8968 |    00074F2F  C$level2. |    00074F31  A$lcc8968
ASxxxx Linker V03.00 + NoICE + sdld,  page 139.
Hexadecimal  [32-Bits]

Area                       Addr        Size        Decimal Bytes (Attributes)
--------------------       ----        ----        ------- ----- ------------
_CODE_7                00074000    00002A50 =       10832. bytes (REL,CON)

        Value  Global            Value  Global            Value  Global    
        -----  ------            -----  ------            -----  ------    
     00074F32  A$lcc8968 |    00074F33  A$lcc8968 |    00074F35  A$lcc8968
     00074F36  A$lcc8968 |    00074F37  A$lcc8968 |    00074F38  A$lcc8968
     00074F39  A$lcc8968 |    00074F3A  A$lcc8968 |    00074F3B  A$lcc8968
     00074F3D  A$lcc8968 |    00074F3F  A$lcc8968 |    00074F40  A$lcc8968
     00074F41  A$lcc8968 |    00074F43  A$lcc8968 |    00074F44  A$lcc8968
     00074F45  A$lcc8968 |    00074F46  A$lcc8968 |    00074F47  A$lcc8968
     00074F48  A$lcc8968 |    00074F49  A$lcc8968 |    00074F4B  A$lcc8968
     00074F4B  C$level2. |    00074F4E  A$lcc8968 |    00074F50  A$lcc8968
     00074F52  A$lcc8968 |    00074F52  C$level2. |    00074F54  A$lcc8968
     00074F55  A$lcc8968 |    00074F56  A$lcc8968 |    00074F57  A$lcc8968
     00074F58  A$lcc8968 |    00074F5A  A$lcc8968 |    00074F5B  A$lcc8968
     00074F5C  A$lcc8968 |    00074F5D  A$lcc8968 |    00074F5E  A$lcc8968
     00074F60  A$lcc8968 |    00074F61  A$lcc8968 |    00074F62  A$lcc8968
     00074F63  A$lcc8968 |    00074F64  A$lcc8968 |    00074F66  A$lcc8968
     00074F67  A$lcc8968 |    00074F68  A$lcc8968 |    00074F69  A$lcc8968
     00074F6A  A$lcc8968 |    00074F6C  A$lcc8968 |    00074F6D  A$lcc8968
     00074F6E  A$lcc8968 |    00074F6F  A$lcc8968 |    00074F70  A$lcc8968
     00074F72  A$lcc8968 |    00074F73  A$lcc8968 |    00074F74  A$lcc8968
     00074F75  A$lcc8968 |    00074F76  A$lcc8968 |    00074F78  A$lcc8968
     00074F79  A$lcc8968 |    00074F7A  A$lcc8968 |    00074F7B  A$lcc8968
     00074F7C  A$lcc8968 |    00074F7E  A$lcc8968 |    00074F7F  A$lcc8968
     00074F80  A$lcc8968 |    00074F81  A$lcc8968 |    00074F82  A$lcc8968
     00074F85  A$lcc8968 |    00074F87  A$lcc8968 |    00074F88  A$lcc8968
     00074F89  A$lcc8968 |    00074F8B  A$lcc8968 |    00074F8B  C$level2.
     00074F8E  A$lcc8968 |    00074F8F  A$lcc8968 |    00074F90  A$lcc8968
     00074F92  A$lcc8968 |    00074F92  C$level2. |    00074F94  A$lcc8968
     00074F94  C$level2. |    00074F97  A$lcc8968 |    00074F98  A$lcc8968
     00074F9B  A$lcc8968 |    00074F9B  C$level2. |    00074F9E  A$lcc8968
     00074FA0  A$lcc8968 |    00074FA1  A$lcc8968 |    00074FA4  A$lcc8968
     00074FA4  C$level2. |    00074FA6  A$lcc8968 |    00074FA7  A$lcc8968
     00074FA8  A$lcc8968 |    00074FAA  A$lcc8968 |    00074FAB  A$lcc8968
     00074FAC  A$lcc8968 |    00074FAD  A$lcc8968 |    00074FAE  A$lcc8968
     00074FAF  A$lcc8968 |    00074FB0  A$lcc8968 |    00074FB2  A$lcc8968
     00074FB4  A$lcc8968 |    00074FB5  A$lcc8968 |    00074FB6  A$lcc8968
     00074FB8  A$lcc8968 |    00074FB9  A$lcc8968 |    00074FBA  A$lcc8968
     00074FBB  A$lcc8968 |    00074FBC  A$lcc8968 |    00074FBD  A$lcc8968
     00074FBE  A$lcc8968 |    00074FC0  A$lcc8968 |    00074FC0  C$level2.
     00074FC3  A$lcc8968 |    00074FC5  A$lcc8968 |    00074FC5  C$level2.
     00074FC8  A$lcc8968 |    00074FCA  A$lcc8968 |    00074FCC  A$lcc8968
     00074FCC  C$level2. |    00074FCF  A$lcc8968 |    00074FD0  A$lcc8968
     00074FD1  A$lcc8968 |    00074FD2  A$lcc8968 |    00074FD2  C$level2.
     00074FD5  A$lcc8968 |    00074FD6  A$lcc8968 |    00074FD7  A$lcc8968
     00074FD8  A$lcc8968 |    00074FD9  A$lcc8968 |    00074FDA  A$lcc8968
     00074FDB  A$lcc8968 |    00074FDD  A$lcc8968 |    00074FDF  A$lcc8968
     00074FE0  A$lcc8968 |    00074FE1  A$lcc8968 |    00074FE2  A$lcc8968
     00074FE3  A$lcc8968 |    00074FE4  A$lcc8968 |    00074FE6  A$lcc8968
     00074FE8  A$lcc8968 |    00074FEA  A$lcc8968 |    00074FEB  A$lcc8968
     00074FEC  A$lcc8968 |    00074FED  A$lcc8968 |    00074FEE  A$lcc8968
     00074FEF  A$lcc8968 |    00074FF0  A$lcc8968 |    00074FF1  A$lcc8968
     00074FF2  A$lcc8968 |    00074FF3  A$lcc8968 |    00074FF4  A$lcc8968
     00074FF6  A$lcc8968 |    00074FF8  A$lcc8968 |    00074FFA  A$lcc8968
ASxxxx Linker V03.00 + NoICE + sdld,  page 140.
Hexadecimal  [32-Bits]

Area                       Addr        Size        Decimal Bytes (Attributes)
--------------------       ----        ----        ------- ----- ------------
_CODE_7                00074000    00002A50 =       10832. bytes (REL,CON)

        Value  Global            Value  Global            Value  Global    
        -----  ------            -----  ------            -----  ------    
     00074FFC  A$lcc8968 |    00074FFE  A$lcc8968 |    00075000  A$lcc8968
     00075002  A$lcc8968 |    00075004  A$lcc8968 |    00075007  A$lcc8968
     00075008  A$lcc8968 |    00075009  A$lcc8968 |    0007500A  A$lcc8968
     0007500A  C$level2. |    0007500D  A$lcc8968 |    0007500E  A$lcc8968
     00075010  A$lcc8968 |    00075010  C$level2. |    00075013  A$lcc8968
     00075015  A$lcc8968 |    00075015  C$level2. |    00075018  A$lcc8968
     0007501A  A$lcc8968 |    0007501C  A$lcc8968 |    0007501D  A$lcc8968
     0007501F  A$lcc8968 |    00075022  A$lcc8968 |    00075023  A$lcc8968
     00075025  A$lcc8968 |    00075025  C$level2. |    00075028  A$lcc8968
     00075028  C$level2. |    0007502B  A$lcc8968 |    0007502D  A$lcc8968
     00075030  A$lcc8968 |    00075032  A$lcc8968 |    00075035  A$lcc8968
     00075037  A$lcc8968 |    00075037  C$level2. |    0007503A  A$lcc8968
     0007503D  A$lcc8968 |    0007503E  A$lcc8968 |    00075040  A$lcc8968
     00075042  A$lcc8968 |    00075045  A$lcc8968 |    00075047  A$lcc8968
     00075049  A$lcc8968 |    00075049  C$level2. |    0007504C  A$lcc8968
     0007504C  C$level2. |    0007504E  A$lcc8968 |    0007504F  A$lcc8968
     00075052  A$lcc8968 |    00075054  A$lcc8968 |    00075054  C$level2.
     00075054  XG$npc_co |    00075055  A$lcc8968 |    00075055  C$level2.
     00075055  C$level2. |    00075055  G$init_su |    00075055  _init_sub
     00075057  A$lcc8968 |    00075059  A$lcc8968 |    0007505B  A$lcc8968
     0007505B  C$level2. |    0007505E  A$lcc8968 |    00075060  A$lcc8968
     00075060  C$level2. |    00075063  A$lcc8968 |    00075065  A$lcc8968
     00075065  C$level2. |    00075068  A$lcc8968 |    00075069  A$lcc8968
     0007506A  A$lcc8968 |    0007506B  A$lcc8968 |    0007506B  C$level2.
     0007506E  A$lcc8968 |    00075070  A$lcc8968 |    00075071  A$lcc8968
     00075073  A$lcc8968 |    00075073  C$level2. |    00075076  A$lcc8968
     00075078  A$lcc8968 |    00075079  A$lcc8968 |    0007507B  A$lcc8968
     0007507B  C$level2. |    0007507E  A$lcc8968 |    00075080  A$lcc8968
     00075081  A$lcc8968 |    00075083  A$lcc8968 |    00075083  C$level2.
     00075086  A$lcc8968 |    00075087  A$lcc8968 |    00075088  A$lcc8968
     00075089  A$lcc8968 |    0007508A  A$lcc8968 |    0007508B  A$lcc8968
     0007508C  A$lcc8968 |    0007508D  A$lcc8968 |    0007508E  A$lcc8968
     0007508F  A$lcc8968 |    00075092  A$lcc8968 |    00075093  A$lcc8968
     00075094  A$lcc8968 |    00075095  A$lcc8968 |    00075095  C$level2.
     00075098  A$lcc8968 |    00075099  A$lcc8968 |    0007509A  A$lcc8968
     0007509B  A$lcc8968 |    0007509B  C$level2. |    0007509E  A$lcc8968
     0007509F  A$lcc8968 |    000750A0  A$lcc8968 |    000750A1  A$lcc8968
     000750A4  A$lcc8968 |    000750A5  A$lcc8968 |    000750A6  A$lcc8968
     000750A7  A$lcc8968 |    000750A7  C$level2. |    000750AA  A$lcc8968
     000750AB  A$lcc8968 |    000750AC  A$lcc8968 |    000750AD  A$lcc8968
     000750B0  A$lcc8968 |    000750B1  A$lcc8968 |    000750B2  A$lcc8968
     000750B3  A$lcc8968 |    000750B3  C$level2. |    000750B6  A$lcc8968
     000750B7  A$lcc8968 |    000750B8  A$lcc8968 |    000750B9  A$lcc8968
     000750BB  A$lcc8968 |    000750BD  A$lcc8968 |    000750BF  A$lcc8968
     000750C1  A$lcc8968 |    000750C3  A$lcc8968 |    000750C5  A$lcc8968
     000750C7  A$lcc8968 |    000750C9  A$lcc8968 |    000750CB  A$lcc8968
     000750CD  A$lcc8968 |    000750CF  A$lcc8968 |    000750D1  A$lcc8968
     000750D3  A$lcc8968 |    000750D5  A$lcc8968 |    000750D8  A$lcc8968
     000750D9  A$lcc8968 |    000750D9  C$level2. |    000750DC  A$lcc8968
     000750DD  A$lcc8968 |    000750DE  A$lcc8968 |    000750DF  A$lcc8968
     000750E1  A$lcc8968 |    000750E3  A$lcc8968 |    000750E5  A$lcc8968
ASxxxx Linker V03.00 + NoICE + sdld,  page 141.
Hexadecimal  [32-Bits]

Area                       Addr        Size        Decimal Bytes (Attributes)
--------------------       ----        ----        ------- ----- ------------
_CODE_7                00074000    00002A50 =       10832. bytes (REL,CON)

        Value  Global            Value  Global            Value  Global    
        -----  ------            -----  ------            -----  ------    
     000750E7  A$lcc8968 |    000750E9  A$lcc8968 |    000750EB  A$lcc8968
     000750EE  A$lcc8968 |    000750EF  A$lcc8968 |    000750EF  C$level2.
     000750F1  A$lcc8968 |    000750F2  A$lcc8968 |    000750F3  A$lcc8968
     000750F6  A$lcc8968 |    000750F7  A$lcc8968 |    000750FA  A$lcc8968
     000750FB  A$lcc8968 |    000750FE  A$lcc8968 |    00075100  A$lcc8968
     00075100  C$level2. |    00075103  A$lcc8968 |    00075105  A$lcc8968
     00075108  A$lcc8968 |    0007510A  A$lcc8968 |    0007510A  C$level2.
     0007510D  A$lcc8968 |    0007510E  A$lcc8968 |    00075111  A$lcc8968
     00075113  A$lcc8968 |    00075114  A$lcc8968 |    00075115  A$lcc8968
     00075117  A$lcc8968 |    00075118  A$lcc8968 |    00075119  A$lcc8968
     0007511C  A$lcc8968 |    0007511D  A$lcc8968 |    0007511F  A$lcc8968
     00075120  A$lcc8968 |    00075121  A$lcc8968 |    00075123  A$lcc8968
     00075124  A$lcc8968 |    00075125  A$lcc8968 |    00075126  A$lcc8968
     00075127  A$lcc8968 |    0007512A  A$lcc8968 |    0007512C  A$lcc8968
     0007512C  C$level2. |    0007512E  A$lcc8968 |    0007512F  A$lcc8968
     00075130  A$lcc8968 |    00075133  A$lcc8968 |    00075134  A$lcc8968
     00075137  A$lcc8968 |    00075138  A$lcc8968 |    0007513B  A$lcc8968
     0007513D  A$lcc8968 |    0007513D  C$level2. |    00075140  A$lcc8968
     00075141  A$lcc8968 |    00075142  A$lcc8968 |    00075143  A$lcc8968
     00075146  A$lcc8968 |    00075147  A$lcc8968 |    00075148  A$lcc8968
     00075149  A$lcc8968 |    00075149  C$level2. |    0007514C  A$lcc8968
     0007514D  A$lcc8968 |    0007514E  A$lcc8968 |    0007514F  A$lcc8968
     00075152  A$lcc8968 |    00075153  A$lcc8968 |    00075154  A$lcc8968
     00075155  A$lcc8968 |    00075155  C$level2. |    00075158  A$lcc8968
     0007515A  A$lcc8968 |    0007515A  C$level2. |    0007515D  A$lcc8968
     0007515F  A$lcc8968 |    0007515F  C$level2. |    00075162  A$lcc8968
     00075164  A$lcc8968 |    00075165  A$lcc8968 |    00075167  A$lcc8968
     00075167  C$level2. |    0007516A  A$lcc8968 |    0007516C  A$lcc8968
     0007516C  C$level2. |    0007516F  A$lcc8968 |    00075172  A$lcc8968
     00075172  C$level2. |    00075175  A$lcc8968 |    00075178  A$lcc8968
     00075178  C$level2. |    0007517A  A$lcc8968 |    0007517C  A$lcc8968
     0007517E  A$lcc8968 |    0007517E  C$level2. |    0007517E  XG$init_s
     0007517F  A$lcc8968 |    0007517F  C$level2. |    0007517F  C$level2.
     0007517F  G$setup_l |    0007517F  _setup_lv |    00075182  A$lcc8968
     00075182  C$level2. |    00075185  A$lcc8968 |    00075187  A$lcc8968
     00075187  C$level2. |    0007518A  A$lcc8968 |    0007518C  A$lcc8968
     0007518F  A$lcc8968 |    00075191  A$lcc8968 |    00075194  A$lcc8968
     00075196  A$lcc8968 |    00075199  A$lcc8968 |    0007519B  A$lcc8968
     0007519E  A$lcc8968 |    000751A0  A$lcc8968 |    000751A3  A$lcc8968
     000751A5  A$lcc8968 |    000751A8  A$lcc8968 |    000751AA  A$lcc8968
     000751AA  C$level2. |    000751AD  A$lcc8968 |    000751AF  A$lcc8968
     000751B2  A$lcc8968 |    000751B4  A$lcc8968 |    000751B4  C$level2.
     000751B7  A$lcc8968 |    000751B8  A$lcc8968 |    000751BB  A$lcc8968
     000751BC  A$lcc8968 |    000751BC  C$level2. |    000751BF  A$lcc8968
     000751BF  C$level2. |    000751C1  A$lcc8968 |    000751C3  A$lcc8968
     000751C5  A$lcc8968 |    000751C5  C$level2. |    000751C5  XG$setup_
     000751C6  A$lcc8968 |    000751C6  C$level2. |    000751C6  G$enter_l
     000751C6  _enter_lv |    000751C7  A$lcc8968 |    000751C8  A$lcc8968
     000751C8  C$level2. |    000751CB  A$lcc8968 |    000751CB  C$level2.
     000751CE  A$lcc8968 |    000751D0  A$lcc8968 |    000751D3  A$lcc8968
     000751D3  C$level2. |    000751D6  A$lcc8968 |    000751D9  A$lcc8968
ASxxxx Linker V03.00 + NoICE + sdld,  page 142.
Hexadecimal  [32-Bits]

Area                       Addr        Size        Decimal Bytes (Attributes)
--------------------       ----        ----        ------- ----- ------------
_CODE_7                00074000    00002A50 =       10832. bytes (REL,CON)

        Value  Global            Value  Global            Value  Global    
        -----  ------            -----  ------            -----  ------    
     000751D9  C$level2. |    000751DC  A$lcc8968 |    000751DF  A$lcc8968
     000751E0  A$lcc8968 |    000751E0  C$level2. |    000751E3  A$lcc8968
     000751E4  A$lcc8968 |    000751E7  A$lcc8968 |    000751EA  A$lcc8968
     000751EA  C$level2. |    000751EB  A$lcc8968 |    000751ED  A$lcc8968
     000751EE  A$lcc8968 |    000751F0  A$lcc8968 |    000751F1  A$lcc8968
     000751F1  C$level2. |    000751F3  A$lcc8968 |    000751F6  A$lcc8968
     000751F6  C$level2. |    000751F9  A$lcc8968 |    000751FA  A$lcc8968
     000751FB  A$lcc8968 |    000751FC  A$lcc8968 |    000751FE  A$lcc8968
     000751FE  C$level2. |    000751FF  A$lcc8968 |    00075200  A$lcc8968
     00075202  A$lcc8968 |    00075202  C$level2. |    00075205  A$lcc8968
     00075207  A$lcc8968 |    00075207  C$level2. |    0007520A  A$lcc8968
     0007520B  A$lcc8968 |    0007520D  A$lcc8968 |    0007520E  A$lcc8968
     0007520F  A$lcc8968 |    00075211  A$lcc8968 |    00075214  A$lcc8968
     00075215  A$lcc8968 |    00075217  A$lcc8968 |    0007521A  A$lcc8968
     0007521B  A$lcc8968 |    0007521D  A$lcc8968 |    0007521D  C$level2.
     00075220  A$lcc8968 |    00075221  A$lcc8968 |    00075223  A$lcc8968
     00075226  A$lcc8968 |    00075227  A$lcc8968 |    0007522A  A$lcc8968
     0007522B  A$lcc8968 |    0007522C  A$lcc8968 |    0007522E  A$lcc8968
     00075230  A$lcc8968 |    00075233  A$lcc8968 |    00075234  A$lcc8968
     00075236  A$lcc8968 |    00075237  A$lcc8968 |    0007523A  A$lcc8968
     0007523B  A$lcc8968 |    0007523B  C$level2. |    0007523D  A$lcc8968
     00075240  A$lcc8968 |    00075241  A$lcc8968 |    00075244  A$lcc8968
     00075245  A$lcc8968 |    00075246  A$lcc8968 |    00075247  A$lcc8968
     00075249  A$lcc8968 |    0007524C  A$lcc8968 |    0007524D  A$lcc8968
     0007524E  A$lcc8968 |    0007524F  A$lcc8968 |    00075252  A$lcc8968
     00075253  A$lcc8968 |    00075253  C$level2. |    00075255  A$lcc8968
     00075255  C$level2. |    00075258  A$lcc8968 |    00075259  A$lcc8968
     0007525B  A$lcc8968 |    0007525B  C$level2. |    0007525E  A$lcc8968
     0007525F  A$lcc8968 |    00075261  A$lcc8968 |    00075264  A$lcc8968
     00075265  A$lcc8968 |    00075266  A$lcc8968 |    00075268  A$lcc8968
     0007526A  A$lcc8968 |    0007526D  A$lcc8968 |    0007526E  A$lcc8968
     00075270  A$lcc8968 |    00075271  A$lcc8968 |    00075274  A$lcc8968
     00075276  A$lcc8968 |    00075276  C$level2. |    00075276  C$level2.
     00075279  A$lcc8968 |    0007527A  A$lcc8968 |    0007527C  A$lcc8968
     0007527C  C$level2. |    0007527F  A$lcc8968 |    00075280  A$lcc8968
     00075281  A$lcc8968 |    00075282  A$lcc8968 |    00075283  A$lcc8968
     00075285  A$lcc8968 |    00075287  A$lcc8968 |    00075288  A$lcc8968
     0007528A  A$lcc8968 |    0007528B  A$lcc8968 |    0007528D  A$lcc8968
     0007528F  A$lcc8968 |    00075291  A$lcc8968 |    00075293  A$lcc8968
     00075294  A$lcc8968 |    00075296  A$lcc8968 |    00075298  A$lcc8968
     0007529A  A$lcc8968 |    0007529B  A$lcc8968 |    0007529D  A$lcc8968
     0007529D  C$level2. |    0007529E  A$lcc8968 |    000752A0  A$lcc8968
     000752A1  A$lcc8968 |    000752A2  A$lcc8968 |    000752A4  A$lcc8968
     000752A5  A$lcc8968 |    000752A8  A$lcc8968 |    000752A9  A$lcc8968
     000752AA  A$lcc8968 |    000752AB  A$lcc8968 |    000752AE  A$lcc8968
     000752AE  C$level2. |    000752B1  A$lcc8968 |    000752B3  A$lcc8968
     000752B4  A$lcc8968 |    000752B6  A$lcc8968 |    000752B9  A$lcc8968
     000752B9  C$level2. |    000752BC  A$lcc8968 |    000752BD  A$lcc8968
     000752C0  A$lcc8968 |    000752C3  A$lcc8968 |    000752C4  A$lcc8968
     000752C7  A$lcc8968 |    000752C7  C$level2. |    000752CA  A$lcc8968
     000752CB  A$lcc8968 |    000752CC  A$lcc8968 |    000752CD  A$lcc8968
ASxxxx Linker V03.00 + NoICE + sdld,  page 143.
Hexadecimal  [32-Bits]

Area                       Addr        Size        Decimal Bytes (Attributes)
--------------------       ----        ----        ------- ----- ------------
_CODE_7                00074000    00002A50 =       10832. bytes (REL,CON)

        Value  Global            Value  Global            Value  Global    
        -----  ------            -----  ------            -----  ------    
     000752CE  A$lcc8968 |    000752D0  A$lcc8968 |    000752D2  A$lcc8968
     000752D3  A$lcc8968 |    000752D5  A$lcc8968 |    000752D6  A$lcc8968
     000752D8  A$lcc8968 |    000752DA  A$lcc8968 |    000752DC  A$lcc8968
     000752DE  A$lcc8968 |    000752DF  A$lcc8968 |    000752E1  A$lcc8968
     000752E3  A$lcc8968 |    000752E5  A$lcc8968 |    000752E6  A$lcc8968
     000752E8  A$lcc8968 |    000752E8  C$level2. |    000752E9  A$lcc8968
     000752EB  A$lcc8968 |    000752EC  A$lcc8968 |    000752ED  A$lcc8968
     000752EF  A$lcc8968 |    000752F0  A$lcc8968 |    000752F3  A$lcc8968
     000752F4  A$lcc8968 |    000752F5  A$lcc8968 |    000752F6  A$lcc8968
     000752F9  A$lcc8968 |    000752F9  C$level2. |    000752FC  A$lcc8968
     000752FE  A$lcc8968 |    000752FF  A$lcc8968 |    00075301  A$lcc8968
     00075304  A$lcc8968 |    00075304  C$level2. |    00075305  A$lcc8968
     00075308  A$lcc8968 |    00075308  C$level2. |    0007530B  A$lcc8968
     0007530C  A$lcc8968 |    0007530D  A$lcc8968 |    0007530E  A$lcc8968
     00075310  A$lcc8968 |    00075310  C$level2. |    00075311  A$lcc8968
     00075312  A$lcc8968 |    00075314  A$lcc8968 |    00075314  C$level2.
     00075317  A$lcc8968 |    00075319  A$lcc8968 |    00075319  C$level2.
     0007531C  A$lcc8968 |    0007531D  A$lcc8968 |    0007531F  A$lcc8968
     00075320  A$lcc8968 |    00075321  A$lcc8968 |    00075323  A$lcc8968
     00075326  A$lcc8968 |    00075327  A$lcc8968 |    00075329  A$lcc8968
     0007532C  A$lcc8968 |    0007532D  A$lcc8968 |    0007532F  A$lcc8968
     0007532F  C$level2. |    00075332  A$lcc8968 |    00075333  A$lcc8968
     00075335  A$lcc8968 |    00075338  A$lcc8968 |    00075339  A$lcc8968
     0007533C  A$lcc8968 |    0007533D  A$lcc8968 |    0007533E  A$lcc8968
     00075340  A$lcc8968 |    00075342  A$lcc8968 |    00075345  A$lcc8968
     00075346  A$lcc8968 |    00075348  A$lcc8968 |    00075349  A$lcc8968
     0007534C  A$lcc8968 |    0007534D  A$lcc8968 |    0007534D  C$level2.
     0007534F  A$lcc8968 |    00075352  A$lcc8968 |    00075353  A$lcc8968
     00075356  A$lcc8968 |    00075357  A$lcc8968 |    00075358  A$lcc8968
     00075359  A$lcc8968 |    0007535B  A$lcc8968 |    0007535E  A$lcc8968
     0007535F  A$lcc8968 |    00075361  A$lcc8968 |    00075362  A$lcc8968
     00075365  A$lcc8968 |    00075366  A$lcc8968 |    00075366  C$level2.
     00075368  A$lcc8968 |    00075368  C$level2. |    0007536B  A$lcc8968
     0007536C  A$lcc8968 |    0007536E  A$lcc8968 |    0007536E  C$level2.
     00075371  A$lcc8968 |    00075372  A$lcc8968 |    00075374  A$lcc8968
     00075377  A$lcc8968 |    00075378  A$lcc8968 |    00075379  A$lcc8968
     0007537B  A$lcc8968 |    0007537D  A$lcc8968 |    00075380  A$lcc8968
     00075381  A$lcc8968 |    00075383  A$lcc8968 |    00075384  A$lcc8968
     00075387  A$lcc8968 |    00075389  A$lcc8968 |    00075389  C$level2.
     00075389  C$level2. |    0007538C  A$lcc8968 |    0007538D  A$lcc8968
     0007538F  A$lcc8968 |    0007538F  C$level2. |    00075392  A$lcc8968
     00075393  A$lcc8968 |    00075394  A$lcc8968 |    00075395  A$lcc8968
     00075396  A$lcc8968 |    00075398  A$lcc8968 |    00075399  A$lcc8968
     0007539A  A$lcc8968 |    0007539B  A$lcc8968 |    0007539C  A$lcc8968
     0007539E  A$lcc8968 |    000753A0  A$lcc8968 |    000753A0  C$level2.
     000753A1  A$lcc8968 |    000753A2  A$lcc8968 |    000753A3  A$lcc8968
     000753A4  A$lcc8968 |    000753A7  A$lcc8968 |    000753A8  A$lcc8968
     000753A9  A$lcc8968 |    000753AA  A$lcc8968 |    000753AC  A$lcc8968
     000753AC  C$level2. |    000753AF  A$lcc8968 |    000753B1  A$lcc8968
     000753B2  A$lcc8968 |    000753B4  A$lcc8968 |    000753B6  A$lcc8968
     000753B6  C$level2. |    000753B9  A$lcc8968 |    000753BA  A$lcc8968
ASxxxx Linker V03.00 + NoICE + sdld,  page 144.
Hexadecimal  [32-Bits]

Area                       Addr        Size        Decimal Bytes (Attributes)
--------------------       ----        ----        ------- ----- ------------
_CODE_7                00074000    00002A50 =       10832. bytes (REL,CON)

        Value  Global            Value  Global            Value  Global    
        -----  ------            -----  ------            -----  ------    
     000753BC  A$lcc8968 |    000753BF  A$lcc8968 |    000753C0  A$lcc8968
     000753C2  A$lcc8968 |    000753C2  C$level2. |    000753C5  A$lcc8968
     000753C6  A$lcc8968 |    000753C7  A$lcc8968 |    000753C8  A$lcc8968
     000753C9  A$lcc8968 |    000753CB  A$lcc8968 |    000753CC  A$lcc8968
     000753CD  A$lcc8968 |    000753CE  A$lcc8968 |    000753CF  A$lcc8968
     000753D1  A$lcc8968 |    000753D3  A$lcc8968 |    000753D3  C$level2.
     000753D4  A$lcc8968 |    000753D5  A$lcc8968 |    000753D6  A$lcc8968
     000753D7  A$lcc8968 |    000753DA  A$lcc8968 |    000753DB  A$lcc8968
     000753DC  A$lcc8968 |    000753DD  A$lcc8968 |    000753DF  A$lcc8968
     000753DF  C$level2. |    000753E2  A$lcc8968 |    000753E4  A$lcc8968
     000753E5  A$lcc8968 |    000753E7  A$lcc8968 |    000753EA  A$lcc8968
     000753EB  A$lcc8968 |    000753EB  C$level2. |    000753ED  A$lcc8968
     000753EF  A$lcc8968 |    000753F2  A$lcc8968 |    000753F3  A$lcc8968
     000753F5  A$lcc8968 |    000753F8  A$lcc8968 |    000753F9  A$lcc8968
     000753FB  A$lcc8968 |    000753FE  A$lcc8968 |    000753FF  A$lcc8968
     00075401  A$lcc8968 |    00075401  C$level2. |    00075404  A$lcc8968
     00075406  A$lcc8968 |    00075406  C$level2. |    00075409  A$lcc8968
     0007540C  A$lcc8968 |    0007540D  A$lcc8968 |    0007540F  A$lcc8968
     00075411  A$lcc8968 |    00075413  A$lcc8968 |    00075415  A$lcc8968
     00075418  A$lcc8968 |    00075419  A$lcc8968 |    0007541B  A$lcc8968
     0007541E  A$lcc8968 |    0007541F  A$lcc8968 |    00075421  A$lcc8968
     00075421  C$level2. |    00075424  A$lcc8968 |    00075424  C$level2.
     00075427  A$lcc8968 |    00075428  A$lcc8968 |    00075429  A$lcc8968
     0007542B  A$lcc8968 |    0007542B  C$level2. |    0007542E  A$lcc8968
     00075430  A$lcc8968 |    00075433  A$lcc8968 |    00075435  A$lcc8968
     00075435  C$level2. |    00075438  A$lcc8968 |    0007543A  A$lcc8968
     0007543A  C$level2. |    0007543D  A$lcc8968 |    0007543E  A$lcc8968
     00075440  A$lcc8968 |    00075440  C$level2. |    00075443  A$lcc8968
     00075443  C$level2. |    00075446  A$lcc8968 |    00075447  A$lcc8968
     00075449  A$lcc8968 |    00075449  C$level2. |    0007544C  A$lcc8968
     0007544C  C$level2. |    0007544D  A$lcc8968 |    0007544E  A$lcc8968
     00075450  A$lcc8968 |    00075450  C$level2. |    00075453  A$lcc8968
     00075455  A$lcc8968 |    00075455  C$level2. |    00075458  A$lcc8968
     0007545A  A$lcc8968 |    0007545A  C$level2. |    0007545A  C$level2.
     0007545D  A$lcc8968 |    0007545E  A$lcc8968 |    00075460  A$lcc8968
     00075463  A$lcc8968 |    00075464  A$lcc8968 |    00075466  A$lcc8968
     00075466  C$level2. |    00075469  A$lcc8968 |    0007546B  A$lcc8968
     0007546D  A$lcc8968 |    0007546F  A$lcc8968 |    00075471  A$lcc8968
     00075471  C$level2. |    00075474  A$lcc8968 |    00075476  A$lcc8968
     00075477  A$lcc8968 |    00075479  A$lcc8968 |    0007547B  A$lcc8968
     0007547B  C$level2. |    0007547D  A$lcc8968 |    0007547F  A$lcc8968
     00075481  A$lcc8968 |    00075483  A$lcc8968 |    00075483  C$level2.
     00075486  A$lcc8968 |    00075488  A$lcc8968 |    00075489  A$lcc8968
     0007548B  A$lcc8968 |    0007548B  C$level2. |    0007548E  A$lcc8968
     0007548F  A$lcc8968 |    0007548F  C$level2. |    00075490  A$lcc8968
     00075491  A$lcc8968 |    00075493  A$lcc8968 |    00075493  C$level2.
     00075496  A$lcc8968 |    00075498  A$lcc8968 |    00075498  C$level2.
     0007549B  A$lcc8968 |    0007549D  A$lcc8968 |    000754A0  A$lcc8968
     000754A0  C$level2. |    000754A2  A$lcc8968 |    000754A4  A$lcc8968
     000754A5  A$lcc8968 |    000754A7  A$lcc8968 |    000754A7  C$level2.
     000754AA  A$lcc8968 |    000754AC  A$lcc8968 |    000754AC  C$level2.
ASxxxx Linker V03.00 + NoICE + sdld,  page 145.
Hexadecimal  [32-Bits]

Area                       Addr        Size        Decimal Bytes (Attributes)
--------------------       ----        ----        ------- ----- ------------
_CODE_7                00074000    00002A50 =       10832. bytes (REL,CON)

        Value  Global            Value  Global            Value  Global    
        -----  ------            -----  ------            -----  ------    
     000754AF  A$lcc8968 |    000754B0  A$lcc8968 |    000754B2  A$lcc8968
     000754B2  C$level2. |    000754B5  A$lcc8968 |    000754B6  A$lcc8968
     000754B7  A$lcc8968 |    000754B8  A$lcc8968 |    000754B8  C$level2.
     000754BB  A$lcc8968 |    000754BC  A$lcc8968 |    000754BD  A$lcc8968
     000754BE  A$lcc8968 |    000754BF  A$lcc8968 |    000754BF  C$level2.
     000754C2  A$lcc8968 |    000754C3  A$lcc8968 |    000754C5  A$lcc8968
     000754C5  C$level2. |    000754C7  A$lcc8968 |    000754C9  A$lcc8968
     000754C9  C$level2. |    000754CC  A$lcc8968 |    000754CE  A$lcc8968
     000754CF  A$lcc8968 |    000754D0  A$lcc8968 |    000754D1  A$lcc8968
     000754D2  A$lcc8968 |    000754D3  A$lcc8968 |    000754D5  A$lcc8968
     000754D5  C$level2. |    000754D6  A$lcc8968 |    000754D7  A$lcc8968
     000754D8  A$lcc8968 |    000754D9  A$lcc8968 |    000754DA  A$lcc8968
     000754DC  A$lcc8968 |    000754DE  A$lcc8968 |    000754E0  A$lcc8968
     000754E2  A$lcc8968 |    000754E3  A$lcc8968 |    000754E5  A$lcc8968
     000754E7  A$lcc8968 |    000754E9  A$lcc8968 |    000754EA  A$lcc8968
     000754EC  A$lcc8968 |    000754EC  C$level2. |    000754ED  A$lcc8968
     000754EF  A$lcc8968 |    000754F0  A$lcc8968 |    000754F1  A$lcc8968
     000754F3  A$lcc8968 |    000754F4  A$lcc8968 |    000754F7  A$lcc8968
     000754F8  A$lcc8968 |    000754F9  A$lcc8968 |    000754FA  A$lcc8968
     000754FC  A$lcc8968 |    000754FC  C$level2. |    000754FF  A$lcc8968
     00075501  A$lcc8968 |    00075502  A$lcc8968 |    00075503  A$lcc8968
     00075504  A$lcc8968 |    00075504  C$level2. |    00075505  A$lcc8968
     00075506  A$lcc8968 |    00075508  A$lcc8968 |    00075509  A$lcc8968
     0007550A  A$lcc8968 |    0007550C  A$lcc8968 |    0007550D  A$lcc8968
     0007550F  A$lcc8968 |    00075510  A$lcc8968 |    00075512  A$lcc8968
     00075514  A$lcc8968 |    00075516  A$lcc8968 |    00075518  A$lcc8968
     00075519  A$lcc8968 |    0007551B  A$lcc8968 |    0007551D  A$lcc8968
     0007551F  A$lcc8968 |    00075520  A$lcc8968 |    00075522  A$lcc8968
     00075522  C$level2. |    00075525  A$lcc8968 |    00075527  A$lcc8968
     00075528  A$lcc8968 |    0007552A  A$lcc8968 |    0007552A  C$level2.
     0007552D  A$lcc8968 |    0007552E  A$lcc8968 |    0007552F  A$lcc8968
     00075530  A$lcc8968 |    00075532  A$lcc8968 |    00075534  A$lcc8968
     00075536  A$lcc8968 |    00075538  A$lcc8968 |    0007553A  A$lcc8968
     0007553C  A$lcc8968 |    0007553E  A$lcc8968 |    00075540  A$lcc8968
     00075543  A$lcc8968 |    00075544  A$lcc8968 |    00075544  C$level2.
     00075547  A$lcc8968 |    00075548  A$lcc8968 |    00075549  A$lcc8968
     0007554A  A$lcc8968 |    0007554C  A$lcc8968 |    0007554E  A$lcc8968
     00075550  A$lcc8968 |    00075552  A$lcc8968 |    00075554  A$lcc8968
     00075556  A$lcc8968 |    00075558  A$lcc8968 |    0007555A  A$lcc8968
     0007555D  A$lcc8968 |    0007555E  A$lcc8968 |    0007555E  C$level2.
     00075561  A$lcc8968 |    00075562  A$lcc8968 |    00075563  A$lcc8968
     00075564  A$lcc8968 |    00075566  A$lcc8968 |    00075568  A$lcc8968
     0007556A  A$lcc8968 |    0007556C  A$lcc8968 |    0007556E  A$lcc8968
     00075570  A$lcc8968 |    00075572  A$lcc8968 |    00075574  A$lcc8968
     00075575  A$lcc8968 |    00075578  A$lcc8968 |    00075579  A$lcc8968
     0007557C  A$lcc8968 |    0007557D  A$lcc8968 |    0007557E  A$lcc8968
     00075581  A$lcc8968 |    00075583  A$lcc8968 |    00075583  C$level2.
     00075586  A$lcc8968 |    00075587  A$lcc8968 |    00075589  A$lcc8968
     0007558C  A$lcc8968 |    0007558D  A$lcc8968 |    0007558F  A$lcc8968
     0007558F  C$level2. |    00075592  A$lcc8968 |    00075594  A$lcc8968
     00075596  A$lcc8968 |    00075596  C$level2. |    00075599  A$lcc8968
ASxxxx Linker V03.00 + NoICE + sdld,  page 146.
Hexadecimal  [32-Bits]

Area                       Addr        Size        Decimal Bytes (Attributes)
--------------------       ----        ----        ------- ----- ------------
_CODE_7                00074000    00002A50 =       10832. bytes (REL,CON)

        Value  Global            Value  Global            Value  Global    
        -----  ------            -----  ------            -----  ------    
     0007559A  A$lcc8968 |    0007559B  A$lcc8968 |    0007559C  A$lcc8968
     0007559E  A$lcc8968 |    000755A0  A$lcc8968 |    000755A2  A$lcc8968
     000755A4  A$lcc8968 |    000755A6  A$lcc8968 |    000755A8  A$lcc8968
     000755AA  A$lcc8968 |    000755AC  A$lcc8968 |    000755AD  A$lcc8968
     000755B0  A$lcc8968 |    000755B1  A$lcc8968 |    000755B4  A$lcc8968
     000755B5  A$lcc8968 |    000755B6  A$lcc8968 |    000755B9  A$lcc8968
     000755BB  A$lcc8968 |    000755BB  C$level2. |    000755BE  A$lcc8968
     000755BF  A$lcc8968 |    000755C0  A$lcc8968 |    000755C1  A$lcc8968
     000755C3  A$lcc8968 |    000755C5  A$lcc8968 |    000755C5  C$level2.
     000755C8  A$lcc8968 |    000755C9  A$lcc8968 |    000755CA  A$lcc8968
     000755CB  A$lcc8968 |    000755CC  A$lcc8968 |    000755CC  C$level2.
     000755CD  A$lcc8968 |    000755CF  A$lcc8968 |    000755D1  A$lcc8968
     000755D2  A$lcc8968 |    000755D3  A$lcc8968 |    000755D5  A$lcc8968
     000755D5  C$level2. |    000755D8  A$lcc8968 |    000755DA  A$lcc8968
     000755DB  A$lcc8968 |    000755DC  A$lcc8968 |    000755DD  A$lcc8968
     000755DE  A$lcc8968 |    000755DF  A$lcc8968 |    000755E1  A$lcc8968
     000755E1  C$level2. |    000755E2  A$lcc8968 |    000755E4  A$lcc8968
     000755E6  A$lcc8968 |    000755E7  A$lcc8968 |    000755E9  A$lcc8968
     000755EA  A$lcc8968 |    000755EC  A$lcc8968 |    000755EE  A$lcc8968
     000755F0  A$lcc8968 |    000755F2  A$lcc8968 |    000755F3  A$lcc8968
     000755F5  A$lcc8968 |    000755F7  A$lcc8968 |    000755F9  A$lcc8968
     000755FA  A$lcc8968 |    000755FC  A$lcc8968 |    000755FF  A$lcc8968
     00075601  A$lcc8968 |    00075603  A$lcc8968 |    00075603  C$level2.
     00075606  A$lcc8968 |    00075608  A$lcc8968 |    00075609  A$lcc8968
     0007560A  A$lcc8968 |    0007560B  A$lcc8968 |    0007560C  A$lcc8968
     0007560D  A$lcc8968 |    00075610  A$lcc8968 |    00075611  A$lcc8968
     00075612  A$lcc8968 |    00075613  A$lcc8968 |    00075613  C$level2.
     00075614  A$lcc8968 |    00075615  A$lcc8968 |    00075616  A$lcc8968
     00075617  A$lcc8968 |    00075618  A$lcc8968 |    0007561A  A$lcc8968
     0007561C  A$lcc8968 |    0007561E  A$lcc8968 |    00075620  A$lcc8968
     00075621  A$lcc8968 |    00075623  A$lcc8968 |    00075625  A$lcc8968
     00075627  A$lcc8968 |    00075628  A$lcc8968 |    0007562A  A$lcc8968
     0007562A  C$level2. |    0007562D  A$lcc8968 |    0007562E  A$lcc8968
     0007562F  A$lcc8968 |    00075630  A$lcc8968 |    00075631  A$lcc8968
     00075632  A$lcc8968 |    00075634  A$lcc8968 |    00075635  A$lcc8968
     00075636  A$lcc8968 |    00075636  C$level2. |    00075637  A$lcc8968
     00075639  A$lcc8968 |    0007563A  A$lcc8968 |    0007563C  A$lcc8968
     0007563C  C$level2. |    0007563F  A$lcc8968 |    00075640  A$lcc8968
     00075641  A$lcc8968 |    00075642  A$lcc8968 |    00075643  A$lcc8968
     00075644  A$lcc8968 |    00075646  A$lcc8968 |    00075646  C$level2.
     00075647  A$lcc8968 |    00075649  A$lcc8968 |    0007564A  A$lcc8968
     0007564B  A$lcc8968 |    0007564C  A$lcc8968 |    0007564D  A$lcc8968
     0007564F  A$lcc8968 |    00075651  A$lcc8968 |    00075654  A$lcc8968
     00075655  A$lcc8968 |    00075657  A$lcc8968 |    00075657  C$level2.
     0007565A  A$lcc8968 |    0007565C  A$lcc8968 |    0007565D  A$lcc8968
     0007565E  A$lcc8968 |    0007565F  A$lcc8968 |    00075660  A$lcc8968
     00075661  A$lcc8968 |    00075661  C$level2. |    00075664  A$lcc8968
     00075665  A$lcc8968 |    00075666  A$lcc8968 |    00075667  A$lcc8968
     00075667  C$level2. |    00075668  A$lcc8968 |    00075669  A$lcc8968
     0007566C  A$lcc8968 |    0007566C  C$level2. |    0007566F  A$lcc8968
     00075670  A$lcc8968 |    00075671  A$lcc8968 |    00075672  A$lcc8968
ASxxxx Linker V03.00 + NoICE + sdld,  page 147.
Hexadecimal  [32-Bits]

Area                       Addr        Size        Decimal Bytes (Attributes)
--------------------       ----        ----        ------- ----- ------------
_CODE_7                00074000    00002A50 =       10832. bytes (REL,CON)

        Value  Global            Value  Global            Value  Global    
        -----  ------            -----  ------            -----  ------    
     00075673  A$lcc8968 |    00075675  A$lcc8968 |    00075677  A$lcc8968
     00075679  A$lcc8968 |    0007567B  A$lcc8968 |    0007567D  A$lcc8968
     0007567F  A$lcc8968 |    00075681  A$lcc8968 |    00075683  A$lcc8968
     00075685  A$lcc8968 |    00075686  A$lcc8968 |    00075686  C$level2.
     00075689  A$lcc8968 |    0007568A  A$lcc8968 |    0007568B  A$lcc8968
     0007568C  A$lcc8968 |    0007568D  A$lcc8968 |    0007568F  A$lcc8968
     00075691  A$lcc8968 |    00075693  A$lcc8968 |    00075695  A$lcc8968
     00075697  A$lcc8968 |    00075699  A$lcc8968 |    0007569B  A$lcc8968
     0007569D  A$lcc8968 |    0007569F  A$lcc8968 |    000756A0  A$lcc8968
     000756A0  C$level2. |    000756A0  C$level2. |    000756A1  A$lcc8968
     000756A2  A$lcc8968 |    000756A3  A$lcc8968 |    000756A4  A$lcc8968
     000756A5  A$lcc8968 |    000756A7  A$lcc8968 |    000756A9  A$lcc8968
     000756AB  A$lcc8968 |    000756AD  A$lcc8968 |    000756AE  A$lcc8968
     000756B0  A$lcc8968 |    000756B2  A$lcc8968 |    000756B4  A$lcc8968
     000756B5  A$lcc8968 |    000756B7  A$lcc8968 |    000756B7  C$level2.
     000756BA  A$lcc8968 |    000756BB  A$lcc8968 |    000756BC  A$lcc8968
     000756BD  A$lcc8968 |    000756BF  A$lcc8968 |    000756C1  A$lcc8968
     000756C3  A$lcc8968 |    000756C5  A$lcc8968 |    000756C7  A$lcc8968
     000756C9  A$lcc8968 |    000756CB  A$lcc8968 |    000756CD  A$lcc8968
     000756CF  A$lcc8968 |    000756D0  A$lcc8968 |    000756D1  A$lcc8968
     000756D2  A$lcc8968 |    000756D3  A$lcc8968 |    000756D4  A$lcc8968
     000756D5  A$lcc8968 |    000756D6  A$lcc8968 |    000756D7  A$lcc8968
     000756DA  A$lcc8968 |    000756DC  A$lcc8968 |    000756DE  A$lcc8968
     000756DE  C$level2. |    000756E0  A$lcc8968 |    000756E2  A$lcc8968
     000756E2  C$level2. |    000756E5  A$lcc8968 |    000756E6  A$lcc8968
     000756E7  A$lcc8968 |    000756E8  A$lcc8968 |    000756EA  A$lcc8968
     000756EC  A$lcc8968 |    000756EE  A$lcc8968 |    000756F0  A$lcc8968
     000756F2  A$lcc8968 |    000756F4  A$lcc8968 |    000756F6  A$lcc8968
     000756F8  A$lcc8968 |    000756FA  A$lcc8968 |    000756FB  A$lcc8968
     000756FC  A$lcc8968 |    000756FD  A$lcc8968 |    000756FE  A$lcc8968
     000756FF  A$lcc8968 |    00075700  A$lcc8968 |    00075701  A$lcc8968
     00075702  A$lcc8968 |    00075705  A$lcc8968 |    00075707  A$lcc8968
     00075707  C$level2. |    0007570A  A$lcc8968 |    0007570B  A$lcc8968
     0007570D  A$lcc8968 |    0007570D  C$level2. |    00075710  A$lcc8968
     00075711  A$lcc8968 |    00075712  A$lcc8968 |    00075713  A$lcc8968
     00075716  A$lcc8968 |    00075717  A$lcc8968 |    00075718  A$lcc8968
     00075719  A$lcc8968 |    0007571A  A$lcc8968 |    0007571B  A$lcc8968
     0007571C  A$lcc8968 |    0007571F  A$lcc8968 |    00075720  A$lcc8968
     00075721  A$lcc8968 |    00075722  A$lcc8968 |    00075722  C$level2.
     00075725  A$lcc8968 |    00075726  A$lcc8968 |    00075727  A$lcc8968
     00075728  A$lcc8968 |    0007572A  A$lcc8968 |    0007572C  A$lcc8968
     0007572E  A$lcc8968 |    00075730  A$lcc8968 |    00075732  A$lcc8968
     00075734  A$lcc8968 |    00075736  A$lcc8968 |    00075738  A$lcc8968
     0007573B  A$lcc8968 |    0007573C  A$lcc8968 |    0007573C  C$level2.
     0007573F  A$lcc8968 |    00075740  A$lcc8968 |    00075741  A$lcc8968
     00075742  A$lcc8968 |    00075744  A$lcc8968 |    00075746  A$lcc8968
     00075748  A$lcc8968 |    0007574A  A$lcc8968 |    0007574C  A$lcc8968
     0007574E  A$lcc8968 |    00075750  A$lcc8968 |    00075752  A$lcc8968
     00075755  A$lcc8968 |    00075756  A$lcc8968 |    00075756  C$level2.
     00075759  A$lcc8968 |    0007575A  A$lcc8968 |    0007575C  A$lcc8968
     0007575F  A$lcc8968 |    00075760  A$lcc8968 |    00075762  A$lcc8968
ASxxxx Linker V03.00 + NoICE + sdld,  page 148.
Hexadecimal  [32-Bits]

Area                       Addr        Size        Decimal Bytes (Attributes)
--------------------       ----        ----        ------- ----- ------------
_CODE_7                00074000    00002A50 =       10832. bytes (REL,CON)

        Value  Global            Value  Global            Value  Global    
        -----  ------            -----  ------            -----  ------    
     00075765  A$lcc8968 |    00075767  A$lcc8968 |    00075769  A$lcc8968
     0007576B  A$lcc8968 |    0007576D  A$lcc8968 |    00075770  A$lcc8968
     00075771  A$lcc8968 |    00075773  A$lcc8968 |    00075773  C$level2.
     00075776  A$lcc8968 |    00075777  A$lcc8968 |    00075778  A$lcc8968
     0007577A  A$lcc8968 |    0007577D  A$lcc8968 |    0007577E  A$lcc8968
     0007577F  A$lcc8968 |    00075781  A$lcc8968 |    00075784  A$lcc8968
     00075784  C$level2. |    00075786  A$lcc8968 |    00075788  A$lcc8968
     00075789  A$lcc8968 |    0007578B  A$lcc8968 |    0007578B  C$level2.
     0007578E  A$lcc8968 |    0007578E  C$level2. |    00075791  A$lcc8968
     00075792  A$lcc8968 |    00075793  A$lcc8968 |    00075794  A$lcc8968
     00075796  A$lcc8968 |    00075798  A$lcc8968 |    0007579A  A$lcc8968
     0007579C  A$lcc8968 |    0007579E  A$lcc8968 |    000757A0  A$lcc8968
     000757A2  A$lcc8968 |    000757A4  A$lcc8968 |    000757A5  A$lcc8968
     000757A8  A$lcc8968 |    000757A9  A$lcc8968 |    000757AC  A$lcc8968
     000757AD  A$lcc8968 |    000757AE  A$lcc8968 |    000757B1  A$lcc8968
     000757B3  A$lcc8968 |    000757B6  A$lcc8968 |    000757B7  A$lcc8968
     000757B9  A$lcc8968 |    000757BC  A$lcc8968 |    000757BD  A$lcc8968
     000757BF  A$lcc8968 |    000757BF  C$level2. |    000757C2  A$lcc8968
     000757C2  C$level2. |    000757C4  A$lcc8968 |    000757C6  A$lcc8968
     000757C7  A$lcc8968 |    000757C9  A$lcc8968 |    000757CC  A$lcc8968
     000757CD  A$lcc8968 |    000757CE  A$lcc8968 |    000757D0  A$lcc8968
     000757D0  C$level2. |    000757D3  A$lcc8968 |    000757D3  C$level2.
     000757D6  A$lcc8968 |    000757D7  A$lcc8968 |    000757D8  A$lcc8968
     000757DA  A$lcc8968 |    000757DA  C$level2. |    000757DD  A$lcc8968
     000757DE  A$lcc8968 |    000757E1  A$lcc8968 |    000757E2  A$lcc8968
     000757E5  A$lcc8968 |    000757E5  C$level2. |    000757E8  A$lcc8968
     000757E9  A$lcc8968 |    000757EA  A$lcc8968 |    000757EC  A$lcc8968
     000757EC  C$level2. |    000757EF  A$lcc8968 |    000757F0  A$lcc8968
     000757F3  A$lcc8968 |    000757F4  A$lcc8968 |    000757F7  A$lcc8968
     000757F7  C$level2. |    000757FA  A$lcc8968 |    000757FA  C$level2.
     000757FD  A$lcc8968 |    000757FE  A$lcc8968 |    00075800  A$lcc8968
     00075800  C$level2. |    00075803  A$lcc8968 |    00075803  C$level2.
     00075806  A$lcc8968 |    00075806  C$level2. |    00075809  A$lcc8968
     00075809  C$level2. |    0007580C  A$lcc8968 |    0007580E  A$lcc8968
     0007580E  C$level2. |    00075811  A$lcc8968 |    00075813  A$lcc8968
     00075813  C$level2. |    00075816  A$lcc8968 |    00075818  A$lcc8968
     0007581A  A$lcc8968 |    0007581A  C$level2. |    0007581D  A$lcc8968
     0007581D  C$level2. |    00075820  A$lcc8968 |    00075820  C$level2.
     00075823  A$lcc8968 |    00075824  A$lcc8968 |    00075826  A$lcc8968
     00075826  C$level2. |    00075829  A$lcc8968 |    0007582C  A$lcc8968
     0007582C  C$level2. |    0007582F  A$lcc8968 |    00075830  A$lcc8968
     00075831  A$lcc8968 |    00075834  A$lcc8968 |    00075834  C$level2.
     00075836  A$lcc8968 |    00075836  C$level2. |    00075839  A$lcc8968
     0007583B  A$lcc8968 |    0007583E  A$lcc8968 |    0007583F  A$lcc8968
     00075840  A$lcc8968 |    00075840  C$level2. |    00075840  XG$enter_
     00075841  G$LEVEL_2 |    00075841  _LEVEL_2_
ASxxxx Linker V03.00 + NoICE + sdld,  page 149.
Hexadecimal  [32-Bits]

Area                       Addr        Size        Decimal Bytes (Attributes)
--------------------       ----        ----        ------- ----- ------------
_CODE_100              00644000    00001AFB =        6907. bytes (REL,CON)

        Value  Global            Value  Global            Value  Global    
        -----  ------            -----  ------            -----  ------    
     00644000  A$lcc8968 |    00644000  C$worldte |    00644000  G$anim_wo
     00644000  _anim_wor |    00644002  A$lcc8968 |    00644002  C$worldte
     00644003  A$lcc8968 |    00644005  A$lcc8968 |    00644006  A$lcc8968
     00644007  A$lcc8968 |    00644007  C$worldte |    00644009  A$lcc8968
     0064400B  A$lcc8968 |    0064400B  C$worldte |    0064400E  A$lcc8968
     00644010  A$lcc8968 |    00644011  A$lcc8968 |    00644011  C$worldte
     00644014  A$lcc8968 |    00644016  A$lcc8968 |    00644017  A$lcc8968
     00644017  C$worldte |    0064401A  A$lcc8968 |    0064401C  A$lcc8968
     0064401D  A$lcc8968 |    00644020  A$lcc8968 |    00644021  A$lcc8968
     00644023  A$lcc8968 |    00644023  C$worldte |    00644026  A$lcc8968
     00644027  A$lcc8968 |    00644027  C$worldte |    0064402A  A$lcc8968
     0064402B  A$lcc8968 |    0064402E  A$lcc8968 |    00644031  A$lcc8968
     00644033  A$lcc8968 |    00644036  A$lcc8968 |    00644038  A$lcc8968
     0064403B  A$lcc8968 |    0064403E  A$lcc8968 |    0064403E  C$worldte
     0064403E  C$worldte |    00644041  A$lcc8968 |    00644043  A$lcc8968
     00644044  A$lcc8968 |    00644046  A$lcc8968 |    00644046  C$worldte
     00644048  A$lcc8968 |    00644049  A$lcc8968 |    0064404B  A$lcc8968
     0064404C  A$lcc8968 |    0064404C  C$worldte |    0064404E  A$lcc8968
     00644050  A$lcc8968 |    00644051  A$lcc8968 |    00644053  A$lcc8968
     00644053  C$worldte |    00644056  A$lcc8968 |    00644057  A$lcc8968
     0064405A  A$lcc8968 |    0064405A  C$worldte |    0064405D  A$lcc8968
     0064405F  A$lcc8968 |    00644061  A$lcc8968 |    00644061  C$worldte
     00644064  A$lcc8968 |    00644066  A$lcc8968 |    00644066  C$worldte
     00644069  A$lcc8968 |    0064406C  A$lcc8968 |    0064406D  A$lcc8968
     0064406E  A$lcc8968 |    0064406F  A$lcc8968 |    0064406F  C$worldte
     00644071  A$lcc8968 |    00644072  A$lcc8968 |    00644073  A$lcc8968
     00644074  A$lcc8968 |    00644074  C$worldte |    00644076  A$lcc8968
     00644077  A$lcc8968 |    00644078  A$lcc8968 |    00644079  A$lcc8968
     00644079  C$worldte |    0064407C  A$lcc8968 |    0064407D  A$lcc8968
     0064407E  A$lcc8968 |    0064407F  A$lcc8968 |    00644080  A$lcc8968
     00644083  A$lcc8968 |    00644084  A$lcc8968 |    00644085  A$lcc8968
     00644085  C$worldte |    00644086  A$lcc8968 |    00644089  A$lcc8968
     0064408A  A$lcc8968 |    0064408B  A$lcc8968 |    0064408C  A$lcc8968
     0064408D  A$lcc8968 |    0064408E  A$lcc8968 |    0064408F  A$lcc8968
     00644090  A$lcc8968 |    00644093  A$lcc8968 |    00644095  A$lcc8968
     00644098  A$lcc8968 |    00644098  C$worldte |    0064409A  A$lcc8968
     0064409D  A$lcc8968 |    0064409D  C$worldte |    006440A0  A$lcc8968
     006440A2  A$lcc8968 |    006440A2  C$worldte |    006440A5  A$lcc8968
     006440A8  A$lcc8968 |    006440A9  A$lcc8968 |    006440AA  A$lcc8968
     006440AB  A$lcc8968 |    006440AB  C$worldte |    006440AD  A$lcc8968
     006440AE  A$lcc8968 |    006440AF  A$lcc8968 |    006440AF  C$worldte
     006440B1  A$lcc8968 |    006440B2  A$lcc8968 |    006440B3  A$lcc8968
     006440B4  A$lcc8968 |    006440B4  C$worldte |    006440B7  A$lcc8968
     006440B8  A$lcc8968 |    006440B9  A$lcc8968 |    006440BA  A$lcc8968
     006440BB  A$lcc8968 |    006440BE  A$lcc8968 |    006440BF  A$lcc8968
     006440C0  A$lcc8968 |    006440C0  C$worldte |    006440C1  A$lcc8968
     006440C4  A$lcc8968 |    006440C5  A$lcc8968 |    006440C6  A$lcc8968
     006440C7  A$lcc8968 |    006440C8  A$lcc8968 |    006440C9  A$lcc8968
     006440CA  A$lcc8968 |    006440CB  A$lcc8968 |    006440CE  A$lcc8968
     006440D0  A$lcc8968 |    006440D0  C$worldte |    006440D3  A$lcc8968
ASxxxx Linker V03.00 + NoICE + sdld,  page 150.
Hexadecimal  [32-Bits]

Area                       Addr        Size        Decimal Bytes (Attributes)
--------------------       ----        ----        ------- ----- ------------
_CODE_100              00644000    00001AFB =        6907. bytes (REL,CON)

        Value  Global            Value  Global            Value  Global    
        -----  ------            -----  ------            -----  ------    
     006440D3  C$worldte |    006440D3  C$worldte |    006440D6  A$lcc8968
     006440D8  A$lcc8968 |    006440D9  A$lcc8968 |    006440DB  A$lcc8968
     006440DB  C$worldte |    006440DD  A$lcc8968 |    006440DE  A$lcc8968
     006440DF  A$lcc8968 |    006440DF  C$worldte |    006440E1  A$lcc8968
     006440E3  A$lcc8968 |    006440E4  A$lcc8968 |    006440E6  A$lcc8968
     006440E6  C$worldte |    006440E9  A$lcc8968 |    006440EA  A$lcc8968
     006440ED  A$lcc8968 |    006440ED  C$worldte |    006440F0  A$lcc8968
     006440F2  A$lcc8968 |    006440F4  A$lcc8968 |    006440F4  C$worldte
     006440F7  A$lcc8968 |    006440F9  A$lcc8968 |    006440F9  C$worldte
     006440FC  A$lcc8968 |    006440FF  A$lcc8968 |    00644100  A$lcc8968
     00644101  A$lcc8968 |    00644102  A$lcc8968 |    00644102  C$worldte
     00644104  A$lcc8968 |    00644105  A$lcc8968 |    00644105  C$worldte
     00644107  A$lcc8968 |    00644108  A$lcc8968 |    00644109  A$lcc8968
     0064410A  A$lcc8968 |    0064410A  C$worldte |    0064410D  A$lcc8968
     0064410E  A$lcc8968 |    0064410F  A$lcc8968 |    00644110  A$lcc8968
     00644111  A$lcc8968 |    00644114  A$lcc8968 |    00644115  A$lcc8968
     00644116  A$lcc8968 |    00644116  C$worldte |    00644117  A$lcc8968
     0064411A  A$lcc8968 |    0064411B  A$lcc8968 |    0064411C  A$lcc8968
     0064411D  A$lcc8968 |    0064411E  A$lcc8968 |    0064411F  A$lcc8968
     00644120  A$lcc8968 |    00644121  A$lcc8968 |    00644124  A$lcc8968
     00644126  A$lcc8968 |    00644129  A$lcc8968 |    00644129  C$worldte
     0064412B  A$lcc8968 |    0064412E  A$lcc8968 |    0064412E  C$worldte
     00644131  A$lcc8968 |    00644133  A$lcc8968 |    00644133  C$worldte
     00644136  A$lcc8968 |    00644139  A$lcc8968 |    0064413A  A$lcc8968
     0064413B  A$lcc8968 |    0064413C  A$lcc8968 |    0064413C  C$worldte
     0064413E  A$lcc8968 |    0064413F  A$lcc8968 |    00644141  A$lcc8968
     00644142  A$lcc8968 |    00644142  C$worldte |    00644144  A$lcc8968
     00644145  A$lcc8968 |    00644146  A$lcc8968 |    00644147  A$lcc8968
     00644147  C$worldte |    0064414A  A$lcc8968 |    0064414B  A$lcc8968
     0064414C  A$lcc8968 |    0064414D  A$lcc8968 |    0064414E  A$lcc8968
     00644151  A$lcc8968 |    00644152  A$lcc8968 |    00644153  A$lcc8968
     00644153  C$worldte |    00644154  A$lcc8968 |    00644157  A$lcc8968
     00644158  A$lcc8968 |    00644159  A$lcc8968 |    0064415A  A$lcc8968
     0064415B  A$lcc8968 |    0064415C  A$lcc8968 |    0064415D  A$lcc8968
     0064415E  A$lcc8968 |    00644161  A$lcc8968 |    00644163  A$lcc8968
     00644163  C$worldte |    00644166  A$lcc8968 |    00644166  C$worldte
     00644166  C$worldte |    00644169  A$lcc8968 |    0064416C  A$lcc8968
     0064416D  A$lcc8968 |    0064416E  A$lcc8968 |    0064416F  A$lcc8968
     0064416F  C$worldte |    00644171  A$lcc8968 |    00644172  A$lcc8968
     00644172  C$worldte |    00644174  A$lcc8968 |    00644175  A$lcc8968
     00644176  A$lcc8968 |    00644177  A$lcc8968 |    00644177  C$worldte
     0064417A  A$lcc8968 |    0064417B  A$lcc8968 |    0064417E  A$lcc8968
     0064417E  C$worldte |    00644181  A$lcc8968 |    00644182  A$lcc8968
     00644184  A$lcc8968 |    00644184  C$worldte |    00644187  A$lcc8968
     00644189  A$lcc8968 |    00644189  C$worldte |    0064418C  A$lcc8968
     0064418F  A$lcc8968 |    00644190  A$lcc8968 |    00644191  A$lcc8968
     00644192  A$lcc8968 |    00644192  C$worldte |    00644194  A$lcc8968
     00644195  A$lcc8968 |    00644196  A$lcc8968 |    00644196  C$worldte
     00644198  A$lcc8968 |    00644199  A$lcc8968 |    0064419A  A$lcc8968
     0064419B  A$lcc8968 |    0064419B  C$worldte |    0064419E  A$lcc8968
     0064419F  A$lcc8968 |    006441A0  A$lcc8968 |    006441A1  A$lcc8968
ASxxxx Linker V03.00 + NoICE + sdld,  page 151.
Hexadecimal  [32-Bits]

Area                       Addr        Size        Decimal Bytes (Attributes)
--------------------       ----        ----        ------- ----- ------------
_CODE_100              00644000    00001AFB =        6907. bytes (REL,CON)

        Value  Global            Value  Global            Value  Global    
        -----  ------            -----  ------            -----  ------    
     006441A2  A$lcc8968 |    006441A5  A$lcc8968 |    006441A6  A$lcc8968
     006441A7  A$lcc8968 |    006441A7  C$worldte |    006441A8  A$lcc8968
     006441AB  A$lcc8968 |    006441AC  A$lcc8968 |    006441AD  A$lcc8968
     006441AE  A$lcc8968 |    006441AF  A$lcc8968 |    006441B0  A$lcc8968
     006441B1  A$lcc8968 |    006441B2  A$lcc8968 |    006441B5  A$lcc8968
     006441B7  A$lcc8968 |    006441BA  A$lcc8968 |    006441BA  C$worldte
     006441BC  A$lcc8968 |    006441BF  A$lcc8968 |    006441BF  C$worldte
     006441C2  A$lcc8968 |    006441C4  A$lcc8968 |    006441C4  C$worldte
     006441C7  A$lcc8968 |    006441CA  A$lcc8968 |    006441CB  A$lcc8968
     006441CC  A$lcc8968 |    006441CD  A$lcc8968 |    006441CD  C$worldte
     006441CF  A$lcc8968 |    006441D0  A$lcc8968 |    006441D1  A$lcc8968
     006441D2  A$lcc8968 |    006441D2  C$worldte |    006441D4  A$lcc8968
     006441D5  A$lcc8968 |    006441D6  A$lcc8968 |    006441D7  A$lcc8968
     006441D7  C$worldte |    006441DA  A$lcc8968 |    006441DB  A$lcc8968
     006441DC  A$lcc8968 |    006441DD  A$lcc8968 |    006441DE  A$lcc8968
     006441E1  A$lcc8968 |    006441E2  A$lcc8968 |    006441E3  A$lcc8968
     006441E3  C$worldte |    006441E4  A$lcc8968 |    006441E7  A$lcc8968
     006441E8  A$lcc8968 |    006441E9  A$lcc8968 |    006441EA  A$lcc8968
     006441EB  A$lcc8968 |    006441EC  A$lcc8968 |    006441ED  A$lcc8968
     006441EE  A$lcc8968 |    006441F1  A$lcc8968 |    006441F3  A$lcc8968
     006441F3  C$worldte |    006441F6  A$lcc8968 |    006441F6  C$worldte
     006441F6  C$worldte |    006441F9  A$lcc8968 |    006441FC  A$lcc8968
     006441FD  A$lcc8968 |    006441FE  A$lcc8968 |    006441FF  A$lcc8968
     006441FF  C$worldte |    00644201  A$lcc8968 |    00644202  A$lcc8968
     00644203  A$lcc8968 |    00644204  A$lcc8968 |    00644204  C$worldte
     00644206  A$lcc8968 |    00644207  A$lcc8968 |    00644208  A$lcc8968
     00644209  A$lcc8968 |    00644209  C$worldte |    0064420C  A$lcc8968
     0064420D  A$lcc8968 |    0064420F  A$lcc8968 |    0064420F  C$worldte
     00644212  A$lcc8968 |    00644213  A$lcc8968 |    00644215  A$lcc8968
     00644215  C$worldte |    00644218  A$lcc8968 |    0064421A  A$lcc8968
     0064421A  C$worldte |    0064421D  A$lcc8968 |    00644220  A$lcc8968
     00644221  A$lcc8968 |    00644222  A$lcc8968 |    00644223  A$lcc8968
     00644223  C$worldte |    00644225  A$lcc8968 |    00644226  A$lcc8968
     00644228  A$lcc8968 |    00644229  A$lcc8968 |    00644229  C$worldte
     0064422B  A$lcc8968 |    0064422C  A$lcc8968 |    0064422D  A$lcc8968
     0064422E  A$lcc8968 |    0064422E  C$worldte |    00644231  A$lcc8968
     00644232  A$lcc8968 |    00644233  A$lcc8968 |    00644234  A$lcc8968
     00644235  A$lcc8968 |    00644238  A$lcc8968 |    00644239  A$lcc8968
     0064423A  A$lcc8968 |    0064423A  C$worldte |    0064423B  A$lcc8968
     0064423E  A$lcc8968 |    0064423F  A$lcc8968 |    00644240  A$lcc8968
     00644241  A$lcc8968 |    00644242  A$lcc8968 |    00644243  A$lcc8968
     00644244  A$lcc8968 |    00644245  A$lcc8968 |    00644248  A$lcc8968
     0064424A  A$lcc8968 |    0064424C  A$lcc8968 |    0064424C  C$worldte
     0064424E  A$lcc8968 |    00644250  A$lcc8968 |    00644250  C$worldte
     00644253  A$lcc8968 |    00644255  A$lcc8968 |    00644255  C$worldte
     00644258  A$lcc8968 |    0064425B  A$lcc8968 |    0064425C  A$lcc8968
     0064425D  A$lcc8968 |    0064425E  A$lcc8968 |    0064425E  C$worldte
     00644260  A$lcc8968 |    00644261  A$lcc8968 |    00644261  C$worldte
     00644263  A$lcc8968 |    00644264  A$lcc8968 |    00644265  A$lcc8968
     00644266  A$lcc8968 |    00644266  C$worldte |    00644269  A$lcc8968
     0064426A  A$lcc8968 |    0064426B  A$lcc8968 |    0064426C  A$lcc8968
ASxxxx Linker V03.00 + NoICE + sdld,  page 152.
Hexadecimal  [32-Bits]

Area                       Addr        Size        Decimal Bytes (Attributes)
--------------------       ----        ----        ------- ----- ------------
_CODE_100              00644000    00001AFB =        6907. bytes (REL,CON)

        Value  Global            Value  Global            Value  Global    
        -----  ------            -----  ------            -----  ------    
     0064426D  A$lcc8968 |    00644270  A$lcc8968 |    00644271  A$lcc8968
     00644272  A$lcc8968 |    00644272  C$worldte |    00644273  A$lcc8968
     00644276  A$lcc8968 |    00644277  A$lcc8968 |    00644278  A$lcc8968
     00644279  A$lcc8968 |    0064427A  A$lcc8968 |    0064427B  A$lcc8968
     0064427C  A$lcc8968 |    0064427D  A$lcc8968 |    00644280  A$lcc8968
     00644282  A$lcc8968 |    00644282  C$worldte |    00644282  C$worldte
     00644284  A$lcc8968 |    00644285  A$lcc8968 |    00644286  A$lcc8968
     00644289  A$lcc8968 |    00644289  C$worldte |    0064428B  A$lcc8968
     0064428C  A$lcc8968 |    0064428D  A$lcc8968 |    0064428E  A$lcc8968
     0064428F  A$lcc8968 |    00644290  A$lcc8968 |    00644291  A$lcc8968
     00644292  A$lcc8968 |    00644293  A$lcc8968 |    00644295  A$lcc8968
     00644296  A$lcc8968 |    00644297  A$lcc8968 |    00644298  A$lcc8968
     0064429A  A$lcc8968 |    0064429A  C$worldte |    0064429B  A$lcc8968
     0064429C  A$lcc8968 |    0064429D  A$lcc8968 |    0064429E  A$lcc8968
     0064429F  A$lcc8968 |    006442A0  A$lcc8968 |    006442A2  A$lcc8968
     006442A3  A$lcc8968 |    006442A4  A$lcc8968 |    006442A5  A$lcc8968
     006442A6  A$lcc8968 |    006442A7  A$lcc8968 |    006442A8  A$lcc8968
     006442A9  A$lcc8968 |    006442AA  A$lcc8968 |    006442AB  A$lcc8968
     006442AC  A$lcc8968 |    006442AD  A$lcc8968 |    006442AE  A$lcc8968
     006442B0  A$lcc8968 |    006442B1  A$lcc8968 |    006442B2  A$lcc8968
     006442B4  A$lcc8968 |    006442B6  A$lcc8968 |    006442B7  A$lcc8968
     006442B8  A$lcc8968 |    006442B9  A$lcc8968 |    006442B9  C$worldte
     006442BC  A$lcc8968 |    006442BD  A$lcc8968 |    006442BE  A$lcc8968
     006442BF  A$lcc8968 |    006442C2  A$lcc8968 |    006442C3  A$lcc8968
     006442C4  A$lcc8968 |    006442C5  A$lcc8968 |    006442C6  A$lcc8968
     006442C7  A$lcc8968 |    006442C8  A$lcc8968 |    006442CB  A$lcc8968
     006442CC  A$lcc8968 |    006442CD  A$lcc8968 |    006442CE  A$lcc8968
     006442CE  C$worldte |    006442D0  A$lcc8968 |    006442D1  A$lcc8968
     006442D2  A$lcc8968 |    006442D5  A$lcc8968 |    006442D5  C$worldte
     006442D8  A$lcc8968 |    006442D9  A$lcc8968 |    006442DC  A$lcc8968
     006442DF  A$lcc8968 |    006442E0  A$lcc8968 |    006442E0  C$worldte
     006442E2  A$lcc8968 |    006442E3  A$lcc8968 |    006442E4  A$lcc8968
     006442E5  A$lcc8968 |    006442E8  A$lcc8968 |    006442E9  A$lcc8968
     006442EA  A$lcc8968 |    006442EB  A$lcc8968 |    006442ED  A$lcc8968
     006442EE  A$lcc8968 |    006442EF  A$lcc8968 |    006442F0  A$lcc8968
     006442F2  A$lcc8968 |    006442F3  A$lcc8968 |    006442F3  C$worldte
     006442F5  A$lcc8968 |    006442F6  A$lcc8968 |    006442F7  A$lcc8968
     006442F8  A$lcc8968 |    006442FB  A$lcc8968 |    006442FC  A$lcc8968
     006442FD  A$lcc8968 |    006442FE  A$lcc8968 |    00644300  A$lcc8968
     00644301  A$lcc8968 |    00644302  A$lcc8968 |    00644303  A$lcc8968
     00644305  A$lcc8968 |    00644306  A$lcc8968 |    00644306  C$worldte
     00644307  A$lcc8968 |    00644308  A$lcc8968 |    0064430A  A$lcc8968
     0064430B  A$lcc8968 |    0064430C  A$lcc8968 |    0064430E  A$lcc8968
     0064430F  A$lcc8968 |    00644311  A$lcc8968 |    00644313  A$lcc8968
     00644315  A$lcc8968 |    00644317  A$lcc8968 |    00644319  A$lcc8968
     00644319  C$worldte |    00644319  C$worldte |    0064431B  A$lcc8968
     0064431C  A$lcc8968 |    0064431D  A$lcc8968 |    0064431E  A$lcc8968
     00644320  A$lcc8968 |    00644320  C$worldte |    00644322  A$lcc8968
     00644323  A$lcc8968 |    00644324  A$lcc8968 |    00644325  A$lcc8968
     00644327  A$lcc8968 |    00644327  C$worldte |    00644329  A$lcc8968
     00644329  C$worldte |    00644329  C$worldte |    0064432B  A$lcc8968
ASxxxx Linker V03.00 + NoICE + sdld,  page 153.
Hexadecimal  [32-Bits]

Area                       Addr        Size        Decimal Bytes (Attributes)
--------------------       ----        ----        ------- ----- ------------
_CODE_100              00644000    00001AFB =        6907. bytes (REL,CON)

        Value  Global            Value  Global            Value  Global    
        -----  ------            -----  ------            -----  ------    
     0064432C  A$lcc8968 |    0064432D  A$lcc8968 |    0064432E  A$lcc8968
     00644330  A$lcc8968 |    00644330  C$worldte |    00644332  A$lcc8968
     00644333  A$lcc8968 |    00644334  A$lcc8968 |    00644335  A$lcc8968
     00644337  A$lcc8968 |    00644337  C$worldte |    00644339  A$lcc8968
     00644339  C$worldte |    00644339  C$worldte |    0064433B  A$lcc8968
     0064433C  A$lcc8968 |    0064433D  A$lcc8968 |    0064433E  A$lcc8968
     00644340  A$lcc8968 |    00644340  C$worldte |    00644342  A$lcc8968
     00644343  A$lcc8968 |    00644344  A$lcc8968 |    00644345  A$lcc8968
     00644347  A$lcc8968 |    00644347  C$worldte |    00644349  A$lcc8968
     00644349  C$worldte |    00644349  C$worldte |    0064434B  A$lcc8968
     0064434C  A$lcc8968 |    0064434D  A$lcc8968 |    0064434E  A$lcc8968
     00644350  A$lcc8968 |    00644350  C$worldte |    00644352  A$lcc8968
     00644353  A$lcc8968 |    00644354  A$lcc8968 |    00644355  A$lcc8968
     00644357  A$lcc8968 |    00644357  C$worldte |    00644357  C$worldte
     00644359  A$lcc8968 |    0064435A  A$lcc8968 |    0064435B  A$lcc8968
     0064435C  A$lcc8968 |    0064435D  A$lcc8968 |    0064435E  A$lcc8968
     00644361  A$lcc8968 |    00644363  A$lcc8968 |    00644364  A$lcc8968
     00644365  A$lcc8968 |    00644366  A$lcc8968 |    00644369  A$lcc8968
     0064436A  A$lcc8968 |    0064436B  A$lcc8968 |    0064436C  A$lcc8968
     0064436D  A$lcc8968 |    0064436E  A$lcc8968 |    00644371  A$lcc8968
     00644373  A$lcc8968 |    00644374  A$lcc8968 |    00644375  A$lcc8968
     00644376  A$lcc8968 |    00644379  A$lcc8968 |    0064437A  A$lcc8968
     0064437B  A$lcc8968 |    0064437C  A$lcc8968 |    0064437D  A$lcc8968
     0064437F  A$lcc8968 |    00644380  A$lcc8968 |    00644380  C$worldte
     00644382  A$lcc8968 |    00644383  A$lcc8968 |    00644384  A$lcc8968
     00644385  A$lcc8968 |    00644388  A$lcc8968 |    00644389  A$lcc8968
     0064438A  A$lcc8968 |    0064438B  A$lcc8968 |    0064438C  A$lcc8968
     0064438C  C$worldte |    0064438E  A$lcc8968 |    0064438F  A$lcc8968
     00644390  A$lcc8968 |    00644391  A$lcc8968 |    00644394  A$lcc8968
     00644395  A$lcc8968 |    00644396  A$lcc8968 |    00644397  A$lcc8968
     00644399  A$lcc8968 |    0064439A  A$lcc8968 |    0064439B  A$lcc8968
     0064439C  A$lcc8968 |    0064439E  A$lcc8968 |    0064439F  A$lcc8968
     006443A0  A$lcc8968 |    006443A1  A$lcc8968 |    006443A2  A$lcc8968
     006443A5  A$lcc8968 |    006443A6  A$lcc8968 |    006443A7  A$lcc8968
     006443A8  A$lcc8968 |    006443AA  A$lcc8968 |    006443AB  A$lcc8968
     006443AC  A$lcc8968 |    006443AD  A$lcc8968 |    006443AF  A$lcc8968
     006443B0  A$lcc8968 |    006443B0  C$scene.h |    006443B2  A$lcc8968
     006443B3  A$lcc8968 |    006443B4  A$lcc8968 |    006443B5  A$lcc8968
     006443B8  A$lcc8968 |    006443B9  A$lcc8968 |    006443BA  A$lcc8968
     006443BB  A$lcc8968 |    006443BD  A$lcc8968 |    006443BE  A$lcc8968
     006443BF  A$lcc8968 |    006443C0  A$lcc8968 |    006443C2  A$lcc8968
     006443C3  A$lcc8968 |    006443C3  C$scene.h |    006443C5  A$lcc8968
     006443C6  A$lcc8968 |    006443C7  A$lcc8968 |    006443C8  A$lcc8968
     006443CB  A$lcc8968 |    006443CC  A$lcc8968 |    006443CD  A$lcc8968
     006443CE  A$lcc8968 |    006443D0  A$lcc8968 |    006443D1  A$lcc8968
     006443D2  A$lcc8968 |    006443D3  A$lcc8968 |    006443D5  A$lcc8968
     006443D6  A$lcc8968 |    006443D6  C$worldte |    006443D8  A$lcc8968
     006443D9  A$lcc8968 |    006443DA  A$lcc8968 |    006443DB  A$lcc8968
     006443DE  A$lcc8968 |    006443DF  A$lcc8968 |    006443E0  A$lcc8968
     006443E1  A$lcc8968 |    006443E3  A$lcc8968 |    006443E4  A$lcc8968
     006443E5  A$lcc8968 |    006443E6  A$lcc8968 |    006443E8  A$lcc8968
ASxxxx Linker V03.00 + NoICE + sdld,  page 154.
Hexadecimal  [32-Bits]

Area                       Addr        Size        Decimal Bytes (Attributes)
--------------------       ----        ----        ------- ----- ------------
_CODE_100              00644000    00001AFB =        6907. bytes (REL,CON)

        Value  Global            Value  Global            Value  Global    
        -----  ------            -----  ------            -----  ------    
     006443E8  C$worldte |    006443E9  A$lcc8968 |    006443EA  A$lcc8968
     006443EB  A$lcc8968 |    006443EC  A$lcc8968 |    006443EF  A$lcc8968
     006443EF  C$worldte |    006443F0  A$lcc8968 |    006443F1  A$lcc8968
     006443F2  A$lcc8968 |    006443F3  A$lcc8968 |    006443F4  A$lcc8968
     006443F5  A$lcc8968 |    006443F6  A$lcc8968 |    006443F7  A$lcc8968
     006443F7  C$worldte |    006443F9  A$lcc8968 |    006443FA  A$lcc8968
     006443FB  A$lcc8968 |    006443FC  A$lcc8968 |    006443FD  A$lcc8968
     006443FE  A$lcc8968 |    006443FF  A$lcc8968 |    00644400  A$lcc8968
     00644401  A$lcc8968 |    00644402  A$lcc8968 |    00644403  A$lcc8968
     00644404  A$lcc8968 |    00644405  A$lcc8968 |    00644406  A$lcc8968
     00644407  A$lcc8968 |    00644408  A$lcc8968 |    00644409  A$lcc8968
     0064440A  A$lcc8968 |    0064440B  A$lcc8968 |    0064440C  A$lcc8968
     0064440D  A$lcc8968 |    0064440E  A$lcc8968 |    0064440F  A$lcc8968
     00644411  A$lcc8968 |    00644412  A$lcc8968 |    00644413  A$lcc8968
     00644414  A$lcc8968 |    00644415  A$lcc8968 |    00644416  A$lcc8968
     00644417  A$lcc8968 |    00644419  A$lcc8968 |    0064441A  A$lcc8968
     0064441B  A$lcc8968 |    0064441C  A$lcc8968 |    0064441D  A$lcc8968
     0064441E  A$lcc8968 |    00644420  A$lcc8968 |    00644422  A$lcc8968
     00644424  A$lcc8968 |    00644425  A$lcc8968 |    00644426  A$lcc8968
     00644427  A$lcc8968 |    00644429  A$lcc8968 |    0064442B  A$lcc8968
     0064442D  A$lcc8968 |    0064442E  A$lcc8968 |    00644430  A$lcc8968
     00644431  A$lcc8968 |    00644431  C$worldte |    00644432  A$lcc8968
     00644433  A$lcc8968 |    00644435  A$lcc8968 |    00644436  A$lcc8968
     00644437  A$lcc8968 |    00644438  A$lcc8968 |    00644439  A$lcc8968
     0064443B  A$lcc8968 |    0064443D  A$lcc8968 |    0064443F  A$lcc8968
     00644441  A$lcc8968 |    00644442  A$lcc8968 |    00644443  A$lcc8968
     00644444  A$lcc8968 |    00644445  A$lcc8968 |    00644447  A$lcc8968
     00644448  A$lcc8968 |    00644449  A$lcc8968 |    0064444A  A$lcc8968
     0064444C  A$lcc8968 |    0064444E  A$lcc8968 |    0064444F  A$lcc8968
     00644450  A$lcc8968 |    00644451  A$lcc8968 |    00644453  A$lcc8968
     00644453  C$worldte |    00644455  A$lcc8968 |    00644456  A$lcc8968
     00644457  A$lcc8968 |    00644458  A$lcc8968 |    00644459  A$lcc8968
     0064445A  A$lcc8968 |    0064445B  A$lcc8968 |    0064445C  A$lcc8968
     0064445D  A$lcc8968 |    0064445E  A$lcc8968 |    00644461  A$lcc8968
     00644462  A$lcc8968 |    00644463  A$lcc8968 |    00644464  A$lcc8968
     00644466  A$lcc8968 |    00644467  A$lcc8968 |    00644468  A$lcc8968
     00644469  A$lcc8968 |    0064446A  A$lcc8968 |    0064446B  A$lcc8968
     0064446C  A$lcc8968 |    0064446C  C$worldte |    0064446E  A$lcc8968
     0064446F  A$lcc8968 |    00644470  A$lcc8968 |    00644471  A$lcc8968
     00644472  A$lcc8968 |    00644473  A$lcc8968 |    00644474  A$lcc8968
     00644475  A$lcc8968 |    00644476  A$lcc8968 |    00644479  A$lcc8968
     00644479  C$worldte |    0064447B  A$lcc8968 |    0064447C  A$lcc8968
     0064447D  A$lcc8968 |    00644480  A$lcc8968 |    00644481  A$lcc8968
     00644482  A$lcc8968 |    00644483  A$lcc8968 |    00644484  A$lcc8968
     00644487  A$lcc8968 |    00644489  A$lcc8968 |    0064448B  A$lcc8968
     0064448D  A$lcc8968 |    0064448E  A$lcc8968 |    0064448F  A$lcc8968
     00644490  A$lcc8968 |    00644491  A$lcc8968 |    00644493  A$lcc8968
     00644494  A$lcc8968 |    00644495  A$lcc8968 |    00644496  A$lcc8968
     00644498  A$lcc8968 |    0064449A  A$lcc8968 |    0064449B  A$lcc8968
     0064449C  A$lcc8968 |    0064449D  A$lcc8968 |    0064449F  A$lcc8968
     0064449F  C$worldte |    006444A1  A$lcc8968 |    006444A2  A$lcc8968
ASxxxx Linker V03.00 + NoICE + sdld,  page 155.
Hexadecimal  [32-Bits]

Area                       Addr        Size        Decimal Bytes (Attributes)
--------------------       ----        ----        ------- ----- ------------
_CODE_100              00644000    00001AFB =        6907. bytes (REL,CON)

        Value  Global            Value  Global            Value  Global    
        -----  ------            -----  ------            -----  ------    
     006444A3  A$lcc8968 |    006444A4  A$lcc8968 |    006444A5  A$lcc8968
     006444A6  A$lcc8968 |    006444A7  A$lcc8968 |    006444A8  A$lcc8968
     006444A9  A$lcc8968 |    006444AA  A$lcc8968 |    006444AD  A$lcc8968
     006444AE  A$lcc8968 |    006444AF  A$lcc8968 |    006444B0  A$lcc8968
     006444B1  A$lcc8968 |    006444B2  A$lcc8968 |    006444B3  A$lcc8968
     006444B4  A$lcc8968 |    006444B6  A$lcc8968 |    006444B7  A$lcc8968
     006444B8  A$lcc8968 |    006444B9  A$lcc8968 |    006444BA  A$lcc8968
     006444BB  A$lcc8968 |    006444BC  A$lcc8968 |    006444BC  C$worldte
     006444BE  A$lcc8968 |    006444BF  A$lcc8968 |    006444C0  A$lcc8968
     006444C1  A$lcc8968 |    006444C2  A$lcc8968 |    006444C3  A$lcc8968
     006444C4  A$lcc8968 |    006444C5  A$lcc8968 |    006444C6  A$lcc8968
     006444C9  A$lcc8968 |    006444C9  C$worldte |    006444CB  A$lcc8968
     006444CC  A$lcc8968 |    006444CE  A$lcc8968 |    006444D1  A$lcc8968
     006444D1  C$worldte |    006444D2  A$lcc8968 |    006444D3  A$lcc8968
     006444D4  A$lcc8968 |    006444D5  A$lcc8968 |    006444D6  A$lcc8968
     006444D7  A$lcc8968 |    006444D8  A$lcc8968 |    006444D9  A$lcc8968
     006444D9  C$worldte |    006444DB  A$lcc8968 |    006444DC  A$lcc8968
     006444DD  A$lcc8968 |    006444DE  A$lcc8968 |    006444DF  A$lcc8968
     006444E0  A$lcc8968 |    006444E1  A$lcc8968 |    006444E2  A$lcc8968
     006444E3  A$lcc8968 |    006444E5  A$lcc8968 |    006444E6  A$lcc8968
     006444E7  A$lcc8968 |    006444E8  A$lcc8968 |    006444E9  A$lcc8968
     006444EB  A$lcc8968 |    006444EC  A$lcc8968 |    006444ED  A$lcc8968
     006444EE  A$lcc8968 |    006444F1  A$lcc8968 |    006444F2  A$lcc8968
     006444F3  A$lcc8968 |    006444F4  A$lcc8968 |    006444F6  A$lcc8968
     006444F7  A$lcc8968 |    006444F8  A$lcc8968 |    006444F9  A$lcc8968
     006444FB  A$lcc8968 |    006444FC  A$lcc8968 |    006444FD  A$lcc8968
     006444FE  A$lcc8968 |    006444FF  A$lcc8968 |    00644500  A$lcc8968
     00644501  A$lcc8968 |    00644502  A$lcc8968 |    00644503  A$lcc8968
     00644504  A$lcc8968 |    00644505  A$lcc8968 |    00644506  A$lcc8968
     00644507  A$lcc8968 |    00644508  A$lcc8968 |    0064450A  A$lcc8968
     0064450B  A$lcc8968 |    0064450C  A$lcc8968 |    0064450D  A$lcc8968
     0064450E  A$lcc8968 |    0064450F  A$lcc8968 |    00644510  A$lcc8968
     00644511  A$lcc8968 |    00644512  A$lcc8968 |    00644513  A$lcc8968
     00644514  A$lcc8968 |    00644515  A$lcc8968 |    00644515  C$worldte
     00644517  A$lcc8968 |    00644518  A$lcc8968 |    00644519  A$lcc8968
     0064451A  A$lcc8968 |    0064451B  A$lcc8968 |    0064451C  A$lcc8968
     0064451E  A$lcc8968 |    00644520  A$lcc8968 |    00644522  A$lcc8968
     00644523  A$lcc8968 |    00644524  A$lcc8968 |    00644524  C$scene.h
     00644525  A$lcc8968 |    00644527  A$lcc8968 |    00644529  A$lcc8968
     0064452B  A$lcc8968 |    0064452C  A$lcc8968 |    0064452E  A$lcc8968
     0064452E  C$worldte |    0064452F  A$lcc8968 |    00644530  A$lcc8968
     00644532  A$lcc8968 |    00644533  A$lcc8968 |    00644534  A$lcc8968
     00644535  A$lcc8968 |    00644536  A$lcc8968 |    00644538  A$lcc8968
     0064453A  A$lcc8968 |    0064453C  A$lcc8968 |    0064453E  A$lcc8968
     0064453F  A$lcc8968 |    00644540  A$lcc8968 |    00644541  A$lcc8968
     00644542  A$lcc8968 |    00644544  A$lcc8968 |    00644545  A$lcc8968
     00644546  A$lcc8968 |    00644547  A$lcc8968 |    00644549  A$lcc8968
     0064454B  A$lcc8968 |    0064454C  A$lcc8968 |    0064454D  A$lcc8968
     0064454E  A$lcc8968 |    00644550  A$lcc8968 |    00644550  C$worldte
     00644552  A$lcc8968 |    00644553  A$lcc8968 |    00644554  A$lcc8968
     00644555  A$lcc8968 |    00644556  A$lcc8968 |    00644557  A$lcc8968
ASxxxx Linker V03.00 + NoICE + sdld,  page 156.
Hexadecimal  [32-Bits]

Area                       Addr        Size        Decimal Bytes (Attributes)
--------------------       ----        ----        ------- ----- ------------
_CODE_100              00644000    00001AFB =        6907. bytes (REL,CON)

        Value  Global            Value  Global            Value  Global    
        -----  ------            -----  ------            -----  ------    
     00644558  A$lcc8968 |    00644559  A$lcc8968 |    0064455A  A$lcc8968
     0064455B  A$lcc8968 |    0064455E  A$lcc8968 |    0064455F  A$lcc8968
     00644560  A$lcc8968 |    00644561  A$lcc8968 |    00644563  A$lcc8968
     00644564  A$lcc8968 |    00644565  A$lcc8968 |    00644566  A$lcc8968
     00644567  A$lcc8968 |    00644568  A$lcc8968 |    00644569  A$lcc8968
     00644569  C$worldte |    0064456B  A$lcc8968 |    0064456C  A$lcc8968
     0064456D  A$lcc8968 |    0064456E  A$lcc8968 |    0064456F  A$lcc8968
     00644570  A$lcc8968 |    00644571  A$lcc8968 |    00644572  A$lcc8968
     00644573  A$lcc8968 |    00644576  A$lcc8968 |    00644576  C$worldte
     00644577  A$lcc8968 |    00644578  A$lcc8968 |    0064457B  A$lcc8968
     0064457C  A$lcc8968 |    0064457D  A$lcc8968 |    0064457E  A$lcc8968
     0064457F  A$lcc8968 |    00644582  A$lcc8968 |    00644584  A$lcc8968
     00644586  A$lcc8968 |    00644588  A$lcc8968 |    0064458A  A$lcc8968
     0064458B  A$lcc8968 |    0064458C  A$lcc8968 |    0064458D  A$lcc8968
     0064458E  A$lcc8968 |    00644590  A$lcc8968 |    00644591  A$lcc8968
     00644592  A$lcc8968 |    00644593  A$lcc8968 |    00644595  A$lcc8968
     00644597  A$lcc8968 |    00644598  A$lcc8968 |    00644599  A$lcc8968
     0064459A  A$lcc8968 |    0064459C  A$lcc8968 |    0064459C  C$worldte
     0064459E  A$lcc8968 |    0064459F  A$lcc8968 |    006445A0  A$lcc8968
     006445A1  A$lcc8968 |    006445A2  A$lcc8968 |    006445A3  A$lcc8968
     006445A4  A$lcc8968 |    006445A5  A$lcc8968 |    006445A6  A$lcc8968
     006445A7  A$lcc8968 |    006445AA  A$lcc8968 |    006445AB  A$lcc8968
     006445AC  A$lcc8968 |    006445AD  A$lcc8968 |    006445AE  A$lcc8968
     006445AF  A$lcc8968 |    006445B0  A$lcc8968 |    006445B1  A$lcc8968
     006445B3  A$lcc8968 |    006445B4  A$lcc8968 |    006445B5  A$lcc8968
     006445B6  A$lcc8968 |    006445B7  A$lcc8968 |    006445B8  A$lcc8968
     006445B9  A$lcc8968 |    006445B9  C$worldte |    006445BB  A$lcc8968
     006445BC  A$lcc8968 |    006445BD  A$lcc8968 |    006445BE  A$lcc8968
     006445BF  A$lcc8968 |    006445C0  A$lcc8968 |    006445C1  A$lcc8968
     006445C2  A$lcc8968 |    006445C3  A$lcc8968 |    006445C6  A$lcc8968
     006445C6  C$worldte |    006445C8  A$lcc8968 |    006445C9  A$lcc8968
     006445CB  A$lcc8968 |    006445CE  A$lcc8968 |    006445CE  C$worldte
     006445D0  A$lcc8968 |    006445D1  A$lcc8968 |    006445D2  A$lcc8968
     006445D3  A$lcc8968 |    006445D4  A$lcc8968 |    006445D6  A$lcc8968
     006445D7  A$lcc8968 |    006445D8  A$lcc8968 |    006445D9  A$lcc8968
     006445DA  A$lcc8968 |    006445DB  A$lcc8968 |    006445DC  A$lcc8968
     006445DD  A$lcc8968 |    006445DE  A$lcc8968 |    006445DF  A$lcc8968
     006445E0  A$lcc8968 |    006445E2  A$lcc8968 |    006445E3  A$lcc8968
     006445E5  A$lcc8968 |    006445E6  A$lcc8968 |    006445E8  A$lcc8968
     006445E9  A$lcc8968 |    006445EB  A$lcc8968 |    006445EC  A$lcc8968
     006445EE  A$lcc8968 |    006445EF  A$lcc8968 |    006445F1  A$lcc8968
     006445F2  A$lcc8968 |    006445F4  A$lcc8968 |    006445F5  A$lcc8968
     006445F7  A$lcc8968 |    006445F7  C$worldte |    006445F8  A$lcc8968
     006445FA  A$lcc8968 |    006445FB  A$lcc8968 |    006445FD  A$lcc8968
     006445FE  A$lcc8968 |    00644600  A$lcc8968 |    00644602  A$lcc8968
     00644604  A$lcc8968 |    00644606  A$lcc8968 |    00644608  A$lcc8968
     00644609  A$lcc8968 |    0064460B  A$lcc8968 |    0064460D  A$lcc8968
     0064460F  A$lcc8968 |    00644610  A$lcc8968 |    00644612  A$lcc8968
     00644614  A$lcc8968 |    00644616  A$lcc8968 |    00644617  A$lcc8968
     00644618  A$lcc8968 |    0064461A  A$lcc8968 |    0064461B  A$lcc8968
     0064461D  A$lcc8968 |    0064461E  A$lcc8968 |    00644620  A$lcc8968
ASxxxx Linker V03.00 + NoICE + sdld,  page 157.
Hexadecimal  [32-Bits]

Area                       Addr        Size        Decimal Bytes (Attributes)
--------------------       ----        ----        ------- ----- ------------
_CODE_100              00644000    00001AFB =        6907. bytes (REL,CON)

        Value  Global            Value  Global            Value  Global    
        -----  ------            -----  ------            -----  ------    
     00644622  A$lcc8968 |    00644624  A$lcc8968 |    00644626  A$lcc8968
     00644627  A$lcc8968 |    00644629  A$lcc8968 |    0064462B  A$lcc8968
     0064462D  A$lcc8968 |    0064462E  A$lcc8968 |    00644630  A$lcc8968
     00644630  C$worldte |    00644632  A$lcc8968 |    00644633  A$lcc8968
     00644634  A$lcc8968 |    00644635  A$lcc8968 |    00644636  A$lcc8968
     00644637  A$lcc8968 |    00644638  A$lcc8968 |    00644639  A$lcc8968
     0064463A  A$lcc8968 |    0064463B  A$lcc8968 |    0064463C  A$lcc8968
     0064463D  A$lcc8968 |    0064463E  A$lcc8968 |    00644640  A$lcc8968
     00644641  A$lcc8968 |    00644642  A$lcc8968 |    00644643  A$lcc8968
     00644644  A$lcc8968 |    00644645  A$lcc8968 |    00644646  A$lcc8968
     00644648  A$lcc8968 |    00644649  A$lcc8968 |    0064464A  A$lcc8968
     0064464B  A$lcc8968 |    0064464D  A$lcc8968 |    0064464E  A$lcc8968
     00644650  A$lcc8968 |    00644651  A$lcc8968 |    00644652  A$lcc8968
     00644653  A$lcc8968 |    00644655  A$lcc8968 |    00644656  A$lcc8968
     00644657  A$lcc8968 |    00644658  A$lcc8968 |    00644659  A$lcc8968
     0064465A  A$lcc8968 |    0064465A  C$worldte |    0064465C  A$lcc8968
     0064465E  A$lcc8968 |    0064465F  A$lcc8968 |    00644660  A$lcc8968
     00644662  A$lcc8968 |    00644663  A$lcc8968 |    00644665  A$lcc8968
     00644666  A$lcc8968 |    00644668  A$lcc8968 |    0064466A  A$lcc8968
     0064466C  A$lcc8968 |    0064466E  A$lcc8968 |    0064466F  A$lcc8968
     00644671  A$lcc8968 |    00644673  A$lcc8968 |    00644675  A$lcc8968
     00644676  A$lcc8968 |    00644678  A$lcc8968 |    00644678  C$worldte
     0064467A  A$lcc8968 |    0064467B  A$lcc8968 |    0064467B  C$worldte
     0064467D  A$lcc8968 |    0064467E  A$lcc8968 |    00644680  A$lcc8968
     00644681  A$lcc8968 |    00644682  A$lcc8968 |    00644682  C$worldte
     00644684  A$lcc8968 |    00644685  A$lcc8968 |    00644686  A$lcc8968
     00644687  A$lcc8968 |    00644688  A$lcc8968 |    00644689  A$lcc8968
     0064468B  A$lcc8968 |    0064468C  A$lcc8968 |    0064468D  A$lcc8968
     0064468E  A$lcc8968 |    0064468F  A$lcc8968 |    00644690  A$lcc8968
     00644691  A$lcc8968 |    00644692  A$lcc8968 |    00644693  A$lcc8968
     00644694  A$lcc8968 |    00644695  A$lcc8968 |    00644696  A$lcc8968
     00644697  A$lcc8968 |    00644699  A$lcc8968 |    0064469A  A$lcc8968
     0064469B  A$lcc8968 |    0064469D  A$lcc8968 |    0064469F  A$lcc8968
     006446A0  A$lcc8968 |    006446A1  A$lcc8968 |    006446A2  A$lcc8968
     006446A2  C$worldte |    006446A4  A$lcc8968 |    006446A5  A$lcc8968
     006446A8  A$lcc8968 |    006446AA  A$lcc8968 |    006446AA  C$worldte
     006446AA  XG$anim_w |    006446AB  G$worldte |    006446AB  _worldtes
     006446B8  G$worldte |    006446B8  _worldtes |    006448D4  G$worldte
     006448D4  _worldtes |    00644940  A$lcc8968 |    00644940  C$worldte
     00644940  G$spawn_b |    00644940  _spawn_bu |    00644942  A$lcc8968
     00644942  C$worldte |    00644945  A$lcc8968 |    00644947  A$lcc8968
     00644948  A$lcc8968 |    00644949  A$lcc8968 |    0064494A  A$lcc8968
     0064494B  A$lcc8968 |    0064494D  A$lcc8968 |    0064494F  A$lcc8968
     00644950  A$lcc8968 |    00644951  A$lcc8968 |    00644954  A$lcc8968
     00644954  C$worldte |    00644955  A$lcc8968 |    00644956  A$lcc8968
     00644957  A$lcc8968 |    00644958  A$lcc8968 |    00644959  A$lcc8968
     0064495C  A$lcc8968 |    0064495D  A$lcc8968 |    0064495E  A$lcc8968
     0064495F  A$lcc8968 |    00644960  A$lcc8968 |    00644961  A$lcc8968
     00644963  A$lcc8968 |    00644963  C$worldte |    00644965  A$lcc8968
     00644966  A$lcc8968 |    00644967  A$lcc8968 |    00644968  A$lcc8968
     0064496B  A$lcc8968 |    0064496C  A$lcc8968 |    0064496D  A$lcc8968
ASxxxx Linker V03.00 + NoICE + sdld,  page 158.
Hexadecimal  [32-Bits]

Area                       Addr        Size        Decimal Bytes (Attributes)
--------------------       ----        ----        ------- ----- ------------
_CODE_100              00644000    00001AFB =        6907. bytes (REL,CON)

        Value  Global            Value  Global            Value  Global    
        -----  ------            -----  ------            -----  ------    
     0064496E  A$lcc8968 |    00644970  A$lcc8968 |    00644971  A$lcc8968
     00644972  A$lcc8968 |    00644973  A$lcc8968 |    00644975  A$lcc8968
     00644976  A$lcc8968 |    00644977  A$lcc8968 |    00644978  A$lcc8968
     00644979  A$lcc8968 |    0064497C  A$lcc8968 |    0064497C  C$worldte
     0064497F  A$lcc8968 |    00644980  A$lcc8968 |    00644983  A$lcc8968
     00644983  C$worldte |    00644985  A$lcc8968 |    00644986  A$lcc8968
     00644986  C$worldte |    00644989  A$lcc8968 |    0064498A  A$lcc8968
     0064498C  A$lcc8968 |    0064498F  A$lcc8968 |    00644990  A$lcc8968
     00644990  C$worldte |    00644990  C$worldte |    00644993  A$lcc8968
     00644994  A$lcc8968 |    00644995  A$lcc8968 |    00644996  A$lcc8968
     00644998  A$lcc8968 |    00644999  A$lcc8968 |    0064499A  A$lcc8968
     0064499B  A$lcc8968 |    0064499D  A$lcc8968 |    0064499E  A$lcc8968
     0064499E  C$worldte |    0064499F  A$lcc8968 |    006449A0  A$lcc8968
     006449A2  A$lcc8968 |    006449A2  C$worldte |    006449A5  A$lcc8968
     006449A6  A$lcc8968 |    006449A8  A$lcc8968 |    006449AB  A$lcc8968
     006449AD  A$lcc8968 |    006449AF  A$lcc8968 |    006449AF  C$worldte
     006449B2  A$lcc8968 |    006449B4  A$lcc8968 |    006449B4  C$worldte
     006449B6  A$lcc8968 |    006449B7  A$lcc8968 |    006449B8  A$lcc8968
     006449B9  A$lcc8968 |    006449BB  A$lcc8968 |    006449BB  C$worldte
     006449BE  A$lcc8968 |    006449BF  A$lcc8968 |    006449C0  A$lcc8968
     006449C2  A$lcc8968 |    006449C3  A$lcc8968 |    006449C4  A$lcc8968
     006449C6  A$lcc8968 |    006449C7  A$lcc8968 |    006449C8  A$lcc8968
     006449C9  A$lcc8968 |    006449CA  A$lcc8968 |    006449CB  A$lcc8968
     006449CC  A$lcc8968 |    006449CE  A$lcc8968 |    006449CE  C$worldte
     006449D1  A$lcc8968 |    006449D2  A$lcc8968 |    006449D4  A$lcc8968
     006449D7  A$lcc8968 |    006449D9  A$lcc8968 |    006449DB  A$lcc8968
     006449DB  C$worldte |    006449DE  A$lcc8968 |    006449E0  A$lcc8968
     006449E0  C$worldte |    006449E2  A$lcc8968 |    006449E3  A$lcc8968
     006449E4  A$lcc8968 |    006449E5  A$lcc8968 |    006449E7  A$lcc8968
     006449E7  C$worldte |    006449EA  A$lcc8968 |    006449EB  A$lcc8968
     006449EC  A$lcc8968 |    006449EE  A$lcc8968 |    006449EF  A$lcc8968
     006449F0  A$lcc8968 |    006449F2  A$lcc8968 |    006449F3  A$lcc8968
     006449F4  A$lcc8968 |    006449F5  A$lcc8968 |    006449F6  A$lcc8968
     006449F7  A$lcc8968 |    006449F8  A$lcc8968 |    006449F8  C$worldte
     006449F9  A$lcc8968 |    006449FA  A$lcc8968 |    006449FB  A$lcc8968
     006449FC  A$lcc8968 |    006449FD  A$lcc8968 |    00644A00  A$lcc8968
     00644A01  A$lcc8968 |    00644A02  A$lcc8968 |    00644A03  A$lcc8968
     00644A03  C$worldte |    00644A06  A$lcc8968 |    00644A07  A$lcc8968
     00644A09  A$lcc8968 |    00644A09  C$worldte |    00644A0C  A$lcc8968
     00644A0D  A$lcc8968 |    00644A0E  A$lcc8968 |    00644A0F  A$lcc8968
     00644A10  A$lcc8968 |    00644A11  A$lcc8968 |    00644A12  A$lcc8968
     00644A13  A$lcc8968 |    00644A14  A$lcc8968 |    00644A16  A$lcc8968
     00644A16  C$worldte |    00644A19  A$lcc8968 |    00644A1A  A$lcc8968
     00644A1B  A$lcc8968 |    00644A1C  A$lcc8968 |    00644A1D  A$lcc8968
     00644A1E  A$lcc8968 |    00644A20  A$lcc8968 |    00644A21  A$lcc8968
     00644A22  A$lcc8968 |    00644A22  C$worldte |    00644A25  A$lcc8968
     00644A26  A$lcc8968 |    00644A28  A$lcc8968 |    00644A28  C$worldte
     00644A29  A$lcc8968 |    00644A2A  A$lcc8968 |    00644A2C  A$lcc8968
     00644A2D  A$lcc8968 |    00644A2E  A$lcc8968 |    00644A2F  A$lcc8968
     00644A30  A$lcc8968 |    00644A31  A$lcc8968 |    00644A33  A$lcc8968
     00644A33  C$worldte |    00644A36  A$lcc8968 |    00644A37  A$lcc8968
ASxxxx Linker V03.00 + NoICE + sdld,  page 159.
Hexadecimal  [32-Bits]

Area                       Addr        Size        Decimal Bytes (Attributes)
--------------------       ----        ----        ------- ----- ------------
_CODE_100              00644000    00001AFB =        6907. bytes (REL,CON)

        Value  Global            Value  Global            Value  Global    
        -----  ------            -----  ------            -----  ------    
     00644A39  A$lcc8968 |    00644A39  C$worldte |    00644A3C  A$lcc8968
     00644A3D  A$lcc8968 |    00644A3F  A$lcc8968 |    00644A41  A$lcc8968
     00644A41  C$worldte |    00644A42  A$lcc8968 |    00644A44  A$lcc8968
     00644A45  A$lcc8968 |    00644A46  A$lcc8968 |    00644A48  A$lcc8968
     00644A49  A$lcc8968 |    00644A4A  A$lcc8968 |    00644A4B  A$lcc8968
     00644A4C  A$lcc8968 |    00644A4D  A$lcc8968 |    00644A4E  A$lcc8968
     00644A50  A$lcc8968 |    00644A50  C$worldte |    00644A51  A$lcc8968
     00644A52  A$lcc8968 |    00644A54  A$lcc8968 |    00644A55  A$lcc8968
     00644A56  A$lcc8968 |    00644A57  A$lcc8968 |    00644A58  A$lcc8968
     00644A59  A$lcc8968 |    00644A5B  A$lcc8968 |    00644A5B  C$worldte
     00644A5C  A$lcc8968 |    00644A5D  A$lcc8968 |    00644A5E  A$lcc8968
     00644A5F  A$lcc8968 |    00644A60  A$lcc8968 |    00644A60  C$worldte
     00644A63  A$lcc8968 |    00644A65  A$lcc8968 |    00644A65  C$worldte
     00644A67  A$lcc8968 |    00644A67  C$worldte |    00644A69  A$lcc8968
     00644A6A  A$lcc8968 |    00644A6D  A$lcc8968 |    00644A6F  A$lcc8968
     00644A6F  C$worldte |    00644A6F  XG$spawn_ |    00644A70  A$lcc8968
     00644A70  C$worldte |    00644A70  G$npc_col |    00644A70  _npc_coll
     00644A72  A$lcc8968 |    00644A72  C$worldte |    00644A74  A$lcc8968
     00644A76  A$lcc8968 |    00644A79  A$lcc8968 |    00644A7B  A$lcc8968
     00644A7C  A$lcc8968 |    00644A7F  A$lcc8968 |    00644A7F  C$worldte
     00644A81  A$lcc8968 |    00644A82  A$lcc8968 |    00644A84  A$lcc8968
     00644A85  A$lcc8968 |    00644A86  A$lcc8968 |    00644A87  A$lcc8968
     00644A88  A$lcc8968 |    00644A89  A$lcc8968 |    00644A8A  A$lcc8968
     00644A8B  A$lcc8968 |    00644A8C  A$lcc8968 |    00644A8D  A$lcc8968
     00644A8E  A$lcc8968 |    00644A8F  A$lcc8968 |    00644A92  A$lcc8968
     00644A93  A$lcc8968 |    00644A94  A$lcc8968 |    00644A95  A$lcc8968
     00644A97  A$lcc8968 |    00644A98  A$lcc8968 |    00644A99  A$lcc8968
     00644A9A  A$lcc8968 |    00644A9C  A$lcc8968 |    00644A9D  A$lcc8968
     00644A9E  A$lcc8968 |    00644A9F  A$lcc8968 |    00644AA0  A$lcc8968
     00644AA1  A$lcc8968 |    00644AA2  A$lcc8968 |    00644AA3  A$lcc8968
     00644AA4  A$lcc8968 |    00644AA5  A$lcc8968 |    00644AA6  A$lcc8968
     00644AA7  A$lcc8968 |    00644AA9  A$lcc8968 |    00644AAB  A$lcc8968
     00644AAD  A$lcc8968 |    00644AAF  A$lcc8968 |    00644AB1  A$lcc8968
     00644AB3  A$lcc8968 |    00644AB5  A$lcc8968 |    00644AB7  A$lcc8968
     00644AB7  C$worldte |    00644AB8  A$lcc8968 |    00644AB9  A$lcc8968
     00644ABA  A$lcc8968 |    00644ABB  A$lcc8968 |    00644ABC  A$lcc8968
     00644ABD  A$lcc8968 |    00644ABE  A$lcc8968 |    00644ABF  A$lcc8968
     00644AC0  A$lcc8968 |    00644AC1  A$lcc8968 |    00644AC3  A$lcc8968
     00644AC5  A$lcc8968 |    00644AC7  A$lcc8968 |    00644AC9  A$lcc8968
     00644ACB  A$lcc8968 |    00644ACD  A$lcc8968 |    00644ACF  A$lcc8968
     00644AD1  A$lcc8968 |    00644AD3  A$lcc8968 |    00644AD4  A$lcc8968
     00644AD4  C$worldte |    00644AD7  A$lcc8968 |    00644AD8  A$lcc8968
     00644ADA  A$lcc8968 |    00644ADD  A$lcc8968 |    00644ADE  A$lcc8968
     00644ADF  A$lcc8968 |    00644AE0  A$lcc8968 |    00644AE1  A$lcc8968
     00644AE2  A$lcc8968 |    00644AE3  A$lcc8968 |    00644AE4  A$lcc8968
     00644AE5  A$lcc8968 |    00644AE6  A$lcc8968 |    00644AE8  A$lcc8968
     00644AE9  A$lcc8968 |    00644AEA  A$lcc8968 |    00644AEB  A$lcc8968
     00644AEB  C$worldte |    00644AEE  A$lcc8968 |    00644AF0  A$lcc8968
     00644AF1  A$lcc8968 |    00644AF2  A$lcc8968 |    00644AF3  A$lcc8968
     00644AF6  A$lcc8968 |    00644AF7  A$lcc8968 |    00644AF8  A$lcc8968
     00644AF9  A$lcc8968 |    00644AFA  A$lcc8968 |    00644AFB  A$lcc8968
ASxxxx Linker V03.00 + NoICE + sdld,  page 160.
Hexadecimal  [32-Bits]

Area                       Addr        Size        Decimal Bytes (Attributes)
--------------------       ----        ----        ------- ----- ------------
_CODE_100              00644000    00001AFB =        6907. bytes (REL,CON)

        Value  Global            Value  Global            Value  Global    
        -----  ------            -----  ------            -----  ------    
     00644AFC  A$lcc8968 |    00644AFD  A$lcc8968 |    00644AFF  A$lcc8968
     00644B00  A$lcc8968 |    00644B01  A$lcc8968 |    00644B02  A$lcc8968
     00644B03  A$lcc8968 |    00644B04  A$lcc8968 |    00644B05  A$lcc8968
     00644B07  A$lcc8968 |    00644B08  A$lcc8968 |    00644B09  A$lcc8968
     00644B0A  A$lcc8968 |    00644B0A  C$worldte |    00644B0D  A$lcc8968
     00644B0E  A$lcc8968 |    00644B0F  A$lcc8968 |    00644B10  A$lcc8968
     00644B11  A$lcc8968 |    00644B12  A$lcc8968 |    00644B13  A$lcc8968
     00644B14  A$lcc8968 |    00644B16  A$lcc8968 |    00644B17  A$lcc8968
     00644B18  A$lcc8968 |    00644B19  A$lcc8968 |    00644B19  C$worldte
     00644B1B  A$lcc8968 |    00644B1C  A$lcc8968 |    00644B1D  A$lcc8968
     00644B1E  A$lcc8968 |    00644B1F  A$lcc8968 |    00644B20  A$lcc8968
     00644B21  A$lcc8968 |    00644B22  A$lcc8968 |    00644B23  A$lcc8968
     00644B24  A$lcc8968 |    00644B25  A$lcc8968 |    00644B26  A$lcc8968
     00644B27  A$lcc8968 |    00644B28  A$lcc8968 |    00644B2A  A$lcc8968
     00644B2B  A$lcc8968 |    00644B2C  A$lcc8968 |    00644B2D  A$lcc8968
     00644B2D  C$worldte |    00644B2F  A$lcc8968 |    00644B30  A$lcc8968
     00644B32  A$lcc8968 |    00644B33  A$lcc8968 |    00644B35  A$lcc8968
     00644B37  A$lcc8968 |    00644B38  A$lcc8968 |    00644B39  A$lcc8968
     00644B3A  A$lcc8968 |    00644B3D  A$lcc8968 |    00644B3E  A$lcc8968
     00644B3F  A$lcc8968 |    00644B40  A$lcc8968 |    00644B41  A$lcc8968
     00644B43  A$lcc8968 |    00644B44  A$lcc8968 |    00644B45  A$lcc8968
     00644B46  A$lcc8968 |    00644B47  A$lcc8968 |    00644B48  A$lcc8968
     00644B49  A$lcc8968 |    00644B4A  A$lcc8968 |    00644B4B  A$lcc8968
     00644B4C  A$lcc8968 |    00644B4D  A$lcc8968 |    00644B4E  A$lcc8968
     00644B4F  A$lcc8968 |    00644B50  A$lcc8968 |    00644B51  A$lcc8968
     00644B52  A$lcc8968 |    00644B53  A$lcc8968 |    00644B54  A$lcc8968
     00644B55  A$lcc8968 |    00644B56  A$lcc8968 |    00644B58  A$lcc8968
     00644B59  A$lcc8968 |    00644B5A  A$lcc8968 |    00644B5B  A$lcc8968
     00644B5B  C$worldte |    00644B5D  A$lcc8968 |    00644B5E  A$lcc8968
     00644B5F  A$lcc8968 |    00644B61  A$lcc8968 |    00644B62  A$lcc8968
     00644B63  A$lcc8968 |    00644B64  A$lcc8968 |    00644B67  A$lcc8968
     00644B68  A$lcc8968 |    00644B69  A$lcc8968 |    00644B6A  A$lcc8968
     00644B6B  A$lcc8968 |    00644B6D  A$lcc8968 |    00644B6E  A$lcc8968
     00644B6F  A$lcc8968 |    00644B70  A$lcc8968 |    00644B71  A$lcc8968
     00644B72  A$lcc8968 |    00644B73  A$lcc8968 |    00644B74  A$lcc8968
     00644B75  A$lcc8968 |    00644B76  A$lcc8968 |    00644B77  A$lcc8968
     00644B79  A$lcc8968 |    00644B7A  A$lcc8968 |    00644B7B  A$lcc8968
     00644B7C  A$lcc8968 |    00644B7C  C$worldte |    00644B7E  A$lcc8968
     00644B7F  A$lcc8968 |    00644B80  A$lcc8968 |    00644B81  A$lcc8968
     00644B83  A$lcc8968 |    00644B84  A$lcc8968 |    00644B85  A$lcc8968
     00644B86  A$lcc8968 |    00644B87  A$lcc8968 |    00644B88  A$lcc8968
     00644B89  A$lcc8968 |    00644B8B  A$lcc8968 |    00644B8C  A$lcc8968
     00644B8D  A$lcc8968 |    00644B8E  A$lcc8968 |    00644B8E  C$worldte
     00644B90  A$lcc8968 |    00644B91  A$lcc8968 |    00644B92  A$lcc8968
     00644B93  A$lcc8968 |    00644B94  A$lcc8968 |    00644B95  A$lcc8968
     00644B96  A$lcc8968 |    00644B97  A$lcc8968 |    00644B98  A$lcc8968
     00644B99  A$lcc8968 |    00644B9B  A$lcc8968 |    00644B9C  A$lcc8968
     00644B9D  A$lcc8968 |    00644B9E  A$lcc8968 |    00644B9E  C$worldte
     00644BA0  A$lcc8968 |    00644BA1  A$lcc8968 |    00644BA2  A$lcc8968
     00644BA3  A$lcc8968 |    00644BA6  A$lcc8968 |    00644BA7  A$lcc8968
     00644BA8  A$lcc8968 |    00644BA9  A$lcc8968 |    00644BAA  A$lcc8968
ASxxxx Linker V03.00 + NoICE + sdld,  page 161.
Hexadecimal  [32-Bits]

Area                       Addr        Size        Decimal Bytes (Attributes)
--------------------       ----        ----        ------- ----- ------------
_CODE_100              00644000    00001AFB =        6907. bytes (REL,CON)

        Value  Global            Value  Global            Value  Global    
        -----  ------            -----  ------            -----  ------    
     00644BAB  A$lcc8968 |    00644BAE  A$lcc8968 |    00644BB0  A$lcc8968
     00644BB1  A$lcc8968 |    00644BB2  A$lcc8968 |    00644BB3  A$lcc8968
     00644BB6  A$lcc8968 |    00644BB7  A$lcc8968 |    00644BB8  A$lcc8968
     00644BB9  A$lcc8968 |    00644BBA  A$lcc8968 |    00644BBB  A$lcc8968
     00644BBE  A$lcc8968 |    00644BC0  A$lcc8968 |    00644BC1  A$lcc8968
     00644BC2  A$lcc8968 |    00644BC3  A$lcc8968 |    00644BC4  A$lcc8968
     00644BC6  A$lcc8968 |    00644BC7  A$lcc8968 |    00644BC8  A$lcc8968
     00644BC9  A$lcc8968 |    00644BCA  A$lcc8968 |    00644BCC  A$lcc8968
     00644BCD  A$lcc8968 |    00644BCE  A$lcc8968 |    00644BCF  A$lcc8968
     00644BD0  A$lcc8968 |    00644BD2  A$lcc8968 |    00644BD3  A$lcc8968
     00644BD4  A$lcc8968 |    00644BD5  A$lcc8968 |    00644BD6  A$lcc8968
     00644BD8  A$lcc8968 |    00644BD9  A$lcc8968 |    00644BDA  A$lcc8968
     00644BDB  A$lcc8968 |    00644BDC  A$lcc8968 |    00644BDE  A$lcc8968
     00644BDF  A$lcc8968 |    00644BE0  A$lcc8968 |    00644BE1  A$lcc8968
     00644BE2  A$lcc8968 |    00644BE4  A$lcc8968 |    00644BE5  A$lcc8968
     00644BE6  A$lcc8968 |    00644BE7  A$lcc8968 |    00644BE8  A$lcc8968
     00644BEA  A$lcc8968 |    00644BEB  A$lcc8968 |    00644BEC  A$lcc8968
     00644BED  A$lcc8968 |    00644BEE  A$lcc8968 |    00644BF1  A$lcc8968
     00644BF3  A$lcc8968 |    00644BF4  A$lcc8968 |    00644BF4  C$worldte
     00644BF6  A$lcc8968 |    00644BF7  A$lcc8968 |    00644BF8  A$lcc8968
     00644BFA  A$lcc8968 |    00644BFB  A$lcc8968 |    00644BFC  A$lcc8968
     00644BFD  A$lcc8968 |    00644BFE  A$lcc8968 |    00644BFF  A$lcc8968
     00644C00  A$lcc8968 |    00644C02  A$lcc8968 |    00644C03  A$lcc8968
     00644C05  A$lcc8968 |    00644C06  A$lcc8968 |    00644C06  C$worldte
     00644C08  A$lcc8968 |    00644C09  A$lcc8968 |    00644C0A  A$lcc8968
     00644C0C  A$lcc8968 |    00644C0D  A$lcc8968 |    00644C0E  A$lcc8968
     00644C0F  A$lcc8968 |    00644C10  A$lcc8968 |    00644C11  A$lcc8968
     00644C12  A$lcc8968 |    00644C14  A$lcc8968 |    00644C15  A$lcc8968
     00644C17  A$lcc8968 |    00644C18  A$lcc8968 |    00644C18  C$worldte
     00644C19  A$lcc8968 |    00644C1C  A$lcc8968 |    00644C1C  C$worldte
     00644C1E  A$lcc8968 |    00644C1F  A$lcc8968 |    00644C20  A$lcc8968
     00644C21  A$lcc8968 |    00644C24  A$lcc8968 |    00644C25  A$lcc8968
     00644C26  A$lcc8968 |    00644C27  A$lcc8968 |    00644C28  A$lcc8968
     00644C29  A$lcc8968 |    00644C2B  A$lcc8968 |    00644C2D  A$lcc8968
     00644C2F  A$lcc8968 |    00644C30  A$lcc8968 |    00644C32  A$lcc8968
     00644C33  A$lcc8968 |    00644C35  A$lcc8968 |    00644C37  A$lcc8968
     00644C38  A$lcc8968 |    00644C39  A$lcc8968 |    00644C3B  A$lcc8968
     00644C3B  C$worldte |    00644C3E  A$lcc8968 |    00644C40  A$lcc8968
     00644C43  A$lcc8968 |    00644C45  A$lcc8968 |    00644C46  A$lcc8968
     00644C47  A$lcc8968 |    00644C49  A$lcc8968 |    00644C4A  A$lcc8968
     00644C4B  A$lcc8968 |    00644C4C  A$lcc8968 |    00644C4D  A$lcc8968
     00644C4E  A$lcc8968 |    00644C4F  A$lcc8968 |    00644C51  A$lcc8968
     00644C52  A$lcc8968 |    00644C54  A$lcc8968 |    00644C55  A$lcc8968
     00644C57  A$lcc8968 |    00644C58  A$lcc8968 |    00644C59  A$lcc8968
     00644C5A  A$lcc8968 |    00644C5D  A$lcc8968 |    00644C5E  A$lcc8968
     00644C5F  A$lcc8968 |    00644C60  A$lcc8968 |    00644C61  A$lcc8968
     00644C62  A$lcc8968 |    00644C64  A$lcc8968 |    00644C65  A$lcc8968
     00644C66  A$lcc8968 |    00644C68  A$lcc8968 |    00644C69  A$lcc8968
     00644C6A  A$lcc8968 |    00644C6B  A$lcc8968 |    00644C6E  A$lcc8968
     00644C6F  A$lcc8968 |    00644C70  A$lcc8968 |    00644C71  A$lcc8968
     00644C73  A$lcc8968 |    00644C74  A$lcc8968 |    00644C75  A$lcc8968
ASxxxx Linker V03.00 + NoICE + sdld,  page 162.
Hexadecimal  [32-Bits]

Area                       Addr        Size        Decimal Bytes (Attributes)
--------------------       ----        ----        ------- ----- ------------
_CODE_100              00644000    00001AFB =        6907. bytes (REL,CON)

        Value  Global            Value  Global            Value  Global    
        -----  ------            -----  ------            -----  ------    
     00644C76  A$lcc8968 |    00644C78  A$lcc8968 |    00644C79  A$lcc8968
     00644C79  C$worldte |    00644C7B  A$lcc8968 |    00644C7C  A$lcc8968
     00644C7D  A$lcc8968 |    00644C7F  A$lcc8968 |    00644C80  A$lcc8968
     00644C81  A$lcc8968 |    00644C82  A$lcc8968 |    00644C83  A$lcc8968
     00644C84  A$lcc8968 |    00644C85  A$lcc8968 |    00644C87  A$lcc8968
     00644C88  A$lcc8968 |    00644C8A  A$lcc8968 |    00644C8B  A$lcc8968
     00644C8B  C$worldte |    00644C8C  A$lcc8968 |    00644C8D  A$lcc8968
     00644C90  A$lcc8968 |    00644C92  A$lcc8968 |    00644C93  A$lcc8968
     00644C94  A$lcc8968 |    00644C95  A$lcc8968 |    00644C98  A$lcc8968
     00644C99  A$lcc8968 |    00644C9A  A$lcc8968 |    00644C9B  A$lcc8968
     00644C9D  A$lcc8968 |    00644C9E  A$lcc8968 |    00644C9F  A$lcc8968
     00644CA0  A$lcc8968 |    00644CA2  A$lcc8968 |    00644CA3  A$lcc8968
     00644CA5  A$lcc8968 |    00644CA6  A$lcc8968 |    00644CA7  A$lcc8968
     00644CA8  A$lcc8968 |    00644CAB  A$lcc8968 |    00644CAC  A$lcc8968
     00644CAD  A$lcc8968 |    00644CAE  A$lcc8968 |    00644CAF  A$lcc8968
     00644CB0  A$lcc8968 |    00644CB2  A$lcc8968 |    00644CB3  A$lcc8968
     00644CB4  A$lcc8968 |    00644CB7  A$lcc8968 |    00644CB9  A$lcc8968
     00644CBA  A$lcc8968 |    00644CBA  C$worldte |    00644CBC  A$lcc8968
     00644CBD  A$lcc8968 |    00644CBE  A$lcc8968 |    00644CC0  A$lcc8968
     00644CC1  A$lcc8968 |    00644CC2  A$lcc8968 |    00644CC3  A$lcc8968
     00644CC4  A$lcc8968 |    00644CC5  A$lcc8968 |    00644CC6  A$lcc8968
     00644CC8  A$lcc8968 |    00644CC9  A$lcc8968 |    00644CCA  A$lcc8968
     00644CCC  A$lcc8968 |    00644CCD  A$lcc8968 |    00644CCE  A$lcc8968
     00644CD0  A$lcc8968 |    00644CD1  A$lcc8968 |    00644CD2  A$lcc8968
     00644CD3  A$lcc8968 |    00644CD4  A$lcc8968 |    00644CD5  A$lcc8968
     00644CD6  A$lcc8968 |    00644CD8  A$lcc8968 |    00644CD9  A$lcc8968
     00644CDA  A$lcc8968 |    00644CDC  A$lcc8968 |    00644CDD  A$lcc8968
     00644CDE  A$lcc8968 |    00644CE0  A$lcc8968 |    00644CE1  A$lcc8968
     00644CE2  A$lcc8968 |    00644CE3  A$lcc8968 |    00644CE4  A$lcc8968
     00644CE5  A$lcc8968 |    00644CE6  A$lcc8968 |    00644CE8  A$lcc8968
     00644CE9  A$lcc8968 |    00644CEA  A$lcc8968 |    00644CEC  A$lcc8968
     00644CED  A$lcc8968 |    00644CEE  A$lcc8968 |    00644CF0  A$lcc8968
     00644CF0  C$worldte |    00644CF1  A$lcc8968 |    00644CF3  A$lcc8968
     00644CF5  A$lcc8968 |    00644CF6  A$lcc8968 |    00644CF8  A$lcc8968
     00644CF8  C$worldte |    00644CFB  A$lcc8968 |    00644CFD  A$lcc8968
     00644CFF  A$lcc8968 |    00644CFF  C$worldte |    00644D01  A$lcc8968
     00644D02  A$lcc8968 |    00644D03  A$lcc8968 |    00644D05  A$lcc8968
     00644D06  A$lcc8968 |    00644D07  A$lcc8968 |    00644D09  A$lcc8968
     00644D0A  A$lcc8968 |    00644D0B  A$lcc8968 |    00644D0D  A$lcc8968
     00644D0D  C$worldte |    00644D0E  A$lcc8968 |    00644D10  A$lcc8968
     00644D12  A$lcc8968 |    00644D13  A$lcc8968 |    00644D15  A$lcc8968
     00644D15  C$worldte |    00644D18  A$lcc8968 |    00644D1A  A$lcc8968
     00644D1A  C$worldte |    00644D1C  A$lcc8968 |    00644D1D  A$lcc8968
     00644D1E  A$lcc8968 |    00644D20  A$lcc8968 |    00644D21  A$lcc8968
     00644D22  A$lcc8968 |    00644D23  A$lcc8968 |    00644D24  A$lcc8968
     00644D25  A$lcc8968 |    00644D26  A$lcc8968 |    00644D28  A$lcc8968
     00644D29  A$lcc8968 |    00644D2A  A$lcc8968 |    00644D2C  A$lcc8968
     00644D2D  A$lcc8968 |    00644D2E  A$lcc8968 |    00644D30  A$lcc8968
     00644D31  A$lcc8968 |    00644D32  A$lcc8968 |    00644D33  A$lcc8968
     00644D34  A$lcc8968 |    00644D35  A$lcc8968 |    00644D36  A$lcc8968
     00644D38  A$lcc8968 |    00644D39  A$lcc8968 |    00644D3B  A$lcc8968
ASxxxx Linker V03.00 + NoICE + sdld,  page 163.
Hexadecimal  [32-Bits]

Area                       Addr        Size        Decimal Bytes (Attributes)
--------------------       ----        ----        ------- ----- ------------
_CODE_100              00644000    00001AFB =        6907. bytes (REL,CON)

        Value  Global            Value  Global            Value  Global    
        -----  ------            -----  ------            -----  ------    
     00644D3C  A$lcc8968 |    00644D3E  A$lcc8968 |    00644D3F  A$lcc8968
     00644D40  A$lcc8968 |    00644D42  A$lcc8968 |    00644D43  A$lcc8968
     00644D44  A$lcc8968 |    00644D46  A$lcc8968 |    00644D48  A$lcc8968
     00644D49  A$lcc8968 |    00644D4A  A$lcc8968 |    00644D4C  A$lcc8968
     00644D4D  A$lcc8968 |    00644D4E  A$lcc8968 |    00644D50  A$lcc8968
     00644D51  A$lcc8968 |    00644D53  A$lcc8968 |    00644D53  C$worldte
     00644D56  A$lcc8968 |    00644D58  A$lcc8968 |    00644D5B  A$lcc8968
     00644D5B  C$worldte |    00644D5D  A$lcc8968 |    00644D5E  A$lcc8968
     00644D5F  A$lcc8968 |    00644D62  A$lcc8968 |    00644D63  A$lcc8968
     00644D64  A$lcc8968 |    00644D67  A$lcc8968 |    00644D69  A$lcc8968
     00644D6A  A$lcc8968 |    00644D6B  A$lcc8968 |    00644D6E  A$lcc8968
     00644D6F  A$lcc8968 |    00644D70  A$lcc8968 |    00644D72  A$lcc8968
     00644D73  A$lcc8968 |    00644D76  A$lcc8968 |    00644D76  C$worldte
     00644D79  A$lcc8968 |    00644D7B  A$lcc8968 |    00644D7E  A$lcc8968
     00644D7E  C$worldte |    00644D80  A$lcc8968 |    00644D81  A$lcc8968
     00644D82  A$lcc8968 |    00644D85  A$lcc8968 |    00644D85  C$worldte
     00644D88  A$lcc8968 |    00644D89  A$lcc8968 |    00644D8C  A$lcc8968
     00644D8C  C$worldte |    00644D8E  A$lcc8968 |    00644D8F  A$lcc8968
     00644D90  A$lcc8968 |    00644D92  A$lcc8968 |    00644D93  A$lcc8968
     00644D94  A$lcc8968 |    00644D95  A$lcc8968 |    00644D96  A$lcc8968
     00644D97  A$lcc8968 |    00644D98  A$lcc8968 |    00644D9A  A$lcc8968
     00644D9C  A$lcc8968 |    00644D9D  A$lcc8968 |    00644D9E  A$lcc8968
     00644DA0  A$lcc8968 |    00644DA1  A$lcc8968 |    00644DA2  A$lcc8968
     00644DA3  A$lcc8968 |    00644DA4  A$lcc8968 |    00644DA5  A$lcc8968
     00644DA6  A$lcc8968 |    00644DA8  A$lcc8968 |    00644DA8  C$worldte
     00644DAB  A$lcc8968 |    00644DAD  A$lcc8968 |    00644DB0  A$lcc8968
     00644DB0  C$worldte |    00644DB2  A$lcc8968 |    00644DB3  A$lcc8968
     00644DB4  A$lcc8968 |    00644DB6  A$lcc8968 |    00644DB7  A$lcc8968
     00644DB8  A$lcc8968 |    00644DB9  A$lcc8968 |    00644DBB  A$lcc8968
     00644DBB  C$worldte |    00644DBE  A$lcc8968 |    00644DC0  A$lcc8968
     00644DC0  C$worldte |    00644DC3  A$lcc8968 |    00644DC5  A$lcc8968
     00644DC5  C$worldte |    00644DC7  A$lcc8968 |    00644DC8  A$lcc8968
     00644DCB  A$lcc8968 |    00644DCD  A$lcc8968 |    00644DCD  C$worldte
     00644DCF  A$lcc8968 |    00644DD0  A$lcc8968 |    00644DD1  A$lcc8968
     00644DD3  A$lcc8968 |    00644DD5  A$lcc8968 |    00644DD6  A$lcc8968
     00644DD7  A$lcc8968 |    00644DD9  A$lcc8968 |    00644DDA  A$lcc8968
     00644DDB  A$lcc8968 |    00644DDC  A$lcc8968 |    00644DDD  A$lcc8968
     00644DDE  A$lcc8968 |    00644DDF  A$lcc8968 |    00644DE1  A$lcc8968
     00644DE1  C$worldte |    00644DE4  A$lcc8968 |    00644DE6  A$lcc8968
     00644DE8  A$lcc8968 |    00644DE8  C$worldte |    00644DEA  A$lcc8968
     00644DEB  A$lcc8968 |    00644DEC  A$lcc8968 |    00644DED  A$lcc8968
     00644DEE  A$lcc8968 |    00644DF0  A$lcc8968 |    00644DF1  A$lcc8968
     00644DF2  A$lcc8968 |    00644DF3  A$lcc8968 |    00644DF4  A$lcc8968
     00644DF6  A$lcc8968 |    00644DF7  A$lcc8968 |    00644DF8  A$lcc8968
     00644DF9  A$lcc8968 |    00644DFA  A$lcc8968 |    00644DFC  A$lcc8968
     00644DFD  A$lcc8968 |    00644DFE  A$lcc8968 |    00644DFF  A$lcc8968
     00644E00  A$lcc8968 |    00644E02  A$lcc8968 |    00644E03  A$lcc8968
     00644E04  A$lcc8968 |    00644E05  A$lcc8968 |    00644E06  A$lcc8968
     00644E08  A$lcc8968 |    00644E09  A$lcc8968 |    00644E0A  A$lcc8968
     00644E0B  A$lcc8968 |    00644E0C  A$lcc8968 |    00644E0E  A$lcc8968
     00644E0F  A$lcc8968 |    00644E10  A$lcc8968 |    00644E11  A$lcc8968
ASxxxx Linker V03.00 + NoICE + sdld,  page 164.
Hexadecimal  [32-Bits]

Area                       Addr        Size        Decimal Bytes (Attributes)
--------------------       ----        ----        ------- ----- ------------
_CODE_100              00644000    00001AFB =        6907. bytes (REL,CON)

        Value  Global            Value  Global            Value  Global    
        -----  ------            -----  ------            -----  ------    
     00644E12  A$lcc8968 |    00644E14  A$lcc8968 |    00644E15  A$lcc8968
     00644E16  A$lcc8968 |    00644E17  A$lcc8968 |    00644E18  A$lcc8968
     00644E1B  A$lcc8968 |    00644E1D  A$lcc8968 |    00644E1E  A$lcc8968
     00644E1F  A$lcc8968 |    00644E21  A$lcc8968 |    00644E21  C$worldte
     00644E24  A$lcc8968 |    00644E25  A$lcc8968 |    00644E26  A$lcc8968
     00644E28  A$lcc8968 |    00644E28  C$worldte |    00644E2A  A$lcc8968
     00644E2A  C$worldte |    00644E2D  A$lcc8968 |    00644E2E  A$lcc8968
     00644E2F  A$lcc8968 |    00644E31  A$lcc8968 |    00644E31  C$worldte
     00644E33  A$lcc8968 |    00644E36  A$lcc8968 |    00644E37  A$lcc8968
     00644E37  C$worldte |    00644E3A  A$lcc8968 |    00644E3B  A$lcc8968
     00644E3D  A$lcc8968 |    00644E3D  C$worldte |    00644E3F  A$lcc8968
     00644E40  A$lcc8968 |    00644E41  A$lcc8968 |    00644E43  A$lcc8968
     00644E44  A$lcc8968 |    00644E45  A$lcc8968 |    00644E46  A$lcc8968
     00644E47  A$lcc8968 |    00644E48  A$lcc8968 |    00644E49  A$lcc8968
     00644E4B  A$lcc8968 |    00644E4B  C$worldte |    00644E4D  A$lcc8968
     00644E4F  A$lcc8968 |    00644E4F  C$worldte |    00644E52  A$lcc8968
     00644E54  A$lcc8968 |    00644E56  A$lcc8968 |    00644E56  C$worldte
     00644E58  A$lcc8968 |    00644E59  A$lcc8968 |    00644E5A  A$lcc8968
     00644E5C  A$lcc8968 |    00644E5C  C$worldte |    00644E5E  A$lcc8968
     00644E60  A$lcc8968 |    00644E60  C$worldte |    00644E63  A$lcc8968
     00644E65  A$lcc8968 |    00644E67  A$lcc8968 |    00644E67  C$worldte
     00644E6A  A$lcc8968 |    00644E6B  A$lcc8968 |    00644E6D  A$lcc8968
     00644E6D  C$worldte |    00644E6F  A$lcc8968 |    00644E70  A$lcc8968
     00644E71  A$lcc8968 |    00644E73  A$lcc8968 |    00644E75  A$lcc8968
     00644E77  A$lcc8968 |    00644E77  C$worldte |    00644E7A  A$lcc8968
     00644E7C  A$lcc8968 |    00644E7E  A$lcc8968 |    00644E7E  C$worldte
     00644E80  A$lcc8968 |    00644E81  A$lcc8968 |    00644E82  A$lcc8968
     00644E84  A$lcc8968 |    00644E85  A$lcc8968 |    00644E86  A$lcc8968
     00644E87  A$lcc8968 |    00644E88  A$lcc8968 |    00644E89  A$lcc8968
     00644E8A  A$lcc8968 |    00644E8C  A$lcc8968 |    00644E8E  A$lcc8968
     00644E90  A$lcc8968 |    00644E90  C$worldte |    00644E93  A$lcc8968
     00644E95  A$lcc8968 |    00644E95  C$worldte |    00644E98  A$lcc8968
     00644E99  A$lcc8968 |    00644E9C  A$lcc8968 |    00644E9C  C$worldte
     00644E9F  A$lcc8968 |    00644EA1  A$lcc8968 |    00644EA2  A$lcc8968
     00644EA5  A$lcc8968 |    00644EA5  C$worldte |    00644EA7  A$lcc8968
     00644EA8  A$lcc8968 |    00644EA9  A$lcc8968 |    00644EAB  A$lcc8968
     00644EAC  A$lcc8968 |    00644EAD  A$lcc8968 |    00644EAE  A$lcc8968
     00644EAF  A$lcc8968 |    00644EB0  A$lcc8968 |    00644EB1  A$lcc8968
     00644EB3  A$lcc8968 |    00644EB5  A$lcc8968 |    00644EB6  A$lcc8968
     00644EB7  A$lcc8968 |    00644EB9  A$lcc8968 |    00644EBA  A$lcc8968
     00644EBB  A$lcc8968 |    00644EBC  A$lcc8968 |    00644EBD  A$lcc8968
     00644EBE  A$lcc8968 |    00644EBF  A$lcc8968 |    00644EC1  A$lcc8968
     00644EC1  C$worldte |    00644EC4  A$lcc8968 |    00644EC6  A$lcc8968
     00644EC6  C$worldte |    00644EC9  A$lcc8968 |    00644ECB  A$lcc8968
     00644ECD  A$lcc8968 |    00644ECD  C$worldte |    00644ED0  A$lcc8968
     00644ED1  A$lcc8968 |    00644ED2  A$lcc8968 |    00644ED3  A$lcc8968
     00644ED3  C$worldte |    00644ED6  A$lcc8968 |    00644ED7  A$lcc8968
     00644ED8  A$lcc8968 |    00644ED9  A$lcc8968 |    00644EDA  A$lcc8968
     00644EDB  A$lcc8968 |    00644EDC  A$lcc8968 |    00644EDE  A$lcc8968
     00644EE0  A$lcc8968 |    00644EE1  A$lcc8968 |    00644EE2  A$lcc8968
     00644EE3  A$lcc8968 |    00644EE4  A$lcc8968 |    00644EE5  A$lcc8968
ASxxxx Linker V03.00 + NoICE + sdld,  page 165.
Hexadecimal  [32-Bits]

Area                       Addr        Size        Decimal Bytes (Attributes)
--------------------       ----        ----        ------- ----- ------------
_CODE_100              00644000    00001AFB =        6907. bytes (REL,CON)

        Value  Global            Value  Global            Value  Global    
        -----  ------            -----  ------            -----  ------    
     00644EE7  A$lcc8968 |    00644EE9  A$lcc8968 |    00644EEB  A$lcc8968
     00644EEC  A$lcc8968 |    00644EED  A$lcc8968 |    00644EEE  A$lcc8968
     00644EEF  A$lcc8968 |    00644EF0  A$lcc8968 |    00644EF1  A$lcc8968
     00644EF2  A$lcc8968 |    00644EF3  A$lcc8968 |    00644EF4  A$lcc8968
     00644EF5  A$lcc8968 |    00644EF7  A$lcc8968 |    00644EF9  A$lcc8968
     00644EFB  A$lcc8968 |    00644EFD  A$lcc8968 |    00644EFF  A$lcc8968
     00644F01  A$lcc8968 |    00644F03  A$lcc8968 |    00644F05  A$lcc8968
     00644F08  A$lcc8968 |    00644F09  A$lcc8968 |    00644F0A  A$lcc8968
     00644F0B  A$lcc8968 |    00644F0B  C$worldte |    00644F0E  A$lcc8968
     00644F0F  A$lcc8968 |    00644F11  A$lcc8968 |    00644F11  C$worldte
     00644F14  A$lcc8968 |    00644F16  A$lcc8968 |    00644F16  C$worldte
     00644F19  A$lcc8968 |    00644F19  C$worldte |    00644F1B  A$lcc8968
     00644F1D  A$lcc8968 |    00644F1E  A$lcc8968 |    00644F20  A$lcc8968
     00644F23  A$lcc8968 |    00644F24  A$lcc8968 |    00644F26  A$lcc8968
     00644F26  C$worldte |    00644F29  A$lcc8968 |    00644F29  C$worldte
     00644F2C  A$lcc8968 |    00644F2E  A$lcc8968 |    00644F31  A$lcc8968
     00644F33  A$lcc8968 |    00644F36  A$lcc8968 |    00644F38  A$lcc8968
     00644F38  C$worldte |    00644F3A  A$lcc8968 |    00644F3B  A$lcc8968
     00644F3E  A$lcc8968 |    00644F40  A$lcc8968 |    00644F40  C$worldte
     00644F40  XG$npc_co |    00644F41  A$lcc8968 |    00644F41  C$worldte
     00644F41  C$worldte |    00644F41  G$init_su |    00644F41  _init_sub
     00644F43  A$lcc8968 |    00644F45  A$lcc8968 |    00644F47  A$lcc8968
     00644F47  C$worldte |    00644F4A  A$lcc8968 |    00644F4C  A$lcc8968
     00644F4C  C$worldte |    00644F4F  A$lcc8968 |    00644F51  A$lcc8968
     00644F51  C$worldte |    00644F54  A$lcc8968 |    00644F56  A$lcc8968
     00644F57  A$lcc8968 |    00644F59  A$lcc8968 |    00644F59  C$worldte
     00644F5C  A$lcc8968 |    00644F5E  A$lcc8968 |    00644F5F  A$lcc8968
     00644F61  A$lcc8968 |    00644F61  C$worldte |    00644F64  A$lcc8968
     00644F66  A$lcc8968 |    00644F67  A$lcc8968 |    00644F69  A$lcc8968
     00644F69  C$worldte |    00644F6C  A$lcc8968 |    00644F6E  A$lcc8968
     00644F6F  A$lcc8968 |    00644F71  A$lcc8968 |    00644F71  C$worldte
     00644F74  A$lcc8968 |    00644F75  A$lcc8968 |    00644F76  A$lcc8968
     00644F77  A$lcc8968 |    00644F78  A$lcc8968 |    00644F79  A$lcc8968
     00644F7A  A$lcc8968 |    00644F7B  A$lcc8968 |    00644F7C  A$lcc8968
     00644F7D  A$lcc8968 |    00644F80  A$lcc8968 |    00644F81  A$lcc8968
     00644F82  A$lcc8968 |    00644F83  A$lcc8968 |    00644F83  C$worldte
     00644F86  A$lcc8968 |    00644F87  A$lcc8968 |    00644F88  A$lcc8968
     00644F89  A$lcc8968 |    00644F89  C$worldte |    00644F8C  A$lcc8968
     00644F8D  A$lcc8968 |    00644F8E  A$lcc8968 |    00644F8F  A$lcc8968
     00644F92  A$lcc8968 |    00644F93  A$lcc8968 |    00644F94  A$lcc8968
     00644F95  A$lcc8968 |    00644F95  C$worldte |    00644F98  A$lcc8968
     00644F99  A$lcc8968 |    00644F9A  A$lcc8968 |    00644F9B  A$lcc8968
     00644F9E  A$lcc8968 |    00644F9F  A$lcc8968 |    00644FA0  A$lcc8968
     00644FA1  A$lcc8968 |    00644FA1  C$worldte |    00644FA4  A$lcc8968
     00644FA5  A$lcc8968 |    00644FA6  A$lcc8968 |    00644FA7  A$lcc8968
     00644FA9  A$lcc8968 |    00644FAB  A$lcc8968 |    00644FAD  A$lcc8968
     00644FAF  A$lcc8968 |    00644FB1  A$lcc8968 |    00644FB3  A$lcc8968
     00644FB5  A$lcc8968 |    00644FB7  A$lcc8968 |    00644FB9  A$lcc8968
     00644FBB  A$lcc8968 |    00644FBD  A$lcc8968 |    00644FBF  A$lcc8968
     00644FC1  A$lcc8968 |    00644FC3  A$lcc8968 |    00644FC6  A$lcc8968
     00644FC7  A$lcc8968 |    00644FC7  C$worldte |    00644FCA  A$lcc8968
ASxxxx Linker V03.00 + NoICE + sdld,  page 166.
Hexadecimal  [32-Bits]

Area                       Addr        Size        Decimal Bytes (Attributes)
--------------------       ----        ----        ------- ----- ------------
_CODE_100              00644000    00001AFB =        6907. bytes (REL,CON)

        Value  Global            Value  Global            Value  Global    
        -----  ------            -----  ------            -----  ------    
     00644FCB  A$lcc8968 |    00644FCC  A$lcc8968 |    00644FCD  A$lcc8968
     00644FCF  A$lcc8968 |    00644FD1  A$lcc8968 |    00644FD3  A$lcc8968
     00644FD5  A$lcc8968 |    00644FD7  A$lcc8968 |    00644FD9  A$lcc8968
     00644FDB  A$lcc8968 |    00644FDD  A$lcc8968 |    00644FDF  A$lcc8968
     00644FE1  A$lcc8968 |    00644FE3  A$lcc8968 |    00644FE5  A$lcc8968
     00644FE7  A$lcc8968 |    00644FE9  A$lcc8968 |    00644FEC  A$lcc8968
     00644FED  A$lcc8968 |    00644FED  C$worldte |    00644FEF  A$lcc8968
     00644FF0  A$lcc8968 |    00644FF1  A$lcc8968 |    00644FF4  A$lcc8968
     00644FF5  A$lcc8968 |    00644FF8  A$lcc8968 |    00644FF9  A$lcc8968
     00644FFC  A$lcc8968 |    00644FFE  A$lcc8968 |    00644FFE  C$worldte
     00645001  A$lcc8968 |    00645003  A$lcc8968 |    00645006  A$lcc8968
     00645008  A$lcc8968 |    00645008  C$worldte |    0064500B  A$lcc8968
     0064500C  A$lcc8968 |    0064500F  A$lcc8968 |    00645011  A$lcc8968
     00645012  A$lcc8968 |    00645013  A$lcc8968 |    00645015  A$lcc8968
     00645016  A$lcc8968 |    00645017  A$lcc8968 |    0064501A  A$lcc8968
     0064501B  A$lcc8968 |    0064501D  A$lcc8968 |    0064501E  A$lcc8968
     0064501F  A$lcc8968 |    00645021  A$lcc8968 |    00645022  A$lcc8968
     00645023  A$lcc8968 |    00645024  A$lcc8968 |    00645025  A$lcc8968
     00645028  A$lcc8968 |    0064502A  A$lcc8968 |    0064502A  C$worldte
     0064502C  A$lcc8968 |    0064502D  A$lcc8968 |    0064502E  A$lcc8968
     00645031  A$lcc8968 |    00645032  A$lcc8968 |    00645035  A$lcc8968
     00645036  A$lcc8968 |    00645039  A$lcc8968 |    0064503B  A$lcc8968
     0064503B  C$worldte |    0064503E  A$lcc8968 |    0064503F  A$lcc8968
     00645040  A$lcc8968 |    00645041  A$lcc8968 |    00645044  A$lcc8968
     00645045  A$lcc8968 |    00645046  A$lcc8968 |    00645047  A$lcc8968
     00645047  C$worldte |    0064504A  A$lcc8968 |    0064504B  A$lcc8968
     0064504C  A$lcc8968 |    0064504D  A$lcc8968 |    00645050  A$lcc8968
     00645051  A$lcc8968 |    00645052  A$lcc8968 |    00645053  A$lcc8968
     00645053  C$worldte |    00645056  A$lcc8968 |    00645058  A$lcc8968
     00645058  C$worldte |    0064505B  A$lcc8968 |    0064505D  A$lcc8968
     0064505E  A$lcc8968 |    00645060  A$lcc8968 |    00645060  C$worldte
     00645063  A$lcc8968 |    00645065  A$lcc8968 |    00645065  C$worldte
     00645068  A$lcc8968 |    0064506A  A$lcc8968 |    0064506A  C$worldte
     0064506D  A$lcc8968 |    00645070  A$lcc8968 |    00645070  C$worldte
     00645073  A$lcc8968 |    00645076  A$lcc8968 |    00645076  C$worldte
     00645078  A$lcc8968 |    0064507A  A$lcc8968 |    0064507C  A$lcc8968
     0064507C  C$worldte |    0064507C  XG$init_s |    0064507D  A$lcc8968
     0064507D  C$worldte |    0064507D  C$worldte |    0064507D  G$setup_w
     0064507D  _setup_wo |    00645080  A$lcc8968 |    00645080  C$worldte
     00645083  A$lcc8968 |    00645085  A$lcc8968 |    00645085  C$worldte
     00645088  A$lcc8968 |    0064508A  A$lcc8968 |    0064508D  A$lcc8968
     0064508F  A$lcc8968 |    00645092  A$lcc8968 |    00645094  A$lcc8968
     00645097  A$lcc8968 |    00645099  A$lcc8968 |    0064509C  A$lcc8968
     0064509E  A$lcc8968 |    006450A1  A$lcc8968 |    006450A3  A$lcc8968
     006450A6  A$lcc8968 |    006450A8  A$lcc8968 |    006450AB  A$lcc8968
     006450AD  A$lcc8968 |    006450B0  A$lcc8968 |    006450B2  A$lcc8968
     006450B2  C$worldte |    006450B5  A$lcc8968 |    006450B7  A$lcc8968
     006450BA  A$lcc8968 |    006450BC  A$lcc8968 |    006450BC  C$worldte
     006450BF  A$lcc8968 |    006450C0  A$lcc8968 |    006450C3  A$lcc8968
     006450C4  A$lcc8968 |    006450C4  C$worldte |    006450C7  A$lcc8968
     006450C7  C$worldte |    006450C9  A$lcc8968 |    006450CB  A$lcc8968
ASxxxx Linker V03.00 + NoICE + sdld,  page 167.
Hexadecimal  [32-Bits]

Area                       Addr        Size        Decimal Bytes (Attributes)
--------------------       ----        ----        ------- ----- ------------
_CODE_100              00644000    00001AFB =        6907. bytes (REL,CON)

        Value  Global            Value  Global            Value  Global    
        -----  ------            -----  ------            -----  ------    
     006450CD  A$lcc8968 |    006450CD  C$worldte |    006450CD  XG$setup_
     006450CE  A$lcc8968 |    006450CE  C$worldte |    006450CE  G$enter_w
     006450CE  _enter_wo |    006450D0  A$lcc8968 |    006450D0  C$worldte
     006450D3  A$lcc8968 |    006450D3  C$worldte |    006450D6  A$lcc8968
     006450D8  A$lcc8968 |    006450DB  A$lcc8968 |    006450DB  C$worldte
     006450DE  A$lcc8968 |    006450E1  A$lcc8968 |    006450E1  C$worldte
     006450E4  A$lcc8968 |    006450E7  A$lcc8968 |    006450E8  A$lcc8968
     006450E8  C$worldte |    006450EB  A$lcc8968 |    006450EC  A$lcc8968
     006450EF  A$lcc8968 |    006450EF  C$worldte |    006450F2  A$lcc8968
     006450F3  A$lcc8968 |    006450F4  A$lcc8968 |    006450F5  A$lcc8968
     006450F7  A$lcc8968 |    006450F9  A$lcc8968 |    006450FB  A$lcc8968
     006450FD  A$lcc8968 |    006450FF  A$lcc8968 |    00645101  A$lcc8968
     00645103  A$lcc8968 |    00645105  A$lcc8968 |    00645108  A$lcc8968
     00645109  A$lcc8968 |    00645109  C$worldte |    0064510C  A$lcc8968
     0064510D  A$lcc8968 |    0064510E  A$lcc8968 |    0064510F  A$lcc8968
     00645111  A$lcc8968 |    00645113  A$lcc8968 |    00645115  A$lcc8968
     00645117  A$lcc8968 |    00645119  A$lcc8968 |    0064511B  A$lcc8968
     0064511D  A$lcc8968 |    0064511F  A$lcc8968 |    00645122  A$lcc8968
     00645123  A$lcc8968 |    00645123  C$worldte |    00645126  A$lcc8968
     00645127  A$lcc8968 |    0064512A  A$lcc8968 |    0064512D  A$lcc8968
     0064512E  A$lcc8968 |    0064512E  C$worldte |    0064512E  C$worldte
     00645130  A$lcc8968 |    00645133  A$lcc8968 |    00645136  A$lcc8968
     00645138  A$lcc8968 |    00645139  A$lcc8968 |    0064513C  A$lcc8968
     0064513E  A$lcc8968 |    0064513F  A$lcc8968 |    00645140  A$lcc8968
     00645141  A$lcc8968 |    00645143  A$lcc8968 |    00645146  A$lcc8968
     00645148  A$lcc8968 |    00645149  A$lcc8968 |    0064514A  A$lcc8968
     0064514D  A$lcc8968 |    0064514F  A$lcc8968 |    00645152  A$lcc8968
     00645154  A$lcc8968 |    00645155  A$lcc8968 |    00645156  A$lcc8968
     00645159  A$lcc8968 |    0064515A  A$lcc8968 |    0064515D  A$lcc8968
     0064515E  A$lcc8968 |    0064515F  A$lcc8968 |    00645160  A$lcc8968
     00645160  C$worldte |    00645162  A$lcc8968 |    00645164  A$lcc8968
     00645166  A$lcc8968 |    00645168  A$lcc8968 |    00645168  C$worldte
     00645169  A$lcc8968 |    0064516B  A$lcc8968 |    0064516D  A$lcc8968
     0064516E  A$lcc8968 |    00645170  A$lcc8968 |    00645171  A$lcc8968
     00645173  A$lcc8968 |    00645175  A$lcc8968 |    00645177  A$lcc8968
     00645179  A$lcc8968 |    0064517A  A$lcc8968 |    0064517C  A$lcc8968
     0064517E  A$lcc8968 |    00645180  A$lcc8968 |    00645181  A$lcc8968
     00645183  A$lcc8968 |    00645183  C$worldte |    00645184  A$lcc8968
     00645186  A$lcc8968 |    00645187  A$lcc8968 |    00645188  A$lcc8968
     0064518A  A$lcc8968 |    0064518B  A$lcc8968 |    0064518E  A$lcc8968
     0064518F  A$lcc8968 |    00645190  A$lcc8968 |    00645191  A$lcc8968
     00645194  A$lcc8968 |    00645194  C$worldte |    00645197  A$lcc8968
     00645199  A$lcc8968 |    0064519A  A$lcc8968 |    0064519C  A$lcc8968
     0064519F  A$lcc8968 |    0064519F  C$worldte |    006451A0  A$lcc8968
     006451A2  A$lcc8968 |    006451A4  A$lcc8968 |    006451A5  A$lcc8968
     006451A7  A$lcc8968 |    006451A8  A$lcc8968 |    006451AA  A$lcc8968
     006451AC  A$lcc8968 |    006451AE  A$lcc8968 |    006451B0  A$lcc8968
     006451B1  A$lcc8968 |    006451B3  A$lcc8968 |    006451B5  A$lcc8968
     006451B7  A$lcc8968 |    006451B8  A$lcc8968 |    006451BA  A$lcc8968
     006451BA  C$worldte |    006451BB  A$lcc8968 |    006451BD  A$lcc8968
     006451BE  A$lcc8968 |    006451BF  A$lcc8968 |    006451C1  A$lcc8968
ASxxxx Linker V03.00 + NoICE + sdld,  page 168.
Hexadecimal  [32-Bits]

Area                       Addr        Size        Decimal Bytes (Attributes)
--------------------       ----        ----        ------- ----- ------------
_CODE_100              00644000    00001AFB =        6907. bytes (REL,CON)

        Value  Global            Value  Global            Value  Global    
        -----  ------            -----  ------            -----  ------    
     006451C2  A$lcc8968 |    006451C5  A$lcc8968 |    006451C6  A$lcc8968
     006451C7  A$lcc8968 |    006451C8  A$lcc8968 |    006451CB  A$lcc8968
     006451CB  C$worldte |    006451CE  A$lcc8968 |    006451D0  A$lcc8968
     006451D1  A$lcc8968 |    006451D3  A$lcc8968 |    006451D5  A$lcc8968
     006451D5  C$worldte |    006451D7  A$lcc8968 |    006451D9  A$lcc8968
     006451DC  A$lcc8968 |    006451DD  A$lcc8968 |    006451E0  A$lcc8968
     006451E1  A$lcc8968 |    006451E2  A$lcc8968 |    006451E3  A$lcc8968
     006451E5  A$lcc8968 |    006451E8  A$lcc8968 |    006451E9  A$lcc8968
     006451EC  A$lcc8968 |    006451EE  A$lcc8968 |    006451F1  A$lcc8968
     006451F2  A$lcc8968 |    006451F5  A$lcc8968 |    006451F6  A$lcc8968
     006451F6  C$worldte |    006451F9  A$lcc8968 |    006451FA  A$lcc8968
     006451FB  A$lcc8968 |    006451FC  A$lcc8968 |    006451FC  C$worldte
     006451FE  A$lcc8968 |    00645200  A$lcc8968 |    00645202  A$lcc8968
     00645204  A$lcc8968 |    00645204  C$worldte |    00645205  A$lcc8968
     00645207  A$lcc8968 |    00645208  A$lcc8968 |    00645209  A$lcc8968
     0064520A  A$lcc8968 |    0064520B  A$lcc8968 |    0064520D  A$lcc8968
     0064520F  A$lcc8968 |    0064520F  C$worldte |    00645210  A$lcc8968
     00645211  A$lcc8968 |    00645212  A$lcc8968 |    00645213  A$lcc8968
     00645216  A$lcc8968 |    00645217  A$lcc8968 |    00645218  A$lcc8968
     00645219  A$lcc8968 |    0064521B  A$lcc8968 |    0064521B  C$worldte
     0064521E  A$lcc8968 |    00645220  A$lcc8968 |    00645221  A$lcc8968
     00645223  A$lcc8968 |    00645225  A$lcc8968 |    00645225  C$worldte
     00645226  A$lcc8968 |    00645228  A$lcc8968 |    00645229  A$lcc8968
     0064522A  A$lcc8968 |    0064522B  A$lcc8968 |    0064522C  A$lcc8968
     0064522E  A$lcc8968 |    00645230  A$lcc8968 |    00645230  C$worldte
     00645231  A$lcc8968 |    00645233  A$lcc8968 |    00645234  A$lcc8968
     00645235  A$lcc8968 |    00645237  A$lcc8968 |    00645238  A$lcc8968
     0064523B  A$lcc8968 |    0064523C  A$lcc8968 |    0064523D  A$lcc8968
     0064523E  A$lcc8968 |    00645240  A$lcc8968 |    00645240  C$worldte
     00645243  A$lcc8968 |    00645245  A$lcc8968 |    00645246  A$lcc8968
     00645248  A$lcc8968 |    0064524B  A$lcc8968 |    0064524C  A$lcc8968
     0064524C  C$worldte |    0064524E  A$lcc8968 |    00645251  A$lcc8968
     00645254  A$lcc8968 |    00645256  A$lcc8968 |    00645257  A$lcc8968
     0064525A  A$lcc8968 |    0064525C  A$lcc8968 |    0064525D  A$lcc8968
     0064525E  A$lcc8968 |    00645260  A$lcc8968 |    00645262  A$lcc8968
     00645265  A$lcc8968 |    00645267  A$lcc8968 |    00645268  A$lcc8968
     00645269  A$lcc8968 |    0064526C  A$lcc8968 |    0064526E  A$lcc8968
     00645271  A$lcc8968 |    00645273  A$lcc8968 |    00645274  A$lcc8968
     00645275  A$lcc8968 |    00645278  A$lcc8968 |    00645279  A$lcc8968
     0064527C  A$lcc8968 |    0064527D  A$lcc8968 |    0064527E  A$lcc8968
     0064527F  A$lcc8968 |    0064527F  C$worldte |    00645281  A$lcc8968
     00645283  A$lcc8968 |    00645285  A$lcc8968 |    00645287  A$lcc8968
     00645287  C$worldte |    00645288  A$lcc8968 |    0064528A  A$lcc8968
     0064528B  A$lcc8968 |    0064528C  A$lcc8968 |    0064528D  A$lcc8968
     0064528E  A$lcc8968 |    00645290  A$lcc8968 |    00645292  A$lcc8968
     00645292  C$worldte |    00645293  A$lcc8968 |    00645294  A$lcc8968
     00645295  A$lcc8968 |    00645296  A$lcc8968 |    00645299  A$lcc8968
     0064529A  A$lcc8968 |    0064529B  A$lcc8968 |    0064529C  A$lcc8968
     0064529F  A$lcc8968 |    0064529F  C$worldte |    006452A2  A$lcc8968
     006452A4  A$lcc8968 |    006452A5  A$lcc8968 |    006452A7  A$lcc8968
     006452AA  A$lcc8968 |    006452AA  C$worldte |    006452AB  A$lcc8968
ASxxxx Linker V03.00 + NoICE + sdld,  page 169.
Hexadecimal  [32-Bits]

Area                       Addr        Size        Decimal Bytes (Attributes)
--------------------       ----        ----        ------- ----- ------------
_CODE_100              00644000    00001AFB =        6907. bytes (REL,CON)

        Value  Global            Value  Global            Value  Global    
        -----  ------            -----  ------            -----  ------    
     006452AD  A$lcc8968 |    006452AE  A$lcc8968 |    006452AF  A$lcc8968
     006452B0  A$lcc8968 |    006452B1  A$lcc8968 |    006452B3  A$lcc8968
     006452B5  A$lcc8968 |    006452B5  C$worldte |    006452B6  A$lcc8968
     006452B8  A$lcc8968 |    006452B9  A$lcc8968 |    006452BA  A$lcc8968
     006452BC  A$lcc8968 |    006452BD  A$lcc8968 |    006452C0  A$lcc8968
     006452C1  A$lcc8968 |    006452C2  A$lcc8968 |    006452C3  A$lcc8968
     006452C6  A$lcc8968 |    006452C6  C$worldte |    006452C9  A$lcc8968
     006452CB  A$lcc8968 |    006452CC  A$lcc8968 |    006452CE  A$lcc8968
     006452D1  A$lcc8968 |    006452D1  C$worldte |    006452D3  A$lcc8968
     006452D6  A$lcc8968 |    006452D9  A$lcc8968 |    006452DA  A$lcc8968
     006452DD  A$lcc8968 |    006452DE  A$lcc8968 |    006452DF  A$lcc8968
     006452E1  A$lcc8968 |    006452E3  A$lcc8968 |    006452E6  A$lcc8968
     006452E7  A$lcc8968 |    006452EA  A$lcc8968 |    006452EC  A$lcc8968
     006452EF  A$lcc8968 |    006452F0  A$lcc8968 |    006452F0  C$worldte
     006452F3  A$lcc8968 |    006452F4  A$lcc8968 |    006452F4  C$worldte
     006452F7  A$lcc8968 |    006452F8  A$lcc8968 |    006452F9  A$lcc8968
     006452FA  A$lcc8968 |    006452FA  C$worldte |    006452FC  A$lcc8968
     006452FE  A$lcc8968 |    00645300  A$lcc8968 |    00645302  A$lcc8968
     00645302  C$worldte |    00645303  A$lcc8968 |    00645305  A$lcc8968
     00645307  A$lcc8968 |    00645308  A$lcc8968 |    0064530A  A$lcc8968
     0064530B  A$lcc8968 |    0064530D  A$lcc8968 |    0064530F  A$lcc8968
     00645311  A$lcc8968 |    00645313  A$lcc8968 |    00645314  A$lcc8968
     00645316  A$lcc8968 |    00645318  A$lcc8968 |    0064531A  A$lcc8968
     0064531B  A$lcc8968 |    0064531D  A$lcc8968 |    0064531D  C$worldte
     0064531E  A$lcc8968 |    00645320  A$lcc8968 |    00645321  A$lcc8968
     00645322  A$lcc8968 |    00645324  A$lcc8968 |    00645325  A$lcc8968
     00645328  A$lcc8968 |    00645329  A$lcc8968 |    0064532A  A$lcc8968
     0064532B  A$lcc8968 |    0064532D  A$lcc8968 |    0064532D  C$worldte
     00645330  A$lcc8968 |    00645332  A$lcc8968 |    00645333  A$lcc8968
     00645335  A$lcc8968 |    00645337  A$lcc8968 |    00645337  C$worldte
     00645338  A$lcc8968 |    0064533A  A$lcc8968 |    0064533C  A$lcc8968
     0064533D  A$lcc8968 |    0064533F  A$lcc8968 |    00645340  A$lcc8968
     00645342  A$lcc8968 |    00645344  A$lcc8968 |    00645346  A$lcc8968
     00645348  A$lcc8968 |    00645349  A$lcc8968 |    0064534B  A$lcc8968
     0064534D  A$lcc8968 |    0064534F  A$lcc8968 |    00645350  A$lcc8968
     00645352  A$lcc8968 |    00645352  C$worldte |    00645353  A$lcc8968
     00645355  A$lcc8968 |    00645356  A$lcc8968 |    00645357  A$lcc8968
     00645359  A$lcc8968 |    0064535A  A$lcc8968 |    0064535D  A$lcc8968
     0064535E  A$lcc8968 |    0064535F  A$lcc8968 |    00645360  A$lcc8968
     00645362  A$lcc8968 |    00645362  C$worldte |    00645365  A$lcc8968
     00645367  A$lcc8968 |    00645368  A$lcc8968 |    0064536A  A$lcc8968
     0064536A  C$worldte |    0064536C  A$lcc8968 |    0064536F  A$lcc8968
     00645370  A$lcc8968 |    00645372  A$lcc8968 |    00645375  A$lcc8968
     00645376  A$lcc8968 |    00645377  A$lcc8968 |    00645378  A$lcc8968
     0064537A  A$lcc8968 |    0064537C  A$lcc8968 |    0064537E  A$lcc8968
     00645380  A$lcc8968 |    00645382  A$lcc8968 |    00645384  A$lcc8968
     00645386  A$lcc8968 |    00645388  A$lcc8968 |    00645389  A$lcc8968
     0064538A  A$lcc8968 |    0064538B  A$lcc8968 |    0064538C  A$lcc8968
     0064538D  A$lcc8968 |    0064538F  A$lcc8968 |    00645391  A$lcc8968
     00645393  A$lcc8968 |    00645395  A$lcc8968 |    00645396  A$lcc8968
     00645398  A$lcc8968 |    0064539A  A$lcc8968 |    0064539C  A$lcc8968
ASxxxx Linker V03.00 + NoICE + sdld,  page 170.
Hexadecimal  [32-Bits]

Area                       Addr        Size        Decimal Bytes (Attributes)
--------------------       ----        ----        ------- ----- ------------
_CODE_100              00644000    00001AFB =        6907. bytes (REL,CON)

        Value  Global            Value  Global            Value  Global    
        -----  ------            -----  ------            -----  ------    
     0064539D  A$lcc8968 |    0064539F  A$lcc8968 |    0064539F  C$worldte
     006453A2  A$lcc8968 |    006453A4  A$lcc8968 |    006453A4  C$worldte
     006453A7  A$lcc8968 |    006453A9  A$lcc8968 |    006453A9  C$worldte
     006453AC  A$lcc8968 |    006453AE  A$lcc8968 |    006453AE  C$worldte
     006453B1  A$lcc8968 |    006453B3  A$lcc8968 |    006453B6  A$lcc8968
     006453B6  C$worldte |    006453B9  A$lcc8968 |    006453BB  A$lcc8968
     006453BD  A$lcc8968 |    006453C0  A$lcc8968 |    006453C1  A$lcc8968
     006453C2  A$lcc8968 |    006453C3  A$lcc8968 |    006453C5  A$lcc8968
     006453C7  A$lcc8968 |    006453C9  A$lcc8968 |    006453CB  A$lcc8968
     006453CD  A$lcc8968 |    006453CF  A$lcc8968 |    006453D1  A$lcc8968
     006453D3  A$lcc8968 |    006453D6  A$lcc8968 |    006453D7  A$lcc8968
     006453D8  A$lcc8968 |    006453D9  A$lcc8968 |    006453DA  A$lcc8968
     006453DB  A$lcc8968 |    006453DC  A$lcc8968 |    006453DD  A$lcc8968
     006453DF  A$lcc8968 |    006453DF  C$worldte |    006453E2  A$lcc8968
     006453E4  A$lcc8968 |    006453E4  C$worldte |    006453E7  A$lcc8968
     006453E9  A$lcc8968 |    006453E9  C$worldte |    006453EC  A$lcc8968
     006453EE  A$lcc8968 |    006453EE  C$worldte |    006453F1  A$lcc8968
     006453F3  A$lcc8968 |    006453F6  A$lcc8968 |    006453F6  C$worldte
     006453F9  A$lcc8968 |    006453FB  A$lcc8968 |    006453FD  A$lcc8968
     00645400  A$lcc8968 |    00645401  A$lcc8968 |    00645402  A$lcc8968
     00645403  A$lcc8968 |    00645405  A$lcc8968 |    00645407  A$lcc8968
     00645409  A$lcc8968 |    0064540B  A$lcc8968 |    0064540D  A$lcc8968
     0064540F  A$lcc8968 |    00645411  A$lcc8968 |    00645413  A$lcc8968
     00645416  A$lcc8968 |    00645417  A$lcc8968 |    00645418  A$lcc8968
     00645419  A$lcc8968 |    0064541A  A$lcc8968 |    0064541B  A$lcc8968
     0064541C  A$lcc8968 |    0064541D  A$lcc8968 |    0064541F  A$lcc8968
     0064541F  C$worldte |    00645422  A$lcc8968 |    00645424  A$lcc8968
     00645424  C$worldte |    00645427  A$lcc8968 |    00645429  A$lcc8968
     00645429  C$worldte |    0064542C  A$lcc8968 |    0064542E  A$lcc8968
     0064542E  C$worldte |    00645431  A$lcc8968 |    00645433  A$lcc8968
     00645435  A$lcc8968 |    00645435  C$worldte |    00645437  A$lcc8968
     0064543A  A$lcc8968 |    0064543B  A$lcc8968 |    0064543D  A$lcc8968
     00645440  A$lcc8968 |    00645441  A$lcc8968 |    00645442  A$lcc8968
     00645443  A$lcc8968 |    00645445  A$lcc8968 |    00645447  A$lcc8968
     00645449  A$lcc8968 |    0064544B  A$lcc8968 |    0064544D  A$lcc8968
     0064544F  A$lcc8968 |    00645451  A$lcc8968 |    00645453  A$lcc8968
     00645454  A$lcc8968 |    00645455  A$lcc8968 |    00645456  A$lcc8968
     00645457  A$lcc8968 |    00645458  A$lcc8968 |    0064545A  A$lcc8968
     0064545C  A$lcc8968 |    0064545E  A$lcc8968 |    00645460  A$lcc8968
     00645461  A$lcc8968 |    00645463  A$lcc8968 |    00645465  A$lcc8968
     00645467  A$lcc8968 |    00645468  A$lcc8968 |    0064546A  A$lcc8968
     0064546A  C$worldte |    0064546D  A$lcc8968 |    0064546F  A$lcc8968
     0064546F  C$worldte |    00645472  A$lcc8968 |    00645474  A$lcc8968
     00645474  C$worldte |    00645477  A$lcc8968 |    00645479  A$lcc8968
     00645479  C$worldte |    0064547C  A$lcc8968 |    0064547E  A$lcc8968
     0064547E  C$worldte |    0064547E  C$worldte |    0064547E  C$worldte
     0064547E  C$worldte |    0064547E  C$worldte |    00645481  A$lcc8968
     00645482  A$lcc8968 |    00645485  A$lcc8968 |    00645485  C$worldte
     00645488  A$lcc8968 |    00645489  A$lcc8968 |    0064548A  A$lcc8968
     0064548B  A$lcc8968 |    0064548B  C$worldte |    0064548E  A$lcc8968
     0064548F  A$lcc8968 |    00645490  A$lcc8968 |    00645491  A$lcc8968
ASxxxx Linker V03.00 + NoICE + sdld,  page 171.
Hexadecimal  [32-Bits]

Area                       Addr        Size        Decimal Bytes (Attributes)
--------------------       ----        ----        ------- ----- ------------
_CODE_100              00644000    00001AFB =        6907. bytes (REL,CON)

        Value  Global            Value  Global            Value  Global    
        -----  ------            -----  ------            -----  ------    
     00645494  A$lcc8968 |    00645494  C$worldte |    00645496  A$lcc8968
     00645497  A$lcc8968 |    00645498  A$lcc8968 |    00645499  A$lcc8968
     0064549B  A$lcc8968 |    0064549D  A$lcc8968 |    0064549E  A$lcc8968
     0064549F  A$lcc8968 |    006454A1  A$lcc8968 |    006454A1  C$worldte
     006454A4  A$lcc8968 |    006454A5  A$lcc8968 |    006454A6  A$lcc8968
     006454A7  A$lcc8968 |    006454A7  C$worldte |    006454A9  A$lcc8968
     006454AA  A$lcc8968 |    006454AC  A$lcc8968 |    006454AE  A$lcc8968
     006454B0  A$lcc8968 |    006454B1  A$lcc8968 |    006454B3  A$lcc8968
     006454B5  A$lcc8968 |    006454B7  A$lcc8968 |    006454B7  C$worldte
     006454B7  C$worldte |    006454B8  A$lcc8968 |    006454BA  A$lcc8968
     006454BB  A$lcc8968 |    006454BC  A$lcc8968 |    006454BE  A$lcc8968
     006454BF  A$lcc8968 |    006454C2  A$lcc8968 |    006454C3  A$lcc8968
     006454C4  A$lcc8968 |    006454C5  A$lcc8968 |    006454C5  C$worldte
     006454C8  A$lcc8968 |    006454CA  A$lcc8968 |    006454CB  A$lcc8968
     006454CD  A$lcc8968 |    006454CD  C$worldte |    006454D0  A$lcc8968
     006454D2  A$lcc8968 |    006454D2  C$worldte |    006454D4  A$lcc8968
     006454D4  C$worldte |    006454D4  C$worldte |    006454D7  A$lcc8968
     006454D8  A$lcc8968 |    006454D9  A$lcc8968 |    006454DA  A$lcc8968
     006454DD  A$lcc8968 |    006454DE  A$lcc8968 |    006454DF  A$lcc8968
     006454E0  A$lcc8968 |    006454E0  C$worldte |    006454E3  A$lcc8968
     006454E4  A$lcc8968 |    006454E5  A$lcc8968 |    006454E6  A$lcc8968
     006454E6  C$worldte |    006454E9  A$lcc8968 |    006454EB  A$lcc8968
     006454EB  C$worldte |    006454ED  A$lcc8968 |    006454ED  C$worldte
     006454ED  C$worldte |    006454F0  A$lcc8968 |    006454F1  A$lcc8968
     006454F2  A$lcc8968 |    006454F3  A$lcc8968 |    006454F4  A$lcc8968
     006454F6  A$lcc8968 |    006454F7  A$lcc8968 |    006454F8  A$lcc8968
     006454FA  A$lcc8968 |    006454FB  A$lcc8968 |    006454FE  A$lcc8968
     006454FF  A$lcc8968 |    00645500  A$lcc8968 |    00645501  A$lcc8968
     00645501  C$worldte |    00645504  A$lcc8968 |    00645506  A$lcc8968
     00645507  A$lcc8968 |    00645509  A$lcc8968 |    00645509  C$worldte
     0064550C  A$lcc8968 |    0064550E  A$lcc8968 |    0064550E  C$worldte
     00645510  A$lcc8968 |    00645510  C$worldte |    00645510  C$worldte
     00645513  A$lcc8968 |    00645514  A$lcc8968 |    00645515  A$lcc8968
     00645516  A$lcc8968 |    00645519  A$lcc8968 |    0064551A  A$lcc8968
     0064551B  A$lcc8968 |    0064551C  A$lcc8968 |    0064551F  A$lcc8968
     00645520  A$lcc8968 |    00645521  A$lcc8968 |    00645522  A$lcc8968
     00645522  C$worldte |    00645525  A$lcc8968 |    00645526  A$lcc8968
     00645527  A$lcc8968 |    00645528  A$lcc8968 |    00645528  C$worldte
     0064552B  A$lcc8968 |    0064552D  A$lcc8968 |    0064552D  C$worldte
     0064552D  C$worldte |    00645530  A$lcc8968 |    00645531  A$lcc8968
     00645532  A$lcc8968 |    00645533  A$lcc8968 |    00645535  A$lcc8968
     00645537  A$lcc8968 |    00645539  A$lcc8968 |    0064553B  A$lcc8968
     0064553D  A$lcc8968 |    0064553F  A$lcc8968 |    00645541  A$lcc8968
     00645543  A$lcc8968 |    00645544  A$lcc8968 |    00645545  A$lcc8968
     00645546  A$lcc8968 |    00645547  A$lcc8968 |    0064554A  A$lcc8968
     0064554C  A$lcc8968 |    0064554D  A$lcc8968 |    0064554E  A$lcc8968
     00645550  A$lcc8968 |    00645553  A$lcc8968 |    00645554  A$lcc8968
     00645555  A$lcc8968 |    00645556  A$lcc8968 |    00645558  A$lcc8968
     0064555A  A$lcc8968 |    0064555C  A$lcc8968 |    0064555E  A$lcc8968
     00645560  A$lcc8968 |    00645562  A$lcc8968 |    00645564  A$lcc8968
     00645566  A$lcc8968 |    00645567  A$lcc8968 |    00645568  A$lcc8968
ASxxxx Linker V03.00 + NoICE + sdld,  page 172.
Hexadecimal  [32-Bits]

Area                       Addr        Size        Decimal Bytes (Attributes)
--------------------       ----        ----        ------- ----- ------------
_CODE_100              00644000    00001AFB =        6907. bytes (REL,CON)

        Value  Global            Value  Global            Value  Global    
        -----  ------            -----  ------            -----  ------    
     00645569  A$lcc8968 |    0064556A  A$lcc8968 |    0064556D  A$lcc8968
     0064556F  A$lcc8968 |    00645570  A$lcc8968 |    00645571  A$lcc8968
     00645573  A$lcc8968 |    00645573  C$worldte |    00645576  A$lcc8968
     00645578  A$lcc8968 |    00645578  C$worldte |    0064557B  A$lcc8968
     0064557D  A$lcc8968 |    0064557D  C$worldte |    00645580  A$lcc8968
     00645582  A$lcc8968 |    00645582  C$worldte |    00645585  A$lcc8968
     00645586  A$lcc8968 |    00645589  A$lcc8968 |    00645589  C$worldte
     0064558C  A$lcc8968 |    0064558D  A$lcc8968 |    0064558E  A$lcc8968
     0064558F  A$lcc8968 |    00645591  A$lcc8968 |    00645593  A$lcc8968
     00645595  A$lcc8968 |    00645597  A$lcc8968 |    00645599  A$lcc8968
     0064559B  A$lcc8968 |    0064559D  A$lcc8968 |    0064559F  A$lcc8968
     006455A0  A$lcc8968 |    006455A2  A$lcc8968 |    006455A4  A$lcc8968
     006455A5  A$lcc8968 |    006455A7  A$lcc8968 |    006455A8  A$lcc8968
     006455AA  A$lcc8968 |    006455AC  A$lcc8968 |    006455AE  A$lcc8968
     006455B0  A$lcc8968 |    006455B1  A$lcc8968 |    006455B3  A$lcc8968
     006455B5  A$lcc8968 |    006455B7  A$lcc8968 |    006455B8  A$lcc8968
     006455BA  A$lcc8968 |    006455BA  C$worldte |    006455BD  A$lcc8968
     006455BF  A$lcc8968 |    006455C0  A$lcc8968 |    006455C2  A$lcc8968
     006455C5  A$lcc8968 |    006455C6  A$lcc8968 |    006455C9  A$lcc8968
     006455CA  A$lcc8968 |    006455CB  A$lcc8968 |    006455CC  A$lcc8968
     006455CF  A$lcc8968 |    006455D2  A$lcc8968 |    006455D3  A$lcc8968
     006455D4  A$lcc8968 |    006455D5  A$lcc8968 |    006455D8  A$lcc8968
     006455D9  A$lcc8968 |    006455D9  C$worldte |    006455DC  A$lcc8968
     006455DC  C$worldte |    006455DD  A$lcc8968 |    006455DF  A$lcc8968
     006455E0  A$lcc8968 |    006455E1  A$lcc8968 |    006455E2  A$lcc8968
     006455E3  A$lcc8968 |    006455E5  A$lcc8968 |    006455E7  A$lcc8968
     006455E7  C$worldte |    006455EA  A$lcc8968 |    006455EC  A$lcc8968
     006455ED  A$lcc8968 |    006455EF  A$lcc8968 |    006455F2  A$lcc8968
     006455F3  A$lcc8968 |    006455F6  A$lcc8968 |    006455F7  A$lcc8968
     006455F8  A$lcc8968 |    006455F9  A$lcc8968 |    006455FC  A$lcc8968
     006455FF  A$lcc8968 |    00645600  A$lcc8968 |    00645602  A$lcc8968
     00645603  A$lcc8968 |    00645606  A$lcc8968 |    00645607  A$lcc8968
     00645607  C$worldte |    0064560A  A$lcc8968 |    0064560D  A$lcc8968
     0064560E  A$lcc8968 |    0064560F  A$lcc8968 |    00645610  A$lcc8968
     00645612  A$lcc8968 |    00645614  A$lcc8968 |    00645616  A$lcc8968
     00645618  A$lcc8968 |    0064561A  A$lcc8968 |    0064561C  A$lcc8968
     0064561E  A$lcc8968 |    00645620  A$lcc8968 |    00645620  C$worldte
     00645623  A$lcc8968 |    00645623  C$worldte |    00645624  A$lcc8968
     00645626  A$lcc8968 |    00645628  A$lcc8968 |    00645629  A$lcc8968
     0064562B  A$lcc8968 |    0064562C  A$lcc8968 |    0064562E  A$lcc8968
     00645630  A$lcc8968 |    00645632  A$lcc8968 |    00645634  A$lcc8968
     00645635  A$lcc8968 |    00645637  A$lcc8968 |    00645639  A$lcc8968
     0064563B  A$lcc8968 |    0064563C  A$lcc8968 |    0064563E  A$lcc8968
     0064563E  C$worldte |    00645640  A$lcc8968 |    00645641  A$lcc8968
     00645643  A$lcc8968 |    00645646  A$lcc8968 |    00645647  A$lcc8968
     0064564A  A$lcc8968 |    0064564B  A$lcc8968 |    0064564C  A$lcc8968
     0064564E  A$lcc8968 |    00645650  A$lcc8968 |    00645653  A$lcc8968
     00645654  A$lcc8968 |    00645657  A$lcc8968 |    00645659  A$lcc8968
     0064565C  A$lcc8968 |    0064565D  A$lcc8968 |    0064565D  C$worldte
     0064565F  A$lcc8968 |    0064565F  C$worldte |    00645660  A$lcc8968
     00645662  A$lcc8968 |    00645663  A$lcc8968 |    00645664  A$lcc8968
ASxxxx Linker V03.00 + NoICE + sdld,  page 173.
Hexadecimal  [32-Bits]

Area                       Addr        Size        Decimal Bytes (Attributes)
--------------------       ----        ----        ------- ----- ------------
_CODE_100              00644000    00001AFB =        6907. bytes (REL,CON)

        Value  Global            Value  Global            Value  Global    
        -----  ------            -----  ------            -----  ------    
     00645665  A$lcc8968 |    00645666  A$lcc8968 |    00645668  A$lcc8968
     0064566A  A$lcc8968 |    0064566A  C$worldte |    0064566C  A$lcc8968
     0064566D  A$lcc8968 |    0064566F  A$lcc8968 |    00645672  A$lcc8968
     00645673  A$lcc8968 |    00645676  A$lcc8968 |    00645677  A$lcc8968
     00645678  A$lcc8968 |    0064567A  A$lcc8968 |    0064567C  A$lcc8968
     0064567F  A$lcc8968 |    00645680  A$lcc8968 |    00645682  A$lcc8968
     00645683  A$lcc8968 |    00645686  A$lcc8968 |    00645687  A$lcc8968
     00645687  C$worldte |    00645689  A$lcc8968 |    00645689  C$worldte
     0064568C  A$lcc8968 |    0064568E  A$lcc8968 |    0064568E  C$worldte
     00645691  A$lcc8968 |    00645693  A$lcc8968 |    00645693  C$worldte
     00645696  A$lcc8968 |    00645697  A$lcc8968 |    00645698  A$lcc8968
     00645699  A$lcc8968 |    0064569B  A$lcc8968 |    0064569D  A$lcc8968
     0064569F  A$lcc8968 |    006456A1  A$lcc8968 |    006456A3  A$lcc8968
     006456A5  A$lcc8968 |    006456A7  A$lcc8968 |    006456A9  A$lcc8968
     006456AC  A$lcc8968 |    006456AD  A$lcc8968 |    006456AD  C$worldte
     006456B0  A$lcc8968 |    006456B1  A$lcc8968 |    006456B2  A$lcc8968
     006456B3  A$lcc8968 |    006456B5  A$lcc8968 |    006456B7  A$lcc8968
     006456B9  A$lcc8968 |    006456BB  A$lcc8968 |    006456BD  A$lcc8968
     006456BF  A$lcc8968 |    006456C1  A$lcc8968 |    006456C3  A$lcc8968
     006456C6  A$lcc8968 |    006456C7  A$lcc8968 |    006456CA  A$lcc8968
     006456CB  A$lcc8968 |    006456CD  A$lcc8968 |    006456CE  A$lcc8968
     006456CF  A$lcc8968 |    006456D0  A$lcc8968 |    006456D1  A$lcc8968
     006456D1  C$worldte |    006456D4  A$lcc8968 |    006456D6  A$lcc8968
     006456D6  C$worldte |    006456D7  A$lcc8968 |    006456D8  A$lcc8968
     006456D9  A$lcc8968 |    006456DA  A$lcc8968 |    006456DB  A$lcc8968
     006456DD  A$lcc8968 |    006456DE  A$lcc8968 |    006456E0  A$lcc8968
     006456E1  A$lcc8968 |    006456E3  A$lcc8968 |    006456E5  A$lcc8968
     006456E7  A$lcc8968 |    006456E9  A$lcc8968 |    006456EA  A$lcc8968
     006456EC  A$lcc8968 |    006456EE  A$lcc8968 |    006456F0  A$lcc8968
     006456F1  A$lcc8968 |    006456F3  A$lcc8968 |    006456F3  C$worldte
     006456F6  A$lcc8968 |    006456F7  A$lcc8968 |    006456F8  A$lcc8968
     006456F9  A$lcc8968 |    006456FB  A$lcc8968 |    006456FD  A$lcc8968
     006456FF  A$lcc8968 |    00645701  A$lcc8968 |    00645703  A$lcc8968
     00645705  A$lcc8968 |    00645707  A$lcc8968 |    00645709  A$lcc8968
     0064570C  A$lcc8968 |    0064570D  A$lcc8968 |    0064570E  A$lcc8968
     0064570F  A$lcc8968 |    00645710  A$lcc8968 |    00645712  A$lcc8968
     00645714  A$lcc8968 |    00645716  A$lcc8968 |    00645718  A$lcc8968
     0064571A  A$lcc8968 |    0064571C  A$lcc8968 |    0064571E  A$lcc8968
     00645720  A$lcc8968 |    00645722  A$lcc8968 |    00645723  A$lcc8968
     00645724  A$lcc8968 |    00645725  A$lcc8968 |    00645726  A$lcc8968
     00645727  A$lcc8968 |    00645728  A$lcc8968 |    0064572B  A$lcc8968
     0064572C  A$lcc8968 |    0064572D  A$lcc8968 |    00645730  A$lcc8968
     00645732  A$lcc8968 |    00645734  A$lcc8968 |    00645734  C$worldte
     00645736  A$lcc8968 |    00645738  A$lcc8968 |    0064573A  A$lcc8968
     0064573A  C$worldte |    0064573D  A$lcc8968 |    0064573E  A$lcc8968
     0064573F  A$lcc8968 |    00645740  A$lcc8968 |    00645742  A$lcc8968
     00645744  A$lcc8968 |    00645746  A$lcc8968 |    00645748  A$lcc8968
     0064574A  A$lcc8968 |    0064574C  A$lcc8968 |    0064574E  A$lcc8968
     00645750  A$lcc8968 |    00645753  A$lcc8968 |    00645754  A$lcc8968
     00645755  A$lcc8968 |    00645756  A$lcc8968 |    00645757  A$lcc8968
     00645759  A$lcc8968 |    0064575B  A$lcc8968 |    0064575D  A$lcc8968
ASxxxx Linker V03.00 + NoICE + sdld,  page 174.
Hexadecimal  [32-Bits]

Area                       Addr        Size        Decimal Bytes (Attributes)
--------------------       ----        ----        ------- ----- ------------
_CODE_100              00644000    00001AFB =        6907. bytes (REL,CON)

        Value  Global            Value  Global            Value  Global    
        -----  ------            -----  ------            -----  ------    
     0064575F  A$lcc8968 |    00645761  A$lcc8968 |    00645763  A$lcc8968
     00645765  A$lcc8968 |    00645767  A$lcc8968 |    00645769  A$lcc8968
     0064576A  A$lcc8968 |    0064576B  A$lcc8968 |    0064576C  A$lcc8968
     0064576D  A$lcc8968 |    0064576E  A$lcc8968 |    0064576F  A$lcc8968
     00645772  A$lcc8968 |    00645773  A$lcc8968 |    00645774  A$lcc8968
     00645777  A$lcc8968 |    00645779  A$lcc8968 |    0064577C  A$lcc8968
     0064577D  A$lcc8968 |    0064577F  A$lcc8968 |    00645780  A$lcc8968
     00645781  A$lcc8968 |    00645782  A$lcc8968 |    00645783  A$lcc8968
     00645783  C$worldte |    00645786  A$lcc8968 |    00645788  A$lcc8968
     00645788  C$worldte |    00645789  A$lcc8968 |    0064578A  A$lcc8968
     0064578B  A$lcc8968 |    0064578C  A$lcc8968 |    0064578D  A$lcc8968
     0064578F  A$lcc8968 |    00645790  A$lcc8968 |    00645792  A$lcc8968
     00645793  A$lcc8968 |    00645795  A$lcc8968 |    00645797  A$lcc8968
     00645799  A$lcc8968 |    0064579B  A$lcc8968 |    0064579C  A$lcc8968
     0064579E  A$lcc8968 |    006457A0  A$lcc8968 |    006457A2  A$lcc8968
     006457A3  A$lcc8968 |    006457A5  A$lcc8968 |    006457A5  C$worldte
     006457A8  A$lcc8968 |    006457A9  A$lcc8968 |    006457AA  A$lcc8968
     006457AB  A$lcc8968 |    006457AD  A$lcc8968 |    006457AF  A$lcc8968
     006457B1  A$lcc8968 |    006457B3  A$lcc8968 |    006457B5  A$lcc8968
     006457B7  A$lcc8968 |    006457B9  A$lcc8968 |    006457BB  A$lcc8968
     006457BE  A$lcc8968 |    006457BF  A$lcc8968 |    006457C0  A$lcc8968
     006457C1  A$lcc8968 |    006457C2  A$lcc8968 |    006457C4  A$lcc8968
     006457C6  A$lcc8968 |    006457C8  A$lcc8968 |    006457CA  A$lcc8968
     006457CC  A$lcc8968 |    006457CE  A$lcc8968 |    006457D0  A$lcc8968
     006457D2  A$lcc8968 |    006457D4  A$lcc8968 |    006457D5  A$lcc8968
     006457D6  A$lcc8968 |    006457D7  A$lcc8968 |    006457D8  A$lcc8968
     006457DB  A$lcc8968 |    006457DC  A$lcc8968 |    006457DD  A$lcc8968
     006457DE  A$lcc8968 |    006457DF  A$lcc8968 |    006457E0  A$lcc8968
     006457E3  A$lcc8968 |    006457E5  A$lcc8968 |    006457E8  A$lcc8968
     006457E8  C$worldte |    006457EA  A$lcc8968 |    006457EC  A$lcc8968
     006457EE  A$lcc8968 |    006457EE  C$worldte |    006457F1  A$lcc8968
     006457F2  A$lcc8968 |    006457F3  A$lcc8968 |    006457F4  A$lcc8968
     006457F6  A$lcc8968 |    006457F8  A$lcc8968 |    006457FA  A$lcc8968
     006457FC  A$lcc8968 |    006457FE  A$lcc8968 |    00645800  A$lcc8968
     00645802  A$lcc8968 |    00645804  A$lcc8968 |    00645807  A$lcc8968
     00645808  A$lcc8968 |    00645809  A$lcc8968 |    0064580A  A$lcc8968
     0064580B  A$lcc8968 |    0064580D  A$lcc8968 |    0064580F  A$lcc8968
     00645811  A$lcc8968 |    00645813  A$lcc8968 |    00645815  A$lcc8968
     00645817  A$lcc8968 |    00645819  A$lcc8968 |    0064581B  A$lcc8968
     0064581D  A$lcc8968 |    0064581E  A$lcc8968 |    0064581F  A$lcc8968
     00645820  A$lcc8968 |    00645821  A$lcc8968 |    00645824  A$lcc8968
     00645825  A$lcc8968 |    00645826  A$lcc8968 |    00645827  A$lcc8968
     00645828  A$lcc8968 |    00645829  A$lcc8968 |    0064582C  A$lcc8968
     0064582E  A$lcc8968 |    00645831  A$lcc8968 |    00645831  C$worldte
     00645834  A$lcc8968 |    00645835  A$lcc8968 |    00645837  A$lcc8968
     00645837  C$worldte |    0064583A  A$lcc8968 |    0064583B  A$lcc8968
     0064583C  A$lcc8968 |    0064583D  A$lcc8968 |    0064583F  A$lcc8968
     00645841  A$lcc8968 |    00645843  A$lcc8968 |    00645845  A$lcc8968
     00645847  A$lcc8968 |    00645849  A$lcc8968 |    0064584B  A$lcc8968
     0064584D  A$lcc8968 |    00645850  A$lcc8968 |    00645851  A$lcc8968
     00645852  A$lcc8968 |    00645853  A$lcc8968 |    00645855  A$lcc8968
ASxxxx Linker V03.00 + NoICE + sdld,  page 175.
Hexadecimal  [32-Bits]

Area                       Addr        Size        Decimal Bytes (Attributes)
--------------------       ----        ----        ------- ----- ------------
_CODE_100              00644000    00001AFB =        6907. bytes (REL,CON)

        Value  Global            Value  Global            Value  Global    
        -----  ------            -----  ------            -----  ------    
     00645857  A$lcc8968 |    00645859  A$lcc8968 |    0064585B  A$lcc8968
     0064585D  A$lcc8968 |    0064585F  A$lcc8968 |    00645861  A$lcc8968
     00645863  A$lcc8968 |    00645864  A$lcc8968 |    00645865  A$lcc8968
     00645868  A$lcc8968 |    00645869  A$lcc8968 |    0064586C  A$lcc8968
     0064586D  A$lcc8968 |    0064586E  A$lcc8968 |    00645871  A$lcc8968
     00645873  A$lcc8968 |    00645873  C$worldte |    00645876  A$lcc8968
     00645877  A$lcc8968 |    00645878  A$lcc8968 |    00645879  A$lcc8968
     0064587B  A$lcc8968 |    0064587D  A$lcc8968 |    0064587F  A$lcc8968
     00645881  A$lcc8968 |    00645883  A$lcc8968 |    00645885  A$lcc8968
     00645887  A$lcc8968 |    00645889  A$lcc8968 |    0064588C  A$lcc8968
     0064588D  A$lcc8968 |    0064588E  A$lcc8968 |    0064588F  A$lcc8968
     00645891  A$lcc8968 |    00645893  A$lcc8968 |    00645895  A$lcc8968
     00645897  A$lcc8968 |    00645899  A$lcc8968 |    0064589B  A$lcc8968
     0064589D  A$lcc8968 |    0064589F  A$lcc8968 |    006458A0  A$lcc8968
     006458A1  A$lcc8968 |    006458A4  A$lcc8968 |    006458A5  A$lcc8968
     006458A8  A$lcc8968 |    006458A9  A$lcc8968 |    006458AA  A$lcc8968
     006458AD  A$lcc8968 |    006458AF  A$lcc8968 |    006458B2  A$lcc8968
     006458B3  A$lcc8968 |    006458B5  A$lcc8968 |    006458B6  A$lcc8968
     006458B7  A$lcc8968 |    006458B8  A$lcc8968 |    006458B8  C$worldte
     006458B9  A$lcc8968 |    006458BC  A$lcc8968 |    006458BD  A$lcc8968
     006458BE  A$lcc8968 |    006458BF  A$lcc8968 |    006458C0  A$lcc8968
     006458C1  A$lcc8968 |    006458C4  A$lcc8968 |    006458C6  A$lcc8968
     006458C7  A$lcc8968 |    006458C7  C$worldte |    006458C8  A$lcc8968
     006458CA  A$lcc8968 |    006458CD  A$lcc8968 |    006458CF  A$lcc8968
     006458D2  A$lcc8968 |    006458D2  C$worldte |    006458D4  A$lcc8968
     006458D5  A$lcc8968 |    006458D6  A$lcc8968 |    006458D6  C$worldte
     006458D7  A$lcc8968 |    006458D8  A$lcc8968 |    006458D9  A$lcc8968
     006458DB  A$lcc8968 |    006458DD  A$lcc8968 |    006458DD  C$worldte
     006458DE  A$lcc8968 |    006458DF  A$lcc8968 |    006458E1  A$lcc8968
     006458E3  A$lcc8968 |    006458E4  A$lcc8968 |    006458E5  A$lcc8968
     006458E6  A$lcc8968 |    006458E8  A$lcc8968 |    006458EA  A$lcc8968
     006458EC  A$lcc8968 |    006458ED  A$lcc8968 |    006458EE  A$lcc8968
     006458F0  A$lcc8968 |    006458F1  A$lcc8968 |    006458F3  A$lcc8968
     006458F4  A$lcc8968 |    006458F6  A$lcc8968 |    006458F8  A$lcc8968
     006458FA  A$lcc8968 |    006458FC  A$lcc8968 |    006458FD  A$lcc8968
     006458FF  A$lcc8968 |    00645901  A$lcc8968 |    00645903  A$lcc8968
     00645904  A$lcc8968 |    00645906  A$lcc8968 |    00645909  A$lcc8968
     0064590B  A$lcc8968 |    0064590D  A$lcc8968 |    0064590D  C$worldte
     0064590F  A$lcc8968 |    00645910  A$lcc8968 |    00645911  A$lcc8968
     00645912  A$lcc8968 |    00645913  A$lcc8968 |    00645914  A$lcc8968
     00645915  A$lcc8968 |    00645916  A$lcc8968 |    00645917  A$lcc8968
     0064591A  A$lcc8968 |    0064591B  A$lcc8968 |    0064591C  A$lcc8968
     0064591D  A$lcc8968 |    0064591D  C$worldte |    00645920  A$lcc8968
     00645921  A$lcc8968 |    00645922  A$lcc8968 |    00645923  A$lcc8968
     00645923  C$worldte |    00645924  A$lcc8968 |    00645925  A$lcc8968
     00645926  A$lcc8968 |    00645927  A$lcc8968 |    00645928  A$lcc8968
     0064592A  A$lcc8968 |    0064592C  A$lcc8968 |    0064592E  A$lcc8968
     00645930  A$lcc8968 |    00645931  A$lcc8968 |    00645933  A$lcc8968
     00645935  A$lcc8968 |    00645937  A$lcc8968 |    00645938  A$lcc8968
     0064593A  A$lcc8968 |    0064593A  C$worldte |    0064593B  A$lcc8968
     0064593D  A$lcc8968 |    0064593E  A$lcc8968 |    00645940  A$lcc8968
ASxxxx Linker V03.00 + NoICE + sdld,  page 176.
Hexadecimal  [32-Bits]

Area                       Addr        Size        Decimal Bytes (Attributes)
--------------------       ----        ----        ------- ----- ------------
_CODE_100              00644000    00001AFB =        6907. bytes (REL,CON)

        Value  Global            Value  Global            Value  Global    
        -----  ------            -----  ------            -----  ------    
     00645941  A$lcc8968 |    00645943  A$lcc8968 |    00645944  A$lcc8968
     00645945  A$lcc8968 |    00645946  A$lcc8968 |    00645947  A$lcc8968
     00645949  A$lcc8968 |    0064594B  A$lcc8968 |    0064594E  A$lcc8968
     00645950  A$lcc8968 |    00645952  A$lcc8968 |    00645952  C$worldte
     00645954  A$lcc8968 |    00645955  A$lcc8968 |    00645956  A$lcc8968
     00645957  A$lcc8968 |    00645958  A$lcc8968 |    00645959  A$lcc8968
     0064595A  A$lcc8968 |    0064595B  A$lcc8968 |    0064595C  A$lcc8968
     0064595D  A$lcc8968 |    0064595E  A$lcc8968 |    00645961  A$lcc8968
     00645962  A$lcc8968 |    00645963  A$lcc8968 |    00645966  A$lcc8968
     00645967  A$lcc8968 |    00645969  A$lcc8968 |    0064596A  A$lcc8968
     0064596B  A$lcc8968 |    0064596C  A$lcc8968 |    0064596C  C$worldte
     0064596D  A$lcc8968 |    00645970  A$lcc8968 |    00645971  A$lcc8968
     00645972  A$lcc8968 |    00645973  A$lcc8968 |    00645974  A$lcc8968
     00645975  A$lcc8968 |    00645978  A$lcc8968 |    0064597A  A$lcc8968
     0064597B  A$lcc8968 |    0064597B  C$worldte |    0064597C  A$lcc8968
     0064597E  A$lcc8968 |    00645981  A$lcc8968 |    00645983  A$lcc8968
     00645986  A$lcc8968 |    00645986  C$worldte |    00645988  A$lcc8968
     00645989  A$lcc8968 |    0064598A  A$lcc8968 |    0064598A  C$worldte
     0064598B  A$lcc8968 |    0064598C  A$lcc8968 |    0064598D  A$lcc8968
     0064598F  A$lcc8968 |    00645991  A$lcc8968 |    00645991  C$worldte
     00645992  A$lcc8968 |    00645993  A$lcc8968 |    00645995  A$lcc8968
     00645997  A$lcc8968 |    00645998  A$lcc8968 |    00645999  A$lcc8968
     0064599A  A$lcc8968 |    0064599C  A$lcc8968 |    0064599E  A$lcc8968
     006459A0  A$lcc8968 |    006459A1  A$lcc8968 |    006459A2  A$lcc8968
     006459A4  A$lcc8968 |    006459A5  A$lcc8968 |    006459A7  A$lcc8968
     006459A8  A$lcc8968 |    006459AA  A$lcc8968 |    006459AC  A$lcc8968
     006459AE  A$lcc8968 |    006459B0  A$lcc8968 |    006459B1  A$lcc8968
     006459B3  A$lcc8968 |    006459B5  A$lcc8968 |    006459B7  A$lcc8968
     006459B8  A$lcc8968 |    006459BA  A$lcc8968 |    006459BD  A$lcc8968
     006459BF  A$lcc8968 |    006459C1  A$lcc8968 |    006459C1  C$worldte
     006459C3  A$lcc8968 |    006459C4  A$lcc8968 |    006459C5  A$lcc8968
     006459C6  A$lcc8968 |    006459C7  A$lcc8968 |    006459C8  A$lcc8968
     006459C9  A$lcc8968 |    006459CA  A$lcc8968 |    006459CB  A$lcc8968
     006459CE  A$lcc8968 |    006459CF  A$lcc8968 |    006459D0  A$lcc8968
     006459D1  A$lcc8968 |    006459D1  C$worldte |    006459D4  A$lcc8968
     006459D5  A$lcc8968 |    006459D6  A$lcc8968 |    006459D7  A$lcc8968
     006459D7  C$worldte |    006459D8  A$lcc8968 |    006459D9  A$lcc8968
     006459DA  A$lcc8968 |    006459DB  A$lcc8968 |    006459DC  A$lcc8968
     006459DE  A$lcc8968 |    006459E0  A$lcc8968 |    006459E2  A$lcc8968
     006459E4  A$lcc8968 |    006459E5  A$lcc8968 |    006459E7  A$lcc8968
     006459E9  A$lcc8968 |    006459EB  A$lcc8968 |    006459EC  A$lcc8968
     006459EE  A$lcc8968 |    006459EE  C$worldte |    006459EF  A$lcc8968
     006459F1  A$lcc8968 |    006459F2  A$lcc8968 |    006459F4  A$lcc8968
     006459F5  A$lcc8968 |    006459F7  A$lcc8968 |    006459F8  A$lcc8968
     006459F9  A$lcc8968 |    006459FA  A$lcc8968 |    006459FB  A$lcc8968
     006459FD  A$lcc8968 |    006459FF  A$lcc8968 |    00645A02  A$lcc8968
     00645A03  A$lcc8968 |    00645A05  A$lcc8968 |    00645A05  C$worldte
     00645A07  A$lcc8968 |    00645A08  A$lcc8968 |    00645A09  A$lcc8968
     00645A0A  A$lcc8968 |    00645A0B  A$lcc8968 |    00645A0C  A$lcc8968
     00645A0D  A$lcc8968 |    00645A0E  A$lcc8968 |    00645A0F  A$lcc8968
     00645A10  A$lcc8968 |    00645A11  A$lcc8968 |    00645A14  A$lcc8968
ASxxxx Linker V03.00 + NoICE + sdld,  page 177.
Hexadecimal  [32-Bits]

Area                       Addr        Size        Decimal Bytes (Attributes)
--------------------       ----        ----        ------- ----- ------------
_CODE_100              00644000    00001AFB =        6907. bytes (REL,CON)

        Value  Global            Value  Global            Value  Global    
        -----  ------            -----  ------            -----  ------    
     00645A15  A$lcc8968 |    00645A16  A$lcc8968 |    00645A16  C$worldte
     00645A19  A$lcc8968 |    00645A1A  A$lcc8968 |    00645A1C  A$lcc8968
     00645A1C  C$worldte |    00645A1F  A$lcc8968 |    00645A20  A$lcc8968
     00645A21  A$lcc8968 |    00645A22  A$lcc8968 |    00645A25  A$lcc8968
     00645A26  A$lcc8968 |    00645A27  A$lcc8968 |    00645A28  A$lcc8968
     00645A29  A$lcc8968 |    00645A2A  A$lcc8968 |    00645A2B  A$lcc8968
     00645A2E  A$lcc8968 |    00645A2F  A$lcc8968 |    00645A30  A$lcc8968
     00645A31  A$lcc8968 |    00645A31  C$worldte |    00645A34  A$lcc8968
     00645A35  A$lcc8968 |    00645A36  A$lcc8968 |    00645A37  A$lcc8968
     00645A39  A$lcc8968 |    00645A3B  A$lcc8968 |    00645A3D  A$lcc8968
     00645A3F  A$lcc8968 |    00645A41  A$lcc8968 |    00645A43  A$lcc8968
     00645A45  A$lcc8968 |    00645A47  A$lcc8968 |    00645A4A  A$lcc8968
     00645A4B  A$lcc8968 |    00645A4B  C$worldte |    00645A4E  A$lcc8968
     00645A4F  A$lcc8968 |    00645A50  A$lcc8968 |    00645A51  A$lcc8968
     00645A53  A$lcc8968 |    00645A55  A$lcc8968 |    00645A57  A$lcc8968
     00645A59  A$lcc8968 |    00645A5B  A$lcc8968 |    00645A5D  A$lcc8968
     00645A5F  A$lcc8968 |    00645A61  A$lcc8968 |    00645A64  A$lcc8968
     00645A65  A$lcc8968 |    00645A65  C$worldte |    00645A68  A$lcc8968
     00645A69  A$lcc8968 |    00645A6A  A$lcc8968 |    00645A6C  A$lcc8968
     00645A6F  A$lcc8968 |    00645A70  A$lcc8968 |    00645A71  A$lcc8968
     00645A73  A$lcc8968 |    00645A73  C$worldte |    00645A76  A$lcc8968
     00645A77  A$lcc8968 |    00645A79  A$lcc8968 |    00645A79  C$worldte
     00645A7C  A$lcc8968 |    00645A7C  C$worldte |    00645A7F  A$lcc8968
     00645A80  A$lcc8968 |    00645A81  A$lcc8968 |    00645A83  A$lcc8968
     00645A83  C$worldte |    00645A86  A$lcc8968 |    00645A87  A$lcc8968
     00645A8A  A$lcc8968 |    00645A8B  A$lcc8968 |    00645A8E  A$lcc8968
     00645A8E  C$worldte |    00645A91  A$lcc8968 |    00645A92  A$lcc8968
     00645A93  A$lcc8968 |    00645A95  A$lcc8968 |    00645A95  C$worldte
     00645A98  A$lcc8968 |    00645A99  A$lcc8968 |    00645A9C  A$lcc8968
     00645A9D  A$lcc8968 |    00645AA0  A$lcc8968 |    00645AA0  C$worldte
     00645AA3  A$lcc8968 |    00645AA3  C$worldte |    00645AA6  A$lcc8968
     00645AA7  A$lcc8968 |    00645AA9  A$lcc8968 |    00645AA9  C$worldte
     00645AAC  A$lcc8968 |    00645AAC  C$worldte |    00645AAF  A$lcc8968
     00645AAF  C$worldte |    00645AB2  A$lcc8968 |    00645AB2  C$worldte
     00645AB5  A$lcc8968 |    00645AB7  A$lcc8968 |    00645AB7  C$worldte
     00645ABA  A$lcc8968 |    00645ABC  A$lcc8968 |    00645ABC  C$worldte
     00645ABF  A$lcc8968 |    00645AC1  A$lcc8968 |    00645AC3  A$lcc8968
     00645AC3  C$worldte |    00645AC6  A$lcc8968 |    00645AC6  C$worldte
     00645AC9  A$lcc8968 |    00645AC9  C$worldte |    00645ACC  A$lcc8968
     00645ACD  A$lcc8968 |    00645ACF  A$lcc8968 |    00645ACF  C$worldte
     00645AD2  A$lcc8968 |    00645AD5  A$lcc8968 |    00645AD5  C$worldte
     00645AD8  A$lcc8968 |    00645AD9  A$lcc8968 |    00645ADA  A$lcc8968
     00645ADC  A$lcc8968 |    00645ADC  C$worldte |    00645ADE  A$lcc8968
     00645ADE  C$worldte |    00645AE1  A$lcc8968 |    00645AE3  A$lcc8968
     00645AE6  A$lcc8968 |    00645AE6  C$worldte |    00645AE9  A$lcc8968
     00645AEA  A$lcc8968 |    00645AEB  A$lcc8968 |    00645AEE  A$lcc8968
     00645AEE  C$worldte |    00645AF0  A$lcc8968 |    00645AF0  C$worldte
     00645AF3  A$lcc8968 |    00645AF5  A$lcc8968 |    00645AF8  A$lcc8968
     00645AFA  A$lcc8968 |    00645AFA  C$worldte |    00645AFA  XG$enter_
ASxxxx Linker V03.00 + NoICE + sdld,  page 178.
Hexadecimal  [32-Bits]

Area                       Addr        Size        Decimal Bytes (Attributes)
--------------------       ----        ----        ------- ----- ------------
_CODE_201              00C94000    0000002E =          46. bytes (REL,CON)

        Value  Global            Value  Global            Value  Global    
        -----  ------            -----  ------            -----  ------    
     00C94000  G$bullet_ |    00C94000  _bullet_d |    00C94020  G$bullet_
     00C94020  _bullet_m |    00C94028  G$bullet_ |    00C94028  _bullet_m
     00C9402A  G$bullet_ |    00C9402A  _bullet_s
ASxxxx Linker V03.00 + NoICE + sdld,  page 179.
Hexadecimal  [32-Bits]

Area                       Addr        Size        Decimal Bytes (Attributes)
--------------------       ----        ----        ------- ----- ------------
_CODE_200              00C84000    00001112 =        4370. bytes (REL,CON)

        Value  Global            Value  Global            Value  Global    
        -----  ------            -----  ------            -----  ------    
     00C84000  G$detecti |    00C84000  _detectiv |    00C84220  G$detecti
     00C84220  _detectiv |    00C8422C  G$detecti |    00C8422C  _detectiv
     00C84238  G$detecti |    00C84238  _detectiv |    00C84244  G$detecti
     00C84244  _detectiv |    00C84250  G$detecti |    00C84250  _detectiv
     00C8425C  G$detecti |    00C8425C  _detectiv |    00C84268  G$detecti
     00C84268  _detectiv |    00C84274  G$detecti |    00C84274  _detectiv
     00C84280  G$detecti |    00C84280  _detectiv |    00C8428C  G$detecti
     00C8428C  _detectiv |    00C84298  G$detecti |    00C84298  _detectiv
     00C842A4  G$detecti |    00C842A4  _detectiv |    00C842B0  G$detecti
     00C842B0  _detectiv |    00C842C8  G$detecti |    00C842C8  _detectiv
     00C842D2  G$detecti |    00C842D2  _detectiv |    00C842DC  G$detecti
     00C842DC  _detectiv |    00C842E6  G$detecti |    00C842E6  _detectiv
     00C842EA  G$detecti |    00C842EA  _detectiv |    00C842EE  G$detecti
     00C842EE  _detectiv |    00C842F2  G$detecti |    00C842F2  _detectiv
     00C84DB2  G$detecti |    00C84DB2  _detectiv |    00C84DCA  G$detecti
     00C84DCA  _detectiv |    00C84DE2  G$detecti |    00C84DE2  _detectiv
     00C84DFE  G$detecti |    00C84DFE  _detectiv |    00C84E16  G$detecti
     00C84E16  _detectiv |    00C84E32  G$detecti |    00C84E32  _detectiv
     00C84E4E  G$detecti |    00C84E4E  _detectiv |    00C84E6A  G$detecti
     00C84E6A  _detectiv |    00C84E86  G$detecti |    00C84E86  _detectiv
     00C84EA2  G$detecti |    00C84EA2  _detectiv |    00C84EBE  G$detecti
     00C84EBE  _detectiv |    00C84EDA  G$detecti |    00C84EDA  _detectiv
     00C84EF6  G$detecti |    00C84EF6  _detectiv |    00C84F12  G$detecti
     00C84F12  _detectiv |    00C84F2E  G$detecti |    00C84F2E  _detectiv
     00C84F4A  G$detecti |    00C84F4A  _detectiv |    00C84F62  G$detecti
     00C84F62  _detectiv |    00C84F7E  G$detecti |    00C84F7E  _detectiv
     00C84F9A  G$detecti |    00C84F9A  _detectiv |    00C84FBE  G$detecti
     00C84FBE  _detectiv |    00C84FD0  G$detecti |    00C84FD0  _detectiv
     00C84FD4  G$detecti |    00C84FD4  _detectiv |    00C84FDE  G$detecti
     00C84FDE  _detectiv |    00C84FE8  G$detecti |    00C84FE8  _detectiv
     00C84FEE  G$detecti |    00C84FEE  _detectiv |    00C84FF2  G$detecti
     00C84FF2  _detectiv |    00C84FFA  G$detecti |    00C84FFA  _detectiv
     00C84FFE  G$detecti |    00C84FFE  _detectiv |    00C85006  G$detecti
     00C85006  _detectiv |    00C8500E  G$elevato |    00C8500E  _elevator
     00C8504E  G$elevato |    00C8504E  _elevator |    00C8506A  G$elevato
     00C8506A  _elevator |    00C8506C  G$elevato |    00C8506C  _elevator
     00C85070  G$NPC_ele |    00C85070  _NPC_elec |    00C850F0  G$NPC_ele
     00C850F0  _NPC_elec |    00C850FC  G$NPC_ele |    00C850FC  _NPC_elec
     00C85108  G$NPC_ele |    00C85108  _NPC_elec |    00C8510C  G$NPC_ele
     00C8510C  _NPC_elec
ASxxxx Linker V03.00 + NoICE + sdld,  page 180.
Hexadecimal  [32-Bits]

Area                       Addr        Size        Decimal Bytes (Attributes)
--------------------       ----        ----        ------- ----- ------------
_CODE_225              00E14000    000011F8 =        4600. bytes (REL,CON)

        Value  Global            Value  Global            Value  Global    
        -----  ------            -----  ------            -----  ------    
     00E14000  G$LEVEL_1 |    00E14000  _LEVEL_1_ |    00E148FC  G$STAGE_D
     00E148FC  _STAGE_DR
ASxxxx Linker V03.00 + NoICE + sdld,  page 181.
Hexadecimal  [32-Bits]

Area                       Addr        Size        Decimal Bytes (Attributes)
--------------------       ----        ----        ------- ----- ------------
_CODE_6                00064000    00000E10 =        3600. bytes (REL,CON)

        Value  Global            Value  Global            Value  Global    
        -----  ------            -----  ------            -----  ------    
     00064000  G$LEVEL_1 |    00064000  _LEVEL_1_ |    00064708  G$STAGE_D
     00064708  _STAGE_DR
ASxxxx Linker V03.00 + NoICE + sdld,  page 182.
Hexadecimal  [32-Bits]

Area                       Addr        Size        Decimal Bytes (Attributes)
--------------------       ----        ----        ------- ----- ------------
_CODE_8                00084000    00000E10 =        3600. bytes (REL,CON)

        Value  Global            Value  Global            Value  Global    
        -----  ------            -----  ------            -----  ------    
     00084000  G$LEVEL_2 |    00084000  _LEVEL_2_
ASxxxx Linker V03.00 + NoICE + sdld,  page 183.
Hexadecimal  [32-Bits]

Area                       Addr        Size        Decimal Bytes (Attributes)
--------------------       ----        ----        ------- ----- ------------
_CODE_4                00044000    000001A0 =         416. bytes (REL,CON)

        Value  Global            Value  Global            Value  Global    
        -----  ------            -----  ------            -----  ------    
     00044000  G$LEVEL_T |    00044000  _LEVEL_TI |    000440D0  G$STAGE_D
     000440D0  _STAGE_DR
ASxxxx Linker V03.00 + NoICE + sdld,  page 184.
Hexadecimal  [32-Bits]

Area                       Addr        Size        Decimal Bytes (Attributes)
--------------------       ----        ----        ------- ----- ------------
_CODE_230              00E64000    000005A0 =        1440. bytes (REL,CON)

        Value  Global            Value  Global            Value  Global    
        -----  ------            -----  ------            -----  ------    
     00E64000  G$WORLD1_ |    00E64000  _WORLD1_C
ASxxxx Linker V03.00 + NoICE + sdld,  page 185.
Hexadecimal  [32-Bits]

Area                       Addr        Size        Decimal Bytes (Attributes)
--------------------       ----        ----        ------- ----- ------------
_CODE_101              00654000    000005A0 =        1440. bytes (REL,CON)

        Value  Global            Value  Global            Value  Global    
        -----  ------            -----  ------            -----  ------    
     00654000  G$WORLD1_ |    00654000  _WORLD1_M
ASxxxx Linker V03.00 + NoICE + sdld,  page 186.

Files Linked                              [ module(s) ]

C:\c_code\gbdk\lib/small/asxxxx/gb/crt0.o
                                          [ Runtime ]
C:\Users\User\AppData\Local\Temp/lcc89680.rel
                                          [ camera ]
C:\Users\User\AppData\Local\Temp/lcc89681.rel
                                          [ collisions ]
C:\Users\User\AppData\Local\Temp/lcc89682.rel
                                          [ level1 ]
C:\Users\User\AppData\Local\Temp/lcc89683.rel
                                          [ level2 ]
C:\Users\User\AppData\Local\Temp/lcc89684.rel
                                          [ main ]
C:\Users\User\AppData\Local\Temp/lcc89685.rel
                                          [ scene ]
C:\Users\User\AppData\Local\Temp/lcc89686.rel
                                          [ worldtest ]
C:\Users\User\AppData\Local\Temp/lcc89687.rel
                                          [ bullet ]
C:\Users\User\AppData\Local\Temp/lcc89688.rel
                                          [ detective_16 ]
C:\Users\User\AppData\Local\Temp/lcc89689.rel
                                          [ detective_large ]
C:\Users\User\AppData\Local\Temp/lcc896810.rel
                                          [ elevator ]
C:\Users\User\AppData\Local\Temp/lcc896811.rel
                                          [ level_1_collision ]
C:\Users\User\AppData\Local\Temp/lcc896812.rel
                                          [ level_1_map ]
C:\Users\User\AppData\Local\Temp/lcc896813.rel
                                          [ level_2_collision ]
C:\Users\User\AppData\Local\Temp/lcc896814.rel
                                          [ level_2_map ]
C:\Users\User\AppData\Local\Temp/lcc896815.rel
                                          [ level_tileset ]
C:\Users\User\AppData\Local\Temp/lcc896816.rel
                                          [ NPC_electric ]
C:\Users\User\AppData\Local\Temp/lcc896817.rel
                                          [ stage_drop_collision ]
C:\Users\User\AppData\Local\Temp/lcc896818.rel
                                          [ stage_drop_map ]
C:\Users\User\AppData\Local\Temp/lcc896819.rel
                                          [ stage_drop_tiles ]
C:\Users\User\AppData\Local\Temp/lcc896820.rel
                                          [ world1_collision ]
C:\Users\User\AppData\Local\Temp/lcc896821.rel
                                          [ world1_map ]
C:\Users\User\AppData\Local\Temp/lcc896822.rel
                                          [ world1_tiles ]


Libraries Linked                          [ object file ]

C:\c_code\gbdk\lib/small/asxxxx/gb/gb.lib
                                          [ sfr.o ]
C:\c_code\gbdk\lib/small/asxxxx/gb/gb.lib
                                          [ metasprites_hide.o ]
C:\c_code\gbdk\lib/small/asxxxx/gbz80/gbz80.lib
                                          [ abs.o ]
C:\c_code\gbdk\lib/small/asxxxx/gbz80/gbz80.lib
                                          [ mul.o ]
C:\c_code\gbdk\lib/small/asxxxx/gb/gb.lib
                                          [ set_data.o ]
C:\c_code\gbdk\lib/small/asxxxx/gb/gb.lib
                                          [ set_tile_submap.o ]
C:\c_code\gbdk\lib/small/asxxxx/gb/gb.lib
                                          [ pad.o ]
C:\c_code\gbdk\lib/small/asxxxx/gb/gb.lib
                                          [ metasprites.o ]
C:\c_code\gbdk\lib/small/asxxxx/gbz80/gbz80.lib
                                          [ __sdcc_call_hl.o ]
C:\c_code\gbdk\lib/small/asxxxx/gbz80/gbz80.lib
                                          [ _memcpy.o ]
C:\c_code\gbdk\lib/small/asxxxx/gb/gb.lib
                                          [ metasprites_flip.o ]
C:\c_code\gbdk\lib/small/asxxxx/gbz80/gbz80.lib
                                          [ div.o ]

ASxxxx Linker V03.00 + NoICE + sdld,  page 187.

User Base Address Definitions

_DATA=0xC0A0
_CODE=0x0200
ASxxxx Linker V03.00 + NoICE + sdld,  page 188.

User Global Definitions

_shadow_OAM=0xC000
.STACK=0xE000
.refresh_OAM=0xFF80

